
CH32V303CBT.elf:     file format elf32-littleriscv
CH32V303CBT.elf
architecture: riscv:rv32, flags 0x00000112:
EXEC_P, HAS_SYMS, D_PAGED
start address 0x00000000

Program Header:
    LOAD off    0x00001000 vaddr 0x00000000 paddr 0x00000000 align 2**12
         filesz 0x0000726c memsz 0x0000726c flags r-x
    LOAD off    0x00009000 vaddr 0x20000000 paddr 0x0000726c align 2**12
         filesz 0x00000230 memsz 0x00001ab4 flags rw-
    LOAD off    0x00009800 vaddr 0x20007800 paddr 0x20007800 align 2**12
         filesz 0x00000000 memsz 0x00000800 flags rw-

Sections:
Idx Name          Size      VMA       LMA       File off  Algn
  0 .init         00000004  00000000  00000000  00001000  2**1
                  CONTENTS, ALLOC, LOAD, READONLY, CODE
  1 .vector       000001bc  00000004  00000004  00001004  2**1
                  CONTENTS, ALLOC, LOAD, READONLY, CODE
  2 .text         000070ac  000001c0  000001c0  000011c0  2**3
                  CONTENTS, ALLOC, LOAD, READONLY, CODE
  3 .fini         00000000  0000726c  0000726c  00009230  2**0
                  CONTENTS, ALLOC, LOAD, CODE
  4 .dalign       00000000  20000000  20000000  00009230  2**0
                  CONTENTS
  5 .dlalign      00000000  0000726c  0000726c  00009230  2**0
                  CONTENTS
  6 .data         00000230  20000000  0000726c  00009000  2**2
                  CONTENTS, ALLOC, LOAD, DATA
  7 .bss          00001884  20000230  0000749c  00009230  2**3
                  ALLOC
  8 .stack        00000800  20007800  20007800  00009800  2**0
                  ALLOC
  9 .debug_info   0001bf0f  00000000  00000000  00009230  2**0
                  CONTENTS, READONLY, DEBUGGING
 10 .debug_abbrev 000049ff  00000000  00000000  0002513f  2**0
                  CONTENTS, READONLY, DEBUGGING
 11 .debug_loc    000070d9  00000000  00000000  00029b3e  2**0
                  CONTENTS, READONLY, DEBUGGING
 12 .debug_aranges 00000cb8  00000000  00000000  00030c18  2**3
                  CONTENTS, READONLY, DEBUGGING
 13 .debug_ranges 00000f60  00000000  00000000  000318d0  2**3
                  CONTENTS, READONLY, DEBUGGING
 14 .debug_line   00013beb  00000000  00000000  00032830  2**0
                  CONTENTS, READONLY, DEBUGGING
 15 .debug_str    00004346  00000000  00000000  0004641b  2**0
                  CONTENTS, READONLY, DEBUGGING
 16 .comment      00000033  00000000  00000000  0004a761  2**0
                  CONTENTS, READONLY
 17 .debug_frame  00002510  00000000  00000000  0004a794  2**2
                  CONTENTS, READONLY, DEBUGGING
SYMBOL TABLE:
00000000 l    d  .init	00000000 .init
00000004 l    d  .vector	00000000 .vector
000001c0 l    d  .text	00000000 .text
0000726c l    d  .fini	00000000 .fini
20000000 l    d  .dalign	00000000 .dalign
0000726c l    d  .dlalign	00000000 .dlalign
20000000 l    d  .data	00000000 .data
20000230 l    d  .bss	00000000 .bss
20007800 l    d  .stack	00000000 .stack
00000000 l    d  .debug_info	00000000 .debug_info
00000000 l    d  .debug_abbrev	00000000 .debug_abbrev
00000000 l    d  .debug_loc	00000000 .debug_loc
00000000 l    d  .debug_aranges	00000000 .debug_aranges
00000000 l    d  .debug_ranges	00000000 .debug_ranges
00000000 l    d  .debug_line	00000000 .debug_line
00000000 l    d  .debug_str	00000000 .debug_str
00000000 l    d  .comment	00000000 .comment
00000000 l    d  .debug_frame	00000000 .debug_frame
00000000 l    df *ABS*	00000000 ./Startup/startup_ch32v30x_D8.o
00000004 l       .vector	00000000 _vector_base
00000000 l    df *ABS*	00000000 ch32v30x_it.c
00000000 l    df *ABS*	00000000 main.c
00000000 l    df *ABS*	00000000 system_ch32v30x.c
00000000 l    df *ABS*	00000000 ch32v30x_dbgmcu.c
00000000 l    df *ABS*	00000000 ch32v30x_dma.c
00000000 l    df *ABS*	00000000 ch32v30x_exti.c
00000000 l    df *ABS*	00000000 ch32v30x_gpio.c
00000000 l    df *ABS*	00000000 ch32v30x_i2c.c
00000000 l    df *ABS*	00000000 ch32v30x_misc.c
00000000 l    df *ABS*	00000000 ch32v30x_rcc.c
2000001c l     O .data	00000010 APBAHBPrescTable
2000020c l     O .data	00000004 ADCPrescTable
00000000 l    df *ABS*	00000000 ch32v30x_tim.c
00000000 l    df *ABS*	00000000 ch32v30x_usart.c
00000000 l    df *ABS*	00000000 cJSON.c
000011e0 l     F .text	0000000e internal_malloc
000011ee l     F .text	00000012 internal_free
00001200 l     F .text	000000f6 parse_string
000012f6 l     F .text	00000016 skip
0000130c l     F .text	000003fa parse_value
20000258 l     O .bss	00000004 ep
20000210 l     O .data	00000004 cJSON_free
20000214 l     O .data	00000004 cJSON_malloc
00000000 l    df *ABS*	00000000 ch32v30x_usbfs_device.c
20000218 l     O .data	00000007 LineCoding
00000000 l    df *ABS*	00000000 dac8571.c
00000000 l    df *ABS*	00000000 i2c_util.c
00001fbe l     F .text	0000003c i2c_timeout_start
00001ffa l     F .text	00000014 i2c_timeout_stop
0000200e l     F .text	0000000e i2c_get_ticks
0000201c l     F .text	00000032 i2c_elapsed_ms
0000204e l     F .text	000000c4 i2c_wait_event_ex
00002112 l     F .text	00000166 i2c_write_once
00002278 l     F .text	00000050 i2c_wait_rxne
000022c8 l     F .text	000001c8 i2c_read_once
00000000 l    df *ABS*	00000000 ina226.c
00000000 l    df *ABS*	00000000 protocol.c
00002778 l     F .text	00000026 cjson_arena_alloc
200004a8 l     O .bss	00001000 cjson_pool
0000279e l     F .text	00000002 cjson_arena_free
00002b32 l     F .text	00000034 send_response_ok
00002b66 l     F .text	00000042 send_error_ack
200014a8 l     O .bss	00000100 frame_buf
200015a8 l     O .bss	00000100 line_buf
2000002c l     O .data	00000009 local_chip_id_str
20000284 l     O .bss	00000002 cdc_seq.6703
20000288 l     O .bss	00000004 cjson_pool_used
2000028c l     O .bss	00000002 line_pos
20000290 l     O .bss	00000004 stored_cc_target
20000294 l     O .bss	00000004 stored_cv_target
00000000 l    df *ABS*	00000000 usb_cdc.c
00000000 l    df *ABS*	00000000 debug.c
20000298 l     O .bss	00000002 p_ms
2000029a l     O .bss	00000001 p_us
20000220 l     O .data	00000004 curbrk.5524
00000000 l    df *ABS*	00000000 printfloat.c
00000000 l    df *ABS*	00000000 libgcc2.c
00000000 l    df *ABS*	00000000 libgcc2.c
00000000 l    df *ABS*	00000000 adddf3.c
00000000 l    df *ABS*	00000000 divdf3.c
00000000 l    df *ABS*	00000000 ledf2.c
00000000 l    df *ABS*	00000000 muldf3.c
00000000 l    df *ABS*	00000000 subdf3.c
00000000 l    df *ABS*	00000000 fixdfsi.c
00000000 l    df *ABS*	00000000 floatsidf.c
00000000 l    df *ABS*	00000000 fixdfdi.c
00000000 l    df *ABS*	00000000 floatdidf.c
00000000 l    df *ABS*	00000000 divsf3.c
00000000 l    df *ABS*	00000000 gesf2.c
00000000 l    df *ABS*	00000000 lesf2.c
00000000 l    df *ABS*	00000000 floatsisf.c
00000000 l    df *ABS*	00000000 extendsfdf2.c
00000000 l    df *ABS*	00000000 libgcc2.c
00000000 l    df *ABS*	00000000 atoi.c
00000000 l    df *ABS*	00000000 locale.c
00000000 l    df *ABS*	00000000 malloc.c
00000000 l    df *ABS*	00000000 mbtowc_r.c
00000000 l    df *ABS*	00000000 memcpy.c
00000000 l    df *ABS*	00000000 nano-mallocr.c
00000000 l    df *ABS*	00000000 nano-mallocr.c
00000000 l    df *ABS*	00000000 sbrkr.c
00000000 l    df *ABS*	00000000 strncmp.c
00000000 l    df *ABS*	00000000 strtol.c
000065e0 l     F .text	0000013a _strtol_l.isra.0
00000000 l    df *ABS*	00000000 wctomb_r.c
00000000 l    df *ABS*	00000000 mlock.c
00000000 l    df *ABS*	00000000 usb_desc.c
00000000 l    df *ABS*	00000000 libgcc2.c
00000000 l    df *ABS*	00000000 ctype_.c
00000000 l    df *ABS*	00000000 impure.c
200001a4 l     O .data	00000060 impure_data
00000000 l    df *ABS*	00000000 fan.c
00000000 l    df *ABS*	00000000 reent.c
00003474  w    F .text	00000100 printDouble
000008c2  w      .text	00000000 EXTI2_IRQHandler
000008c2  w      .text	00000000 TIM8_TRG_COM_IRQHandler
000008c2  w      .text	00000000 TIM8_CC_IRQHandler
00006f38 g     O .text	00000016 MySerNumInfo
20000270 g     O .bss	00000002 USBFS_SetupReqValue
00000b00 g     F .text	00000014 DMA_Cmd
000008c2  w      .text	00000000 UART8_IRQHandler
20000238 g     O .bss	00000004 cc_target_current
00003574  w    F .text	00000358 print
00005ba6 g     F .text	000001b2 .hidden __floatdidf
000038cc  w    F .text	00000024 printf
20000a08 g       .data	00000000 __global_pointer$
000001c8 g     F .text	00000028 .hidden __riscv_save_8
000008c2  w      .text	00000000 TIM1_CC_IRQHandler
00000df0 g     F .text	00000008 I2C_ReceiveData
20000244 g     O .bss	00000001 dac_ok
000003e4 g     F .text	00000010 HardFault_Handler
2000027c g     O .bss	00000004 tacho_period_ticks
00003262  w    F .text	000000f2 printInt
00006758 g     F .text	00000002 __malloc_unlock
00000214 g     F .text	0000000c .hidden __riscv_restore_3
000008c2  w      .text	00000000 TIM6_IRQHandler
00005d58 g     F .text	000002ae .hidden __divsf3
000008c2  w      .text	00000000 SysTick_Handler
00000e64 g     F .text	0000005c NVIC_Init
000008c2  w      .text	00000000 PVD_IRQHandler
000008c2  w      .text	00000000 SDIO_IRQHandler
000008c2  w      .text	00000000 TIM9_BRK_IRQHandler
00000200 g     F .text	00000020 .hidden __riscv_restore_10
000038f0 g     F .text	0000002a snprintf
00006304 g     F .text	00000018 __locale_ctype_ptr
20000234 g     O .bss	00000002 last_dac_value
000008c2  w      .text	00000000 DMA2_Channel8_IRQHandler
000003e2 g     F .text	00000002 NMI_Handler
000008c2  w      .text	00000000 EXTI3_IRQHandler
000001c8 g     F .text	00000028 .hidden __riscv_save_11
00000952 g     F .text	0000000a DBGMCU_GetCHIPID
000026b4 g     F .text	0000005a i2c_util_read
00001822 g     F .text	00000046 USBFS_RCC_Init
20000248 g     O .bss	00000005 dev_ok
0000119a g     F .text	0000000a USART_GetFlagStatus
000008c2  w      .text	00000000 DMA2_Channel9_IRQHandler
000008c2  w      .text	00000000 TIM10_CC_IRQHandler
20001ab0 g     O .bss	00000004 errno
20000230 g       .bss	00000000 _sbss
00000800 g       *ABS*	00000000 __stack_size
2000026c g     O .bss	00000002 USBFS_SetupReqLen
00003076 g     F .text	0000005a USART_Printf_Init
00000ac8 g     F .text	00000038 DMA_Init
0000192a g     F .text	000005e4 USBFS_IRQHandler
00002490 g     F .text	000000d6 i2c_util_init
00000214 g     F .text	0000000c .hidden __riscv_restore_2
00002a12 g     F .text	00000042 ring_buffer_pop
00006efc g     O .text	00000012 MyDevDescr
00006362 g     F .text	000000b2 memcpy
00005a78 g     F .text	00000072 .hidden __floatsidf
00003354  w    F .text	00000120 printLongLongInt
00004d64 g     F .text	000000b6 .hidden __ltdf2
000008c2  w      .text	00000000 EXTI0_IRQHandler
000008c2  w      .text	00000000 I2C2_EV_IRQHandler
000008c2  w      .text	00000000 TIM10_TRG_COM_IRQHandler
200003a4 g     O .bss	00000101 USART_DMA_CTRL
00002ade g     F .text	00000054 protocol_send
0000391a  w    F .text	0000004a puts
20000208 g     O .data	00000004 SystemCoreClock
200002e4 g     O .bss	00000040 USBFS_EP1_Buf
00001192 g     F .text	00000008 USART_ReceiveData
0000631c g     F .text	0000000a malloc
00002750 g     F .text	00000028 ina226_check_alert
00002660 g     F .text	00000054 i2c_util_write
00000004 g       .init	00000000 _einit
00001092 g     F .text	0000000c TIM_ClearITPendingBit
00000b26 g     F .text	00000004 DMA_SetCurrDataCounter
0000608c g     F .text	0000008c .hidden __lesf2
00000fe4 g     F .text	0000001e RCC_APB2PeriphClockCmd
000001c0 g     F .text	00000030 .hidden __riscv_save_12
000008c2  w      .text	00000000 ADC1_2_IRQHandler
00000b7e g     F .text	000000c0 GPIO_Init
000008c2  w      .text	00000000 Break_Point_Handler
00000200 g     F .text	00000020 .hidden __riscv_restore_11
20000254 g     O .bss	00000004 NVIC_Priority_Group
000008c2  w      .text	00000000 SPI1_IRQHandler
0000112c g     F .text	00000016 USART_Cmd
00000b6a g     F .text	00000014 GPIO_AFIODeInit
00006586 g     F .text	00000032 _sbrk_r
000001f0 g     F .text	0000000c .hidden __riscv_save_1
000008c2  w      .text	00000000 TAMPER_IRQHandler
20000228 g     O .data	00000004 MyLangDescr
00000214 g     F .text	0000000c .hidden __riscv_restore_0
000001d6 g     F .text	0000001a .hidden __riscv_save_7
20000282 g     O .bss	00000001 tacho_valid
00000b56 g     F .text	0000000a DMA_ClearITPendingBit
00002ba8 g     F .text	00000372 protocol_process_command
000061de g     F .text	000000ac .hidden __extendsfdf2
000008c2  w      .text	00000000 TIM8_UP_IRQHandler
00001002 g     F .text	0000001e RCC_APB1PeriphClockCmd
00004080 g     F .text	00000730 .hidden __adddf3
000008c2  w      .text	00000000 Ecall_M_Mode_Handler
00006eb8 g     O .text	00000043 MyCfgDescr
20007800 g       .stack	00000000 _heap_end
20000230 g     O .bss	00000002 fault_source_mask
00003cf6 g     F .text	0000038a .hidden __umoddi3
0000300a g     F .text	00000036 Delay_Us
0000020a g     F .text	00000016 .hidden __riscv_restore_5
000027a0 g     F .text	00000138 protocol_init
00001f0e g     F .text	00000088 dac8571_init
000008c2  w      .text	00000000 DMA2_Channel2_IRQHandler
00000fc6 g     F .text	0000001e RCC_AHBPeriphClockCmd
00003964 g     F .text	00000392 .hidden __udivdi3
000008c2  w      .text	00000000 DMA1_Channel4_IRQHandler
00000dec g     F .text	00000004 I2C_SendData
0000310e g     F .text	0000002a _sbrk
00001748 g     F .text	00000044 cJSON_Parse
00006f10 g     O .text	0000000e MyManuInfo
0000671a g     F .text	0000001e strtol
00000c88 g     F .text	000000fe I2C_Init
000008c2  w      .text	00000000 TIM9_UP_IRQHandler
0000020a g     F .text	00000016 .hidden __riscv_restore_6
000008c2  w      .text	00000000 USART3_IRQHandler
0000178c g     F .text	00000096 cJSON_GetObjectItem
00000b60 g     F .text	0000000a EXTI_ClearITPendingBit
000008c2  w      .text	00000000 RTC_IRQHandler
2000025d g     O .bss	00000001 USBFS_DevConfig
20001ab4 g       .bss	00000000 _ebss
000011a4 g     F .text	0000003c USART_GetITStatus
00002fc2 g     F .text	0000001e usb_cdc_init
000008c2  w      .text	00000000 DMA1_Channel7_IRQHandler
000008c2  w      .text	00000000 CAN1_RX1_IRQHandler
00005a10 g     F .text	00000068 .hidden __fixdfsi
00002fe0 g     F .text	0000002a Delay_Init
20000240 g     O .bss	00000004 cycle_count
000008c2  w      .text	00000000 UART5_IRQHandler
20000278 g     O .bss	00000004 tacho_last_capture
00006006 g     F .text	00000086 .hidden __gtsf2
2000026a g     O .bss	00000002 USBFS_SetupReqIndex
00000c48 g     F .text	00000004 GPIO_SetBits
000008c2  w      .text	00000000 TIM4_IRQHandler
00004d64 g     F .text	000000b6 .hidden __ledf2
000001c8 g     F .text	00000028 .hidden __riscv_save_9
00000c4c g     F .text	0000000a GPIO_WriteBit
000008c2  w      .text	00000000 DMA2_Channel1_IRQHandler
2000026e g     O .bss	00000001 USBFS_SetupReqType
00000d9e g     F .text	0000001a I2C_GenerateSTART
000001d6 g     F .text	0000001a .hidden __riscv_save_4
000008c2  w      .text	00000000 I2C1_EV_IRQHandler
0000107a g     F .text	00000018 TIM_GetITStatus
20000260 g     O .bss	00000008 USBFS_Endp_Busy
00002566 g     F .text	000000fa i2c_util_bus_recovery
00000ec0 g     F .text	00000106 RCC_GetClocksFreq
000008c2  w      .text	00000000 DMA1_Channel6_IRQHandler
0000628a g     F .text	0000006e .hidden __clzsi2
20000250 g     O .bss	00000004 system_mode
000008c2  w      .text	00000000 UART4_IRQHandler
000008c2  w      .text	00000000 DMA2_Channel4_IRQHandler
0000109e g     F .text	0000008e USART_Init
00006414 g     F .text	000000a4 _free_r
000004a4 g     F .text	0000004e TIM3_IRQHandler
000008c2  w      .text	00000000 RCC_IRQHandler
000001f0 g     F .text	0000000c .hidden __riscv_save_3
000008c2  w      .text	00000000 TIM1_TRG_COM_IRQHandler
000028d8 g     F .text	0000009a DMA_INIT
000008c2  w      .text	00000000 DMA1_Channel1_IRQHandler
00000000 g       .init	00000000 _start
000008c2  w      .text	00000000 DMA2_Channel7_IRQHandler
2000000c g     O .data	00000010 AHBPrescTable
00000e20 g     F .text	00000032 I2C_GetFlagStatus
20000280 g     O .bss	00000002 tacho_timeout
00006118 g     F .text	000000c6 .hidden __floatsisf
00003182  w    F .text	000000e0 prints
000008c2  w      .text	00000000 EXTI15_10_IRQHandler
0000270e g     F .text	00000042 ina226_init
00001706 g     F .text	00000010 cJSON_InitHooks
000065b8 g     F .text	00000028 strncmp
000004f2 g     F .text	00000028 engage_cv
00001142 g     F .text	00000036 USART_ITConfig
20000268 g     O .bss	00000001 USBFS_SetupReqCode
20000324 g     O .bss	00000040 USBFS_EP2_Buf
20000000 g     O .data	0000000a devs
00000c56 g     F .text	00000032 I2C_DeInit
00000d86 g     F .text	00000018 I2C_Cmd
000008c2  w      .text	00000000 TIM7_IRQHandler
2000025e g     O .bss	00000001 USBFS_DevEnumStatus
00000e52 g     F .text	0000000c I2C_ClearFlag
20000000 g       .dalign	00000000 _data_vma
000008c2  w      .text	00000000 TIM5_IRQHandler
000008c2  w      .text	00000000 EXTI9_5_IRQHandler
000047b0 g     F .text	000005b4 .hidden __divdf3
2000025c g     O .bss	00000001 USBFS_DevAddr
00004e1a g     F .text	000004b8 .hidden __muldf3
000001c8 g     F .text	00000028 .hidden __riscv_save_10
00000df8 g     F .text	00000012 I2C_Send7bitAddress
00006756 g     F .text	00000002 __malloc_lock
0000020a g     F .text	00000016 .hidden __riscv_restore_4
00000200 g     F .text	00000020 .hidden __riscv_restore_8
000001d6 g     F .text	0000001a .hidden __riscv_save_6
000008c2  w      .text	00000000 SPI2_IRQHandler
00001716 g     F .text	00000032 cJSON_Delete
00000220 g     F .text	000000a8 memset
00000200 g     F .text	00000020 .hidden __riscv_restore_9
0000020a g     F .text	00000016 .hidden __riscv_restore_7
00000542 g     F .text	0000014e main
000008c2  w      .text	00000000 TIM10_BRK_IRQHandler
0000608c g     F .text	0000008c .hidden __ltsf2
000008c2  w      .text	00000000 TIM9_CC_IRQHandler
00002972 g     F .text	000000a0 ring_buffer_push_huge
000008c2  w      .text	00000000 DMA2_Channel5_IRQHandler
000064b8 g     F .text	000000ce _malloc_r
00006738 g     F .text	0000001e __ascii_wctomb
2000025f g     O .bss	00000001 USBFS_DevSleepStatus
00000720 g     F .text	00000068 DMA1_Channel5_IRQHandler
000003f4 g     F .text	000000b0 EXTI4_IRQHandler
00003040 g     F .text	00000036 Delay_Ms
000018d4 g     F .text	00000056 USBFS_Device_Init
000008c2  w      .text	00000000 USB_LP_CAN1_RX0_IRQHandler
00006f20 g     O .text	00000016 MyProdInfo
2000023c g     O .bss	00000004 cv_target_voltage
00001076 g     F .text	00000004 TIM_GetCapture2
000002c8 g     F .text	0000011a strcmp
00001868 g     F .text	0000006c USBFS_Device_Endp_Init
00000788 g     F .text	000000a8 SystemInit
000008c2  w      .text	00000000 RNG_IRQHandler
00003138  w    F .text	0000004a printchar
000008c2  w      .text	00000000 USB_HP_CAN1_TX_IRQHandler
00007058 g     O .text	00000100 .hidden __clz_tab
20000232 g     O .bss	00000001 fault_triggered
00000000 g       .init	00000000 _sinit
00005aea g     F .text	000000bc .hidden __fixdfdi
00006006 g     F .text	00000086 .hidden __gesf2
000008c2  w      .text	00000000 DMA1_Channel3_IRQHandler
20000224 g     O .data	00000004 _impure_ptr
000008c2  w      .text	00000000 TIM1_UP_IRQHandler
00002f1a g     F .text	000000a8 cdc_send_telemetry
000008c2  w      .text	00000000 WWDG_IRQHandler
000008c2  w      .text	00000000 DMA2_Channel11_IRQHandler
0000103e g     F .text	0000001e RCC_APB1PeriphResetCmd
00006330 g     F .text	00000032 __ascii_mbtowc
000008c2  w      .text	00000000 Ecall_U_Mode_Handler
00000b14 g     F .text	00000012 DMA_ITConfig
000008c2  w      .text	00000000 DMA2_Channel6_IRQHandler
000008c2  w      .text	00000000 TIM2_IRQHandler
20008000 g       .stack	00000000 _eusrstack
000001f0 g     F .text	0000000c .hidden __riscv_save_2
000008c2  w      .text	00000000 SW_Handler
000008c2  w      .text	00000000 TIM1_BRK_IRQHandler
0000118a g     F .text	00000008 USART_SendData
00001f96 g     F .text	00000028 dac8571_set_output
000008c2  w      .text	00000000 DMA2_Channel10_IRQHandler
000008c2  w      .text	00000000 EXTI1_IRQHandler
000001d6 g     F .text	0000001a .hidden __riscv_save_5
000030d0 g     F .text	0000003e _write
200002a4 g     O .bss	00000040 USBFS_EP0_Buf
20000230 g       .data	00000000 _edata
20000274 g     O .bss	00000004 pUSBFS_Descr
20001ab4 g       .bss	00000000 _end
00002a54 g     F .text	0000008a protocol_poll
000008c2  w      .text	00000000 RTCAlarm_IRQHandler
0000726c g       .dlalign	00000000 _data_lma
000008c2  w      .text	00000000 TIM10_UP_IRQHandler
000008c2  w      .text	00000000 TIM9_TRG_COM_IRQHandler
000008c2  w      .text	00000000 UART7_IRQHandler
0000105c g     F .text	0000001a RCC_USBFSCLKConfig
000008c2  w      .text	00000000 USART2_IRQHandler
000008c2  w      .text	00000000 UART6_IRQHandler
00000830 g     F .text	00000092 SystemCoreClockUpdate
000008c2  w      .text	00000000 I2C2_ER_IRQHandler
000008c2  w      .text	00000000 DMA1_Channel2_IRQHandler
000062f8 g     F .text	00000006 atoi
000001fc g     F .text	00000024 .hidden __riscv_restore_12
000008c2  w      .text	00000000 TIM8_BRK_IRQHandler
00007168 g     O .text	00000101 _ctype_
00000b2a g     F .text	0000002c DMA_ClearFlag
000008c4  w      .text	00000000 handle_reset
000008c2  w      .text	00000000 CAN1_SCE_IRQHandler
000008c2  w      .text	00000000 FLASH_IRQHandler
000001f0 g     F .text	0000000c .hidden __riscv_save_0
0000051a g     F .text	00000028 engage_cc
00000690 g     F .text	00000090 USART1_IRQHandler
00000dd2 g     F .text	0000001a I2C_AcknowledgeConfig
000008c2  w      .text	00000000 SPI3_IRQHandler
000062fe g     F .text	00000006 __locale_ctype_ptr_l
200002a0 g     O .bss	00000004 __malloc_sbrk_start
00000e0a g     F .text	00000016 I2C_CheckEvent
00001020 g     F .text	0000001e RCC_APB2PeriphResetCmd
00000db8 g     F .text	0000001a I2C_GenerateSTOP
000008c2  w      .text	00000000 I2C1_ER_IRQHandler
20000364 g     O .bss	00000040 USBFS_EP3_Buf
00000e5e g     F .text	00000006 NVIC_PriorityGroupConfig
0000095c g     F .text	0000016c DMA_DeInit
2000029c g     O .bss	00000004 __malloc_free_list
00000214 g     F .text	0000000c .hidden __riscv_restore_1
000052d2 g     F .text	0000073e .hidden __subdf3
00000c3e g     F .text	0000000a GPIO_ReadInputDataBit
00001178 g     F .text	00000012 USART_DMACmd
20000038 g     O .data	0000016c __global_locale
200016a8 g     O .bss	00000406 ring_buffer
00006326 g     F .text	0000000a free
000008c2  w      .text	00000000 DMA2_Channel3_IRQHandler



Disassembly of section .init:

00000000 <_sinit>:
   0:	0c50006f          	j	8c4 <handle_reset>

Disassembly of section .vector:

00000004 <_vector_base>:
	...
   c:	03e2                	slli	t2,t2,0x18
   e:	0000                	unimp
  10:	03e4                	addi	s1,sp,460
  12:	0000                	unimp
  14:	0000                	unimp
  16:	0000                	unimp
  18:	08c2                	slli	a7,a7,0x10
	...
  22:	0000                	unimp
  24:	08c2                	slli	a7,a7,0x10
  26:	0000                	unimp
  28:	08c2                	slli	a7,a7,0x10
	...
  32:	0000                	unimp
  34:	08c2                	slli	a7,a7,0x10
  36:	0000                	unimp
  38:	0000                	unimp
  3a:	0000                	unimp
  3c:	08c2                	slli	a7,a7,0x10
  3e:	0000                	unimp
  40:	0000                	unimp
  42:	0000                	unimp
  44:	08c2                	slli	a7,a7,0x10
  46:	0000                	unimp
  48:	08c2                	slli	a7,a7,0x10
  4a:	0000                	unimp
  4c:	08c2                	slli	a7,a7,0x10
  4e:	0000                	unimp
  50:	08c2                	slli	a7,a7,0x10
  52:	0000                	unimp
  54:	08c2                	slli	a7,a7,0x10
  56:	0000                	unimp
  58:	08c2                	slli	a7,a7,0x10
  5a:	0000                	unimp
  5c:	08c2                	slli	a7,a7,0x10
  5e:	0000                	unimp
  60:	08c2                	slli	a7,a7,0x10
  62:	0000                	unimp
  64:	08c2                	slli	a7,a7,0x10
  66:	0000                	unimp
  68:	08c2                	slli	a7,a7,0x10
  6a:	0000                	unimp
  6c:	03f4                	addi	a3,sp,460
  6e:	0000                	unimp
  70:	08c2                	slli	a7,a7,0x10
  72:	0000                	unimp
  74:	08c2                	slli	a7,a7,0x10
  76:	0000                	unimp
  78:	08c2                	slli	a7,a7,0x10
  7a:	0000                	unimp
  7c:	08c2                	slli	a7,a7,0x10
  7e:	0000                	unimp
  80:	0720                	addi	s0,sp,904
  82:	0000                	unimp
  84:	08c2                	slli	a7,a7,0x10
  86:	0000                	unimp
  88:	08c2                	slli	a7,a7,0x10
  8a:	0000                	unimp
  8c:	08c2                	slli	a7,a7,0x10
  8e:	0000                	unimp
  90:	08c2                	slli	a7,a7,0x10
  92:	0000                	unimp
  94:	08c2                	slli	a7,a7,0x10
  96:	0000                	unimp
  98:	08c2                	slli	a7,a7,0x10
  9a:	0000                	unimp
  9c:	08c2                	slli	a7,a7,0x10
  9e:	0000                	unimp
  a0:	08c2                	slli	a7,a7,0x10
  a2:	0000                	unimp
  a4:	08c2                	slli	a7,a7,0x10
  a6:	0000                	unimp
  a8:	08c2                	slli	a7,a7,0x10
  aa:	0000                	unimp
  ac:	08c2                	slli	a7,a7,0x10
  ae:	0000                	unimp
  b0:	08c2                	slli	a7,a7,0x10
  b2:	0000                	unimp
  b4:	08c2                	slli	a7,a7,0x10
  b6:	0000                	unimp
  b8:	04a4                	addi	s1,sp,584
  ba:	0000                	unimp
  bc:	08c2                	slli	a7,a7,0x10
  be:	0000                	unimp
  c0:	08c2                	slli	a7,a7,0x10
  c2:	0000                	unimp
  c4:	08c2                	slli	a7,a7,0x10
  c6:	0000                	unimp
  c8:	08c2                	slli	a7,a7,0x10
  ca:	0000                	unimp
  cc:	08c2                	slli	a7,a7,0x10
  ce:	0000                	unimp
  d0:	08c2                	slli	a7,a7,0x10
  d2:	0000                	unimp
  d4:	08c2                	slli	a7,a7,0x10
  d6:	0000                	unimp
  d8:	0690                	addi	a2,sp,832
  da:	0000                	unimp
  dc:	08c2                	slli	a7,a7,0x10
  de:	0000                	unimp
  e0:	08c2                	slli	a7,a7,0x10
  e2:	0000                	unimp
  e4:	08c2                	slli	a7,a7,0x10
  e6:	0000                	unimp
  e8:	08c2                	slli	a7,a7,0x10
  ea:	0000                	unimp
  ec:	0000                	unimp
  ee:	0000                	unimp
  f0:	08c2                	slli	a7,a7,0x10
  f2:	0000                	unimp
  f4:	08c2                	slli	a7,a7,0x10
  f6:	0000                	unimp
  f8:	08c2                	slli	a7,a7,0x10
  fa:	0000                	unimp
  fc:	08c2                	slli	a7,a7,0x10
  fe:	0000                	unimp
 100:	08c2                	slli	a7,a7,0x10
 102:	0000                	unimp
 104:	0000                	unimp
 106:	0000                	unimp
 108:	08c2                	slli	a7,a7,0x10
 10a:	0000                	unimp
 10c:	08c2                	slli	a7,a7,0x10
 10e:	0000                	unimp
 110:	08c2                	slli	a7,a7,0x10
 112:	0000                	unimp
 114:	08c2                	slli	a7,a7,0x10
 116:	0000                	unimp
 118:	08c2                	slli	a7,a7,0x10
 11a:	0000                	unimp
 11c:	08c2                	slli	a7,a7,0x10
 11e:	0000                	unimp
 120:	08c2                	slli	a7,a7,0x10
 122:	0000                	unimp
 124:	08c2                	slli	a7,a7,0x10
 126:	0000                	unimp
 128:	08c2                	slli	a7,a7,0x10
 12a:	0000                	unimp
 12c:	08c2                	slli	a7,a7,0x10
 12e:	0000                	unimp
 130:	08c2                	slli	a7,a7,0x10
 132:	0000                	unimp
 134:	08c2                	slli	a7,a7,0x10
	...
 14e:	0000                	unimp
 150:	192a                	slli	s2,s2,0x2a
	...
 15e:	0000                	unimp
 160:	08c2                	slli	a7,a7,0x10
 162:	0000                	unimp
 164:	08c2                	slli	a7,a7,0x10
 166:	0000                	unimp
 168:	08c2                	slli	a7,a7,0x10
 16a:	0000                	unimp
 16c:	08c2                	slli	a7,a7,0x10
 16e:	0000                	unimp
 170:	08c2                	slli	a7,a7,0x10
 172:	0000                	unimp
 174:	08c2                	slli	a7,a7,0x10
 176:	0000                	unimp
 178:	08c2                	slli	a7,a7,0x10
 17a:	0000                	unimp
 17c:	08c2                	slli	a7,a7,0x10
 17e:	0000                	unimp
 180:	08c2                	slli	a7,a7,0x10
 182:	0000                	unimp
 184:	08c2                	slli	a7,a7,0x10
 186:	0000                	unimp
 188:	08c2                	slli	a7,a7,0x10
 18a:	0000                	unimp
 18c:	08c2                	slli	a7,a7,0x10
 18e:	0000                	unimp
 190:	08c2                	slli	a7,a7,0x10
 192:	0000                	unimp
 194:	08c2                	slli	a7,a7,0x10
 196:	0000                	unimp
 198:	08c2                	slli	a7,a7,0x10
 19a:	0000                	unimp
 19c:	08c2                	slli	a7,a7,0x10
 19e:	0000                	unimp
 1a0:	08c2                	slli	a7,a7,0x10
	...

Disassembly of section .text:

000001c0 <__riscv_save_12>:
     1c0:	7139                	addi	sp,sp,-64
     1c2:	4301                	li	t1,0
     1c4:	c66e                	sw	s11,12(sp)
     1c6:	a019                	j	1cc <__riscv_save_10+0x4>

000001c8 <__riscv_save_10>:
     1c8:	7139                	addi	sp,sp,-64
     1ca:	5341                	li	t1,-16
     1cc:	c86a                	sw	s10,16(sp)
     1ce:	ca66                	sw	s9,20(sp)
     1d0:	cc62                	sw	s8,24(sp)
     1d2:	ce5e                	sw	s7,28(sp)
     1d4:	a019                	j	1da <__riscv_save_4+0x4>

000001d6 <__riscv_save_4>:
     1d6:	7139                	addi	sp,sp,-64
     1d8:	5301                	li	t1,-32
     1da:	d05a                	sw	s6,32(sp)
     1dc:	d256                	sw	s5,36(sp)
     1de:	d452                	sw	s4,40(sp)
     1e0:	d64e                	sw	s3,44(sp)
     1e2:	d84a                	sw	s2,48(sp)
     1e4:	da26                	sw	s1,52(sp)
     1e6:	dc22                	sw	s0,56(sp)
     1e8:	de06                	sw	ra,60(sp)
     1ea:	40610133          	sub	sp,sp,t1
     1ee:	8282                	jr	t0

000001f0 <__riscv_save_0>:
     1f0:	1141                	addi	sp,sp,-16
     1f2:	c04a                	sw	s2,0(sp)
     1f4:	c226                	sw	s1,4(sp)
     1f6:	c422                	sw	s0,8(sp)
     1f8:	c606                	sw	ra,12(sp)
     1fa:	8282                	jr	t0

000001fc <__riscv_restore_12>:
     1fc:	4db2                	lw	s11,12(sp)
     1fe:	0141                	addi	sp,sp,16

00000200 <__riscv_restore_10>:
     200:	4d02                	lw	s10,0(sp)
     202:	4c92                	lw	s9,4(sp)
     204:	4c22                	lw	s8,8(sp)
     206:	4bb2                	lw	s7,12(sp)
     208:	0141                	addi	sp,sp,16

0000020a <__riscv_restore_4>:
     20a:	4b02                	lw	s6,0(sp)
     20c:	4a92                	lw	s5,4(sp)
     20e:	4a22                	lw	s4,8(sp)
     210:	49b2                	lw	s3,12(sp)
     212:	0141                	addi	sp,sp,16

00000214 <__riscv_restore_0>:
     214:	4902                	lw	s2,0(sp)
     216:	4492                	lw	s1,4(sp)
     218:	4422                	lw	s0,8(sp)
     21a:	40b2                	lw	ra,12(sp)
     21c:	0141                	addi	sp,sp,16
     21e:	8082                	ret

00000220 <memset>:
     220:	433d                	li	t1,15
     222:	872a                	mv	a4,a0
     224:	02c37363          	bgeu	t1,a2,24a <memset+0x2a>
     228:	00f77793          	andi	a5,a4,15
     22c:	efbd                	bnez	a5,2aa <memset+0x8a>
     22e:	e5ad                	bnez	a1,298 <memset+0x78>
     230:	ff067693          	andi	a3,a2,-16
     234:	8a3d                	andi	a2,a2,15
     236:	96ba                	add	a3,a3,a4
     238:	c30c                	sw	a1,0(a4)
     23a:	c34c                	sw	a1,4(a4)
     23c:	c70c                	sw	a1,8(a4)
     23e:	c74c                	sw	a1,12(a4)
     240:	0741                	addi	a4,a4,16
     242:	fed76be3          	bltu	a4,a3,238 <memset+0x18>
     246:	e211                	bnez	a2,24a <memset+0x2a>
     248:	8082                	ret
     24a:	40c306b3          	sub	a3,t1,a2
     24e:	068a                	slli	a3,a3,0x2
     250:	00000297          	auipc	t0,0x0
     254:	9696                	add	a3,a3,t0
     256:	00a68067          	jr	10(a3)
     25a:	00b70723          	sb	a1,14(a4)
     25e:	00b706a3          	sb	a1,13(a4)
     262:	00b70623          	sb	a1,12(a4)
     266:	00b705a3          	sb	a1,11(a4)
     26a:	00b70523          	sb	a1,10(a4)
     26e:	00b704a3          	sb	a1,9(a4)
     272:	00b70423          	sb	a1,8(a4)
     276:	00b703a3          	sb	a1,7(a4)
     27a:	00b70323          	sb	a1,6(a4)
     27e:	00b702a3          	sb	a1,5(a4)
     282:	00b70223          	sb	a1,4(a4)
     286:	00b701a3          	sb	a1,3(a4)
     28a:	00b70123          	sb	a1,2(a4)
     28e:	00b700a3          	sb	a1,1(a4)
     292:	00b70023          	sb	a1,0(a4)
     296:	8082                	ret
     298:	0ff5f593          	andi	a1,a1,255
     29c:	00859693          	slli	a3,a1,0x8
     2a0:	8dd5                	or	a1,a1,a3
     2a2:	01059693          	slli	a3,a1,0x10
     2a6:	8dd5                	or	a1,a1,a3
     2a8:	b761                	j	230 <memset+0x10>
     2aa:	00279693          	slli	a3,a5,0x2
     2ae:	00000297          	auipc	t0,0x0
     2b2:	9696                	add	a3,a3,t0
     2b4:	8286                	mv	t0,ra
     2b6:	fa8680e7          	jalr	-88(a3)
     2ba:	8096                	mv	ra,t0
     2bc:	17c1                	addi	a5,a5,-16
     2be:	8f1d                	sub	a4,a4,a5
     2c0:	963e                	add	a2,a2,a5
     2c2:	f8c374e3          	bgeu	t1,a2,24a <memset+0x2a>
     2c6:	b7a5                	j	22e <memset+0xe>

000002c8 <strcmp>:
     2c8:	00b56733          	or	a4,a0,a1
     2cc:	53fd                	li	t2,-1
     2ce:	8b0d                	andi	a4,a4,3
     2d0:	e779                	bnez	a4,39e <strcmp+0xd6>
     2d2:	7f7f87b7          	lui	a5,0x7f7f8
     2d6:	f7f78793          	addi	a5,a5,-129 # 7f7f7f7f <_eusrstack+0x5f7eff7f>
     2da:	4110                	lw	a2,0(a0)
     2dc:	4194                	lw	a3,0(a1)
     2de:	00f672b3          	and	t0,a2,a5
     2e2:	00f66333          	or	t1,a2,a5
     2e6:	92be                	add	t0,t0,a5
     2e8:	0062e2b3          	or	t0,t0,t1
     2ec:	0c729563          	bne	t0,t2,3b6 <strcmp+0xee>
     2f0:	06d61863          	bne	a2,a3,360 <strcmp+0x98>
     2f4:	4150                	lw	a2,4(a0)
     2f6:	41d4                	lw	a3,4(a1)
     2f8:	00f672b3          	and	t0,a2,a5
     2fc:	00f66333          	or	t1,a2,a5
     300:	92be                	add	t0,t0,a5
     302:	0062e2b3          	or	t0,t0,t1
     306:	0a729663          	bne	t0,t2,3b2 <strcmp+0xea>
     30a:	04d61b63          	bne	a2,a3,360 <strcmp+0x98>
     30e:	4510                	lw	a2,8(a0)
     310:	4594                	lw	a3,8(a1)
     312:	00f672b3          	and	t0,a2,a5
     316:	00f66333          	or	t1,a2,a5
     31a:	92be                	add	t0,t0,a5
     31c:	0062e2b3          	or	t0,t0,t1
     320:	08729f63          	bne	t0,t2,3be <strcmp+0xf6>
     324:	02d61e63          	bne	a2,a3,360 <strcmp+0x98>
     328:	4550                	lw	a2,12(a0)
     32a:	45d4                	lw	a3,12(a1)
     32c:	00f672b3          	and	t0,a2,a5
     330:	00f66333          	or	t1,a2,a5
     334:	92be                	add	t0,t0,a5
     336:	0062e2b3          	or	t0,t0,t1
     33a:	08729863          	bne	t0,t2,3ca <strcmp+0x102>
     33e:	02d61163          	bne	a2,a3,360 <strcmp+0x98>
     342:	4910                	lw	a2,16(a0)
     344:	4994                	lw	a3,16(a1)
     346:	00f672b3          	and	t0,a2,a5
     34a:	00f66333          	or	t1,a2,a5
     34e:	92be                	add	t0,t0,a5
     350:	0062e2b3          	or	t0,t0,t1
     354:	08729163          	bne	t0,t2,3d6 <strcmp+0x10e>
     358:	0551                	addi	a0,a0,20
     35a:	05d1                	addi	a1,a1,20
     35c:	f6d60fe3          	beq	a2,a3,2da <strcmp+0x12>
     360:	01061713          	slli	a4,a2,0x10
     364:	01069793          	slli	a5,a3,0x10
     368:	00f71c63          	bne	a4,a5,380 <strcmp+0xb8>
     36c:	01065713          	srli	a4,a2,0x10
     370:	0106d793          	srli	a5,a3,0x10
     374:	40f70533          	sub	a0,a4,a5
     378:	0ff57593          	andi	a1,a0,255
     37c:	e991                	bnez	a1,390 <strcmp+0xc8>
     37e:	8082                	ret
     380:	8341                	srli	a4,a4,0x10
     382:	83c1                	srli	a5,a5,0x10
     384:	40f70533          	sub	a0,a4,a5
     388:	0ff57593          	andi	a1,a0,255
     38c:	e191                	bnez	a1,390 <strcmp+0xc8>
     38e:	8082                	ret
     390:	0ff77713          	andi	a4,a4,255
     394:	0ff7f793          	andi	a5,a5,255
     398:	40f70533          	sub	a0,a4,a5
     39c:	8082                	ret
     39e:	2110                	lbu	a2,0(a0)
     3a0:	2194                	lbu	a3,0(a1)
     3a2:	0505                	addi	a0,a0,1
     3a4:	0585                	addi	a1,a1,1
     3a6:	00d61363          	bne	a2,a3,3ac <strcmp+0xe4>
     3aa:	fa75                	bnez	a2,39e <strcmp+0xd6>
     3ac:	40d60533          	sub	a0,a2,a3
     3b0:	8082                	ret
     3b2:	0511                	addi	a0,a0,4
     3b4:	0591                	addi	a1,a1,4
     3b6:	fed614e3          	bne	a2,a3,39e <strcmp+0xd6>
     3ba:	4501                	li	a0,0
     3bc:	8082                	ret
     3be:	0521                	addi	a0,a0,8
     3c0:	05a1                	addi	a1,a1,8
     3c2:	fcd61ee3          	bne	a2,a3,39e <strcmp+0xd6>
     3c6:	4501                	li	a0,0
     3c8:	8082                	ret
     3ca:	0531                	addi	a0,a0,12
     3cc:	05b1                	addi	a1,a1,12
     3ce:	fcd618e3          	bne	a2,a3,39e <strcmp+0xd6>
     3d2:	4501                	li	a0,0
     3d4:	8082                	ret
     3d6:	0541                	addi	a0,a0,16
     3d8:	05c1                	addi	a1,a1,16
     3da:	fcd612e3          	bne	a2,a3,39e <strcmp+0xd6>
     3de:	4501                	li	a0,0
     3e0:	8082                	ret

000003e2 <NMI_Handler>:
     3e2:	a001                	j	3e2 <NMI_Handler>

000003e4 <HardFault_Handler>:
     3e4:	beef07b7          	lui	a5,0xbeef0
     3e8:	e000e737          	lui	a4,0xe000e
     3ec:	08078793          	addi	a5,a5,128 # beef0080 <_eusrstack+0x9eee8080>
     3f0:	c73c                	sw	a5,72(a4)
     3f2:	a001                	j	3f2 <HardFault_Handler+0xe>

000003f4 <EXTI4_IRQHandler>:
     3f4:	7179                	addi	sp,sp,-48
     3f6:	d622                	sw	s0,44(sp)
     3f8:	d24a                	sw	s2,36(sp)
     3fa:	20000937          	lui	s2,0x20000
     3fe:	d426                	sw	s1,40(sp)
     400:	d04e                	sw	s3,32(sp)
     402:	ce52                	sw	s4,28(sp)
     404:	cc56                	sw	s5,24(sp)
     406:	82818793          	addi	a5,gp,-2008 # 20000230 <_edata>
     40a:	00090493          	mv	s1,s2
     40e:	00079023          	sh	zero,0(a5)
     412:	00848a13          	addi	s4,s1,8
     416:	82818413          	addi	s0,gp,-2008 # 20000230 <_edata>
     41a:	00090993          	mv	s3,s2
     41e:	4a85                	li	s5,1
     420:	00e10593          	addi	a1,sp,14
     424:	8526                	mv	a0,s1
     426:	00011723          	sh	zero,14(sp)
     42a:	326020ef          	jal	ra,2750 <ina226_check_alert>
     42e:	ed09                	bnez	a0,448 <EXTI4_IRQHandler+0x54>
     430:	00e11783          	lh	a5,14(sp)
     434:	0007da63          	bgez	a5,448 <EXTI4_IRQHandler+0x54>
     438:	309c                	lbu	a5,1(s1)
     43a:	201a                	lhu	a4,0(s0)
     43c:	00fa97b3          	sll	a5,s5,a5
     440:	8fd9                	or	a5,a5,a4
     442:	07c2                	slli	a5,a5,0x10
     444:	83c1                	srli	a5,a5,0x10
     446:	a01e                	sh	a5,0(s0)
     448:	0489                	addi	s1,s1,2
     44a:	fd449be3          	bne	s1,s4,420 <EXTI4_IRQHandler+0x2c>
     44e:	08800493          	li	s1,136
     452:	8004b073          	csrc	0x800,s1
     456:	0000100f          	fence.i
     45a:	4501                	li	a0,0
     45c:	33b010ef          	jal	ra,1f96 <dac8571_set_output>
     460:	8004a073          	csrs	0x800,s1
     464:	4705                	li	a4,1
     466:	82e18523          	sb	a4,-2006(gp) # 20000232 <fault_triggered>
     46a:	200e                	lhu	a1,0(s0)
     46c:	0069c803          	lbu	a6,6(s3)
     470:	82c1d603          	lhu	a2,-2004(gp) # 20000234 <last_dac_value>
     474:	0029c703          	lbu	a4,2(s3)
     478:	0049c783          	lbu	a5,4(s3)
     47c:	00094683          	lbu	a3,0(s2) # 20000000 <_data_vma>
     480:	00006537          	lui	a0,0x6
     484:	75c50513          	addi	a0,a0,1884 # 675c <__malloc_unlock+0x4>
     488:	444030ef          	jal	ra,38cc <printf>
     48c:	4541                	li	a0,16
     48e:	6d2000ef          	jal	ra,b60 <EXTI_ClearITPendingBit>
     492:	5432                	lw	s0,44(sp)
     494:	54a2                	lw	s1,40(sp)
     496:	5912                	lw	s2,36(sp)
     498:	5982                	lw	s3,32(sp)
     49a:	4a72                	lw	s4,28(sp)
     49c:	4ae2                	lw	s5,24(sp)
     49e:	6145                	addi	sp,sp,48
     4a0:	30200073          	mret

000004a4 <TIM3_IRQHandler>:
     4a4:	1141                	addi	sp,sp,-16
     4a6:	c622                	sw	s0,12(sp)
     4a8:	40000437          	lui	s0,0x40000
     4ac:	4591                	li	a1,4
     4ae:	40040513          	addi	a0,s0,1024 # 40000400 <_eusrstack+0x1fff8400>
     4b2:	c426                	sw	s1,8(sp)
     4b4:	3c7000ef          	jal	ra,107a <TIM_GetITStatus>
     4b8:	c905                	beqz	a0,4e8 <TIM3_IRQHandler+0x44>
     4ba:	40040513          	addi	a0,s0,1024
     4be:	3b9000ef          	jal	ra,1076 <TIM_GetCapture2>
     4c2:	84aa                	mv	s1,a0
     4c4:	4591                	li	a1,4
     4c6:	40040513          	addi	a0,s0,1024
     4ca:	3c9000ef          	jal	ra,1092 <TIM_ClearITPendingBit>
     4ce:	8701a783          	lw	a5,-1936(gp) # 20000278 <tacho_last_capture>
     4d2:	40f487b3          	sub	a5,s1,a5
     4d6:	86f1aa23          	sw	a5,-1932(gp) # 2000027c <tacho_period_ticks>
     4da:	8691a823          	sw	s1,-1936(gp) # 20000278 <tacho_last_capture>
     4de:	4705                	li	a4,1
     4e0:	86e18d23          	sb	a4,-1926(gp) # 20000282 <tacho_valid>
     4e4:	86019c23          	sh	zero,-1928(gp) # 20000280 <tacho_timeout>
     4e8:	4432                	lw	s0,12(sp)
     4ea:	44a2                	lw	s1,8(sp)
     4ec:	0141                	addi	sp,sp,16
     4ee:	30200073          	mret

000004f2 <engage_cv>:
     4f2:	cffff2ef          	jal	t0,1f0 <__riscv_save_0>
     4f6:	4705                	li	a4,1
     4f8:	84e1a423          	sw	a4,-1976(gp) # 20000250 <system_mode>
     4fc:	82a1aa23          	sw	a0,-1996(gp) # 2000023c <cv_target_voltage>
     500:	82019623          	sh	zero,-2004(gp) # 20000234 <last_dac_value>
     504:	4db050ef          	jal	ra,61de <__extendsfdf2>
     508:	862a                	mv	a2,a0
     50a:	00006537          	lui	a0,0x6
     50e:	86ae                	mv	a3,a1
     510:	7b050513          	addi	a0,a0,1968 # 67b0 <__malloc_unlock+0x58>
     514:	3b8030ef          	jal	ra,38cc <printf>
     518:	b9f5                	j	214 <__riscv_restore_0>

0000051a <engage_cc>:
     51a:	cd7ff2ef          	jal	t0,1f0 <__riscv_save_0>
     51e:	4709                	li	a4,2
     520:	84e1a423          	sw	a4,-1976(gp) # 20000250 <system_mode>
     524:	82a1a823          	sw	a0,-2000(gp) # 20000238 <cc_target_current>
     528:	82019623          	sh	zero,-2004(gp) # 20000234 <last_dac_value>
     52c:	4b3050ef          	jal	ra,61de <__extendsfdf2>
     530:	862a                	mv	a2,a0
     532:	00006537          	lui	a0,0x6
     536:	86ae                	mv	a3,a1
     538:	79c50513          	addi	a0,a0,1948 # 679c <__malloc_unlock+0x44>
     53c:	390030ef          	jal	ra,38cc <printf>
     540:	b9d1                	j	214 <__riscv_restore_0>

00000542 <main>:
     542:	c95ff2ef          	jal	t0,1d6 <__riscv_save_4>
     546:	4509                	li	a0,2
     548:	117000ef          	jal	ra,e5e <NVIC_PriorityGroupConfig>
     54c:	24d5                	jal	830 <SystemCoreClockUpdate>
     54e:	293020ef          	jal	ra,2fe0 <Delay_Init>
     552:	6571                	lui	a0,0x1c
     554:	20050513          	addi	a0,a0,512 # 1c200 <_data_lma+0x14f94>
     558:	31f020ef          	jal	ra,3076 <USART_Printf_Init>
     55c:	244020ef          	jal	ra,27a0 <protocol_init>
     560:	378020ef          	jal	ra,28d8 <DMA_INIT>
     564:	00006537          	lui	a0,0x6
     568:	7d050513          	addi	a0,a0,2000 # 67d0 <__malloc_unlock+0x78>
     56c:	3ae030ef          	jal	ra,391a <puts>
     570:	721010ef          	jal	ra,2490 <i2c_util_init>
     574:	00006537          	lui	a0,0x6
     578:	7e050513          	addi	a0,a0,2016 # 67e0 <__malloc_unlock+0x88>
     57c:	200004b7          	lui	s1,0x20000
     580:	39a030ef          	jal	ra,391a <puts>
     584:	00048493          	mv	s1,s1
     588:	4401                	li	s0,0
     58a:	84018913          	addi	s2,gp,-1984 # 20000248 <dev_ok>
     58e:	00007a37          	lui	s4,0x7
     592:	00006ab7          	lui	s5,0x6
     596:	4995                	li	s3,5
     598:	8526                	mv	a0,s1
     59a:	174020ef          	jal	ra,270e <ina226_init>
     59e:	008907b3          	add	a5,s2,s0
     5a2:	00153713          	seqz	a4,a0
     5a6:	a398                	sb	a4,0(a5)
     5a8:	86aa                	mv	a3,a0
     5aa:	2090                	lbu	a2,0(s1)
     5ac:	85a2                	mv	a1,s0
     5ae:	0a051e63          	bnez	a0,66a <main+0x128>
     5b2:	7eca8513          	addi	a0,s5,2028 # 67ec <__malloc_unlock+0x94>
     5b6:	316030ef          	jal	ra,38cc <printf>
     5ba:	0405                	addi	s0,s0,1
     5bc:	0489                	addi	s1,s1,2
     5be:	fd341de3          	bne	s0,s3,598 <main+0x56>
     5c2:	14d010ef          	jal	ra,1f0e <dac8571_init>
     5c6:	4501                	li	a0,0
     5c8:	1cf010ef          	jal	ra,1f96 <dac8571_set_output>
     5cc:	00153713          	seqz	a4,a0
     5d0:	82e18e23          	sb	a4,-1988(gp) # 20000244 <dac_ok>
     5d4:	c145                	beqz	a0,674 <main+0x132>
     5d6:	000065b7          	lui	a1,0x6
     5da:	7c858593          	addi	a1,a1,1992 # 67c8 <__malloc_unlock+0x70>
     5de:	00007537          	lui	a0,0x7
     5e2:	82450513          	addi	a0,a0,-2012 # 6824 <__malloc_unlock+0xcc>
     5e6:	2e6030ef          	jal	ra,38cc <printf>
     5ea:	1d9020ef          	jal	ra,2fc2 <usb_cdc_init>
     5ee:	00007537          	lui	a0,0x7
     5f2:	83450513          	addi	a0,a0,-1996 # 6834 <__malloc_unlock+0xdc>
     5f6:	324030ef          	jal	ra,391a <puts>
     5fa:	200007b7          	lui	a5,0x20000
     5fe:	2087a583          	lw	a1,520(a5) # 20000208 <SystemCoreClock>
     602:	00007537          	lui	a0,0x7
     606:	85c50513          	addi	a0,a0,-1956 # 685c <__malloc_unlock+0x104>
     60a:	2c2030ef          	jal	ra,38cc <printf>
     60e:	2691                	jal	952 <DBGMCU_GetCHIPID>
     610:	85aa                	mv	a1,a0
     612:	00007537          	lui	a0,0x7
     616:	86c50513          	addi	a0,a0,-1940 # 686c <__malloc_unlock+0x114>
     61a:	2b2030ef          	jal	ra,38cc <printf>
     61e:	1f500413          	li	s0,501
     622:	8926                	mv	s2,s1
     624:	8561c783          	lbu	a5,-1962(gp) # 2000025e <USBFS_DevEnumStatus>
     628:	0ff7f793          	andi	a5,a5,255
     62c:	e399                	bnez	a5,632 <main+0xf0>
     62e:	147d                	addi	s0,s0,-1
     630:	e439                	bnez	s0,67e <main+0x13c>
     632:	8561c783          	lbu	a5,-1962(gp) # 2000025e <USBFS_DevEnumStatus>
     636:	0ff7f793          	andi	a5,a5,255
     63a:	c7b1                	beqz	a5,686 <main+0x144>
     63c:	00007537          	lui	a0,0x7
     640:	87c50513          	addi	a0,a0,-1924 # 687c <__malloc_unlock+0x124>
     644:	2d6030ef          	jal	ra,391a <puts>
     648:	40c020ef          	jal	ra,2a54 <protocol_poll>
     64c:	c119                	beqz	a0,652 <main+0x110>
     64e:	55a020ef          	jal	ra,2ba8 <protocol_process_command>
     652:	0c9020ef          	jal	ra,2f1a <cdc_send_telemetry>
     656:	83818713          	addi	a4,gp,-1992 # 20000240 <cycle_count>
     65a:	431c                	lw	a5,0(a4)
     65c:	06400513          	li	a0,100
     660:	0785                	addi	a5,a5,1
     662:	c31c                	sw	a5,0(a4)
     664:	1dd020ef          	jal	ra,3040 <Delay_Ms>
     668:	b7c5                	j	648 <main+0x106>
     66a:	804a0513          	addi	a0,s4,-2044 # 6804 <__malloc_unlock+0xac>
     66e:	25e030ef          	jal	ra,38cc <printf>
     672:	b7a1                	j	5ba <main+0x78>
     674:	000065b7          	lui	a1,0x6
     678:	7c458593          	addi	a1,a1,1988 # 67c4 <__malloc_unlock+0x6c>
     67c:	b78d                	j	5de <main+0x9c>
     67e:	4529                	li	a0,10
     680:	1c1020ef          	jal	ra,3040 <Delay_Ms>
     684:	b745                	j	624 <main+0xe2>
     686:	00007537          	lui	a0,0x7
     68a:	89050513          	addi	a0,a0,-1904 # 6890 <__malloc_unlock+0x138>
     68e:	bf5d                	j	644 <main+0x102>

00000690 <USART1_IRQHandler>:
     690:	1101                	addi	sp,sp,-32
     692:	c84e                	sw	s3,16(sp)
     694:	400149b7          	lui	s3,0x40014
     698:	42400593          	li	a1,1060
     69c:	80098513          	addi	a0,s3,-2048 # 40013800 <_eusrstack+0x2000b800>
     6a0:	ce22                	sw	s0,28(sp)
     6a2:	cc26                	sw	s1,24(sp)
     6a4:	ca4a                	sw	s2,20(sp)
     6a6:	c652                	sw	s4,12(sp)
     6a8:	2fd000ef          	jal	ra,11a4 <USART_GetITStatus>
     6ac:	c135                	beqz	a0,710 <USART1_IRQHandler+0x80>
     6ae:	40020937          	lui	s2,0x40020
     6b2:	05c92a03          	lw	s4,92(s2) # 4002005c <_eusrstack+0x2001805c>
     6b6:	99c1c403          	lbu	s0,-1636(gp) # 200003a4 <USART_DMA_CTRL>
     6ba:	05890913          	addi	s2,s2,88
     6be:	4581                	li	a1,0
     6c0:	0ff47413          	andi	s0,s0,255
     6c4:	00143793          	seqz	a5,s0
     6c8:	854a                	mv	a0,s2
     6ca:	98f18e23          	sb	a5,-1636(gp) # 200003a4 <USART_DMA_CTRL>
     6ce:	290d                	jal	b00 <DMA_Cmd>
     6d0:	08000593          	li	a1,128
     6d4:	854a                	mv	a0,s2
     6d6:	2981                	jal	b26 <DMA_SetCurrDataCounter>
     6d8:	99c1c783          	lbu	a5,-1636(gp) # 200003a4 <USART_DMA_CTRL>
     6dc:	99c18493          	addi	s1,gp,-1636 # 200003a4 <USART_DMA_CTRL>
     6e0:	4585                	li	a1,1
     6e2:	079e                	slli	a5,a5,0x7
     6e4:	0785                	addi	a5,a5,1
     6e6:	97a6                	add	a5,a5,s1
     6e8:	00f92623          	sw	a5,12(s2)
     6ec:	854a                	mv	a0,s2
     6ee:	2909                	jal	b00 <DMA_Cmd>
     6f0:	80098513          	addi	a0,s3,-2048
     6f4:	29f000ef          	jal	ra,1192 <USART_ReceiveData>
     6f8:	08000593          	li	a1,128
     6fc:	414585b3          	sub	a1,a1,s4
     700:	00741513          	slli	a0,s0,0x7
     704:	0505                	addi	a0,a0,1
     706:	05c2                	slli	a1,a1,0x10
     708:	81c1                	srli	a1,a1,0x10
     70a:	9526                	add	a0,a0,s1
     70c:	266020ef          	jal	ra,2972 <ring_buffer_push_huge>
     710:	4472                	lw	s0,28(sp)
     712:	44e2                	lw	s1,24(sp)
     714:	4952                	lw	s2,20(sp)
     716:	49c2                	lw	s3,16(sp)
     718:	4a32                	lw	s4,12(sp)
     71a:	6105                	addi	sp,sp,32
     71c:	30200073          	mret

00000720 <DMA1_Channel5_IRQHandler>:
     720:	1141                	addi	sp,sp,-16
     722:	c426                	sw	s1,8(sp)
     724:	c622                	sw	s0,12(sp)
     726:	99c1c403          	lbu	s0,-1636(gp) # 200003a4 <USART_DMA_CTRL>
     72a:	c24a                	sw	s2,4(sp)
     72c:	40020937          	lui	s2,0x40020
     730:	0ff47413          	andi	s0,s0,255
     734:	00143793          	seqz	a5,s0
     738:	05890513          	addi	a0,s2,88 # 40020058 <_eusrstack+0x20018058>
     73c:	4581                	li	a1,0
     73e:	98f18e23          	sb	a5,-1636(gp) # 200003a4 <USART_DMA_CTRL>
     742:	2e7d                	jal	b00 <DMA_Cmd>
     744:	05890513          	addi	a0,s2,88
     748:	08000593          	li	a1,128
     74c:	2ee9                	jal	b26 <DMA_SetCurrDataCounter>
     74e:	99c1c783          	lbu	a5,-1636(gp) # 200003a4 <USART_DMA_CTRL>
     752:	99c18493          	addi	s1,gp,-1636 # 200003a4 <USART_DMA_CTRL>
     756:	05890513          	addi	a0,s2,88
     75a:	079e                	slli	a5,a5,0x7
     75c:	0785                	addi	a5,a5,1
     75e:	97a6                	add	a5,a5,s1
     760:	c55c                	sw	a5,12(a0)
     762:	4585                	li	a1,1
     764:	2e71                	jal	b00 <DMA_Cmd>
     766:	00741513          	slli	a0,s0,0x7
     76a:	0505                	addi	a0,a0,1
     76c:	9526                	add	a0,a0,s1
     76e:	08000593          	li	a1,128
     772:	200020ef          	jal	ra,2972 <ring_buffer_push_huge>
     776:	00020537          	lui	a0,0x20
     77a:	2ef1                	jal	b56 <DMA_ClearITPendingBit>
     77c:	4432                	lw	s0,12(sp)
     77e:	44a2                	lw	s1,8(sp)
     780:	4912                	lw	s2,4(sp)
     782:	0141                	addi	sp,sp,16
     784:	30200073          	mret

00000788 <SystemInit>:
     788:	400217b7          	lui	a5,0x40021
     78c:	4398                	lw	a4,0(a5)
     78e:	f0ff06b7          	lui	a3,0xf0ff0
     792:	00176713          	ori	a4,a4,1
     796:	c398                	sw	a4,0(a5)
     798:	43d8                	lw	a4,4(a5)
     79a:	8f75                	and	a4,a4,a3
     79c:	c3d8                	sw	a4,4(a5)
     79e:	4398                	lw	a4,0(a5)
     7a0:	fef706b7          	lui	a3,0xfef70
     7a4:	16fd                	addi	a3,a3,-1
     7a6:	8f75                	and	a4,a4,a3
     7a8:	c398                	sw	a4,0(a5)
     7aa:	4398                	lw	a4,0(a5)
     7ac:	fffc06b7          	lui	a3,0xfffc0
     7b0:	16fd                	addi	a3,a3,-1
     7b2:	8f75                	and	a4,a4,a3
     7b4:	c398                	sw	a4,0(a5)
     7b6:	43d8                	lw	a4,4(a5)
     7b8:	ff0106b7          	lui	a3,0xff010
     7bc:	16fd                	addi	a3,a3,-1
     7be:	8f75                	and	a4,a4,a3
     7c0:	c3d8                	sw	a4,4(a5)
     7c2:	009f0737          	lui	a4,0x9f0
     7c6:	c798                	sw	a4,8(a5)
     7c8:	400246b7          	lui	a3,0x40024
     7cc:	8006a703          	lw	a4,-2048(a3) # 40023800 <_eusrstack+0x2001b800>
     7d0:	01076713          	ori	a4,a4,16
     7d4:	80e6a023          	sw	a4,-2048(a3)
     7d8:	43d8                	lw	a4,4(a5)
     7da:	ffc106b7          	lui	a3,0xffc10
     7de:	16fd                	addi	a3,a3,-1
     7e0:	c3d8                	sw	a4,4(a5)
     7e2:	43d8                	lw	a4,4(a5)
     7e4:	c3d8                	sw	a4,4(a5)
     7e6:	43d8                	lw	a4,4(a5)
     7e8:	40076713          	ori	a4,a4,1024
     7ec:	c3d8                	sw	a4,4(a5)
     7ee:	43d8                	lw	a4,4(a5)
     7f0:	8f75                	and	a4,a4,a3
     7f2:	c3d8                	sw	a4,4(a5)
     7f4:	43d8                	lw	a4,4(a5)
     7f6:	002806b7          	lui	a3,0x280
     7fa:	8f55                	or	a4,a4,a3
     7fc:	c3d8                	sw	a4,4(a5)
     7fe:	4398                	lw	a4,0(a5)
     800:	010006b7          	lui	a3,0x1000
     804:	8f55                	or	a4,a4,a3
     806:	c398                	sw	a4,0(a5)
     808:	4398                	lw	a4,0(a5)
     80a:	00671693          	slli	a3,a4,0x6
     80e:	fe06dde3          	bgez	a3,808 <__stack_size+0x8>
     812:	43d8                	lw	a4,4(a5)
     814:	400216b7          	lui	a3,0x40021
     818:	9b71                	andi	a4,a4,-4
     81a:	c3d8                	sw	a4,4(a5)
     81c:	43d8                	lw	a4,4(a5)
     81e:	00276713          	ori	a4,a4,2
     822:	c3d8                	sw	a4,4(a5)
     824:	4721                	li	a4,8
     826:	42dc                	lw	a5,4(a3)
     828:	8bb1                	andi	a5,a5,12
     82a:	fee79ee3          	bne	a5,a4,826 <__stack_size+0x26>
     82e:	8082                	ret

00000830 <SystemCoreClockUpdate>:
     830:	400216b7          	lui	a3,0x40021
     834:	42dc                	lw	a5,4(a3)
     836:	20000737          	lui	a4,0x20000
     83a:	4611                	li	a2,4
     83c:	8bb1                	andi	a5,a5,12
     83e:	20870713          	addi	a4,a4,520 # 20000208 <SystemCoreClock>
     842:	00c78563          	beq	a5,a2,84c <SystemCoreClockUpdate+0x1c>
     846:	4621                	li	a2,8
     848:	02c78863          	beq	a5,a2,878 <SystemCoreClockUpdate+0x48>
     84c:	007a17b7          	lui	a5,0x7a1
     850:	20078793          	addi	a5,a5,512 # 7a1200 <_data_lma+0x799f94>
     854:	c31c                	sw	a5,0(a4)
     856:	400217b7          	lui	a5,0x40021
     85a:	43dc                	lw	a5,4(a5)
     85c:	8391                	srli	a5,a5,0x4
     85e:	00f7f693          	andi	a3,a5,15
     862:	200007b7          	lui	a5,0x20000
     866:	00c78793          	addi	a5,a5,12 # 2000000c <AHBPrescTable>
     86a:	97b6                	add	a5,a5,a3
     86c:	2394                	lbu	a3,0(a5)
     86e:	431c                	lw	a5,0(a4)
     870:	00d7d7b3          	srl	a5,a5,a3
     874:	c31c                	sw	a5,0(a4)
     876:	8082                	ret
     878:	42dc                	lw	a5,4(a3)
     87a:	42d4                	lw	a3,4(a3)
     87c:	6641                	lui	a2,0x10
     87e:	83c9                	srli	a5,a5,0x12
     880:	8bbd                	andi	a5,a5,15
     882:	8ef1                	and	a3,a3,a2
     884:	0789                	addi	a5,a5,2
     886:	4645                	li	a2,17
     888:	00c79363          	bne	a5,a2,88e <SystemCoreClockUpdate+0x5e>
     88c:	47c9                	li	a5,18
     88e:	ee81                	bnez	a3,8a6 <SystemCoreClockUpdate+0x76>
     890:	400246b7          	lui	a3,0x40024
     894:	8006a683          	lw	a3,-2048(a3) # 40023800 <_eusrstack+0x2001b800>
     898:	8ac1                	andi	a3,a3,16
     89a:	ce89                	beqz	a3,8b4 <SystemCoreClockUpdate+0x84>
     89c:	007a16b7          	lui	a3,0x7a1
     8a0:	20068693          	addi	a3,a3,512 # 7a1200 <_data_lma+0x799f94>
     8a4:	a821                	j	8bc <SystemCoreClockUpdate+0x8c>
     8a6:	400216b7          	lui	a3,0x40021
     8aa:	42d4                	lw	a3,4(a3)
     8ac:	00e69613          	slli	a2,a3,0xe
     8b0:	fe0656e3          	bgez	a2,89c <SystemCoreClockUpdate+0x6c>
     8b4:	003d16b7          	lui	a3,0x3d1
     8b8:	90068693          	addi	a3,a3,-1792 # 3d0900 <_data_lma+0x3c9694>
     8bc:	02d787b3          	mul	a5,a5,a3
     8c0:	bf51                	j	854 <SystemCoreClockUpdate+0x24>

000008c2 <ADC1_2_IRQHandler>:
     8c2:	a001                	j	8c2 <ADC1_2_IRQHandler>

000008c4 <handle_reset>:
     8c4:	20000197          	auipc	gp,0x20000
     8c8:	14418193          	addi	gp,gp,324 # 20000a08 <__global_pointer$>
     8cc:	20007117          	auipc	sp,0x20007
     8d0:	73410113          	addi	sp,sp,1844 # 20008000 <_eusrstack>
     8d4:	00007517          	auipc	a0,0x7
     8d8:	99850513          	addi	a0,a0,-1640 # 726c <_data_lma>
     8dc:	1ffff597          	auipc	a1,0x1ffff
     8e0:	72458593          	addi	a1,a1,1828 # 20000000 <_data_vma>
     8e4:	82818613          	addi	a2,gp,-2008 # 20000230 <_edata>
     8e8:	00c5fa63          	bgeu	a1,a2,8fc <handle_reset+0x38>
     8ec:	00052283          	lw	t0,0(a0)
     8f0:	0055a023          	sw	t0,0(a1)
     8f4:	0511                	addi	a0,a0,4
     8f6:	0591                	addi	a1,a1,4
     8f8:	fec5eae3          	bltu	a1,a2,8ec <handle_reset+0x28>
     8fc:	82818513          	addi	a0,gp,-2008 # 20000230 <_edata>
     900:	20001597          	auipc	a1,0x20001
     904:	1b458593          	addi	a1,a1,436 # 20001ab4 <_ebss>
     908:	00b57763          	bgeu	a0,a1,916 <handle_reset+0x52>
     90c:	00052023          	sw	zero,0(a0)
     910:	0511                	addi	a0,a0,4
     912:	feb56de3          	bltu	a0,a1,90c <handle_reset+0x48>
     916:	42fd                	li	t0,31
     918:	bc029073          	csrw	0xbc0,t0
     91c:	42ad                	li	t0,11
     91e:	80429073          	csrw	0x804,t0
     922:	000062b7          	lui	t0,0x6
     926:	08828293          	addi	t0,t0,136 # 6088 <__gesf2+0x82>
     92a:	30029073          	csrw	mstatus,t0
     92e:	fffff297          	auipc	t0,0xfffff
     932:	6d628293          	addi	t0,t0,1750 # 4 <_einit>
     936:	0032e293          	ori	t0,t0,3
     93a:	30529073          	csrw	mtvec,t0
     93e:	e4bff0ef          	jal	ra,788 <SystemInit>
     942:	00000297          	auipc	t0,0x0
     946:	c0028293          	addi	t0,t0,-1024 # 542 <main>
     94a:	34129073          	csrw	mepc,t0
     94e:	30200073          	mret

00000952 <DBGMCU_GetCHIPID>:
     952:	1ffff7b7          	lui	a5,0x1ffff
     956:	7047a503          	lw	a0,1796(a5) # 1ffff704 <_data_lma+0x1fff8498>
     95a:	8082                	ret

0000095c <DMA_DeInit>:
     95c:	411c                	lw	a5,0(a0)
     95e:	6741                	lui	a4,0x10
     960:	1779                	addi	a4,a4,-2
     962:	8ff9                	and	a5,a5,a4
     964:	c11c                	sw	a5,0(a0)
     966:	00052023          	sw	zero,0(a0)
     96a:	00052223          	sw	zero,4(a0)
     96e:	00052423          	sw	zero,8(a0)
     972:	400207b7          	lui	a5,0x40020
     976:	00052623          	sw	zero,12(a0)
     97a:	00878713          	addi	a4,a5,8 # 40020008 <_eusrstack+0x20018008>
     97e:	00e51763          	bne	a0,a4,98c <DMA_DeInit+0x30>
     982:	43d8                	lw	a4,4(a5)
     984:	00f76713          	ori	a4,a4,15
     988:	c3d8                	sw	a4,4(a5)
     98a:	8082                	ret
     98c:	01c78713          	addi	a4,a5,28
     990:	00e51663          	bne	a0,a4,99c <DMA_DeInit+0x40>
     994:	43d8                	lw	a4,4(a5)
     996:	0f076713          	ori	a4,a4,240
     99a:	b7fd                	j	988 <DMA_DeInit+0x2c>
     99c:	03078713          	addi	a4,a5,48
     9a0:	00e51863          	bne	a0,a4,9b0 <DMA_DeInit+0x54>
     9a4:	43d8                	lw	a4,4(a5)
     9a6:	6685                	lui	a3,0x1
     9a8:	f0068693          	addi	a3,a3,-256 # f00 <RCC_GetClocksFreq+0x40>
     9ac:	8f55                	or	a4,a4,a3
     9ae:	bfe9                	j	988 <DMA_DeInit+0x2c>
     9b0:	04478713          	addi	a4,a5,68
     9b4:	00e51563          	bne	a0,a4,9be <DMA_DeInit+0x62>
     9b8:	43d8                	lw	a4,4(a5)
     9ba:	66bd                	lui	a3,0xf
     9bc:	bfc5                	j	9ac <DMA_DeInit+0x50>
     9be:	05878713          	addi	a4,a5,88
     9c2:	00e51663          	bne	a0,a4,9ce <DMA_DeInit+0x72>
     9c6:	43d8                	lw	a4,4(a5)
     9c8:	000f06b7          	lui	a3,0xf0
     9cc:	b7c5                	j	9ac <DMA_DeInit+0x50>
     9ce:	06c78713          	addi	a4,a5,108
     9d2:	00e51663          	bne	a0,a4,9de <DMA_DeInit+0x82>
     9d6:	43d8                	lw	a4,4(a5)
     9d8:	00f006b7          	lui	a3,0xf00
     9dc:	bfc1                	j	9ac <DMA_DeInit+0x50>
     9de:	08078713          	addi	a4,a5,128
     9e2:	00e51663          	bne	a0,a4,9ee <DMA_DeInit+0x92>
     9e6:	43d8                	lw	a4,4(a5)
     9e8:	0f0006b7          	lui	a3,0xf000
     9ec:	b7c1                	j	9ac <DMA_DeInit+0x50>
     9ee:	40878713          	addi	a4,a5,1032
     9f2:	00e51963          	bne	a0,a4,a04 <DMA_DeInit+0xa8>
     9f6:	4047a703          	lw	a4,1028(a5)
     9fa:	00f76713          	ori	a4,a4,15
     9fe:	40e7a223          	sw	a4,1028(a5)
     a02:	8082                	ret
     a04:	41c78713          	addi	a4,a5,1052
     a08:	00e51763          	bne	a0,a4,a16 <DMA_DeInit+0xba>
     a0c:	4047a703          	lw	a4,1028(a5)
     a10:	0f076713          	ori	a4,a4,240
     a14:	b7ed                	j	9fe <DMA_DeInit+0xa2>
     a16:	43078793          	addi	a5,a5,1072
     a1a:	00f51b63          	bne	a0,a5,a30 <DMA_DeInit+0xd4>
     a1e:	400207b7          	lui	a5,0x40020
     a22:	4047a703          	lw	a4,1028(a5) # 40020404 <_eusrstack+0x20018404>
     a26:	6685                	lui	a3,0x1
     a28:	f0068693          	addi	a3,a3,-256 # f00 <RCC_GetClocksFreq+0x40>
     a2c:	8f55                	or	a4,a4,a3
     a2e:	bfc1                	j	9fe <DMA_DeInit+0xa2>
     a30:	400207b7          	lui	a5,0x40020
     a34:	44478713          	addi	a4,a5,1092 # 40020444 <_eusrstack+0x20018444>
     a38:	00e51663          	bne	a0,a4,a44 <DMA_DeInit+0xe8>
     a3c:	4047a703          	lw	a4,1028(a5)
     a40:	66bd                	lui	a3,0xf
     a42:	b7ed                	j	a2c <DMA_DeInit+0xd0>
     a44:	45878713          	addi	a4,a5,1112
     a48:	00e51763          	bne	a0,a4,a56 <DMA_DeInit+0xfa>
     a4c:	4047a703          	lw	a4,1028(a5)
     a50:	000f06b7          	lui	a3,0xf0
     a54:	bfe1                	j	a2c <DMA_DeInit+0xd0>
     a56:	46c78713          	addi	a4,a5,1132
     a5a:	00e51763          	bne	a0,a4,a68 <DMA_DeInit+0x10c>
     a5e:	4047a703          	lw	a4,1028(a5)
     a62:	00f006b7          	lui	a3,0xf00
     a66:	b7d9                	j	a2c <DMA_DeInit+0xd0>
     a68:	48078713          	addi	a4,a5,1152
     a6c:	00e51763          	bne	a0,a4,a7a <DMA_DeInit+0x11e>
     a70:	4047a703          	lw	a4,1028(a5)
     a74:	0f0006b7          	lui	a3,0xf000
     a78:	bf55                	j	a2c <DMA_DeInit+0xd0>
     a7a:	49078713          	addi	a4,a5,1168
     a7e:	00e51963          	bne	a0,a4,a90 <DMA_DeInit+0x134>
     a82:	4d47a703          	lw	a4,1236(a5)
     a86:	00f76713          	ori	a4,a4,15
     a8a:	4ce7aa23          	sw	a4,1236(a5)
     a8e:	8082                	ret
     a90:	4a078713          	addi	a4,a5,1184
     a94:	00e51763          	bne	a0,a4,aa2 <DMA_DeInit+0x146>
     a98:	4d47a703          	lw	a4,1236(a5)
     a9c:	0f076713          	ori	a4,a4,240
     aa0:	b7ed                	j	a8a <DMA_DeInit+0x12e>
     aa2:	4b078713          	addi	a4,a5,1200
     aa6:	00e51963          	bne	a0,a4,ab8 <DMA_DeInit+0x15c>
     aaa:	4d47a703          	lw	a4,1236(a5)
     aae:	6685                	lui	a3,0x1
     ab0:	f0068693          	addi	a3,a3,-256 # f00 <RCC_GetClocksFreq+0x40>
     ab4:	8f55                	or	a4,a4,a3
     ab6:	bfd1                	j	a8a <DMA_DeInit+0x12e>
     ab8:	4c078713          	addi	a4,a5,1216
     abc:	fce519e3          	bne	a0,a4,a8e <DMA_DeInit+0x132>
     ac0:	4d47a703          	lw	a4,1236(a5)
     ac4:	66bd                	lui	a3,0xf
     ac6:	b7fd                	j	ab4 <DMA_DeInit+0x158>

00000ac8 <DMA_Init>:
     ac8:	411c                	lw	a5,0(a0)
     aca:	7761                	lui	a4,0xffff8
     acc:	073d                	addi	a4,a4,15
     ace:	5194                	lw	a3,32(a1)
     ad0:	8f7d                	and	a4,a4,a5
     ad2:	459c                	lw	a5,8(a1)
     ad4:	8fd5                	or	a5,a5,a3
     ad6:	4994                	lw	a3,16(a1)
     ad8:	8fd5                	or	a5,a5,a3
     ada:	49d4                	lw	a3,20(a1)
     adc:	8fd5                	or	a5,a5,a3
     ade:	4d94                	lw	a3,24(a1)
     ae0:	8fd5                	or	a5,a5,a3
     ae2:	4dd4                	lw	a3,28(a1)
     ae4:	8fd5                	or	a5,a5,a3
     ae6:	51d4                	lw	a3,36(a1)
     ae8:	8fd5                	or	a5,a5,a3
     aea:	5594                	lw	a3,40(a1)
     aec:	8fd5                	or	a5,a5,a3
     aee:	8fd9                	or	a5,a5,a4
     af0:	c11c                	sw	a5,0(a0)
     af2:	45dc                	lw	a5,12(a1)
     af4:	c15c                	sw	a5,4(a0)
     af6:	419c                	lw	a5,0(a1)
     af8:	c51c                	sw	a5,8(a0)
     afa:	41dc                	lw	a5,4(a1)
     afc:	c55c                	sw	a5,12(a0)
     afe:	8082                	ret

00000b00 <DMA_Cmd>:
     b00:	411c                	lw	a5,0(a0)
     b02:	c589                	beqz	a1,b0c <DMA_Cmd+0xc>
     b04:	0017e793          	ori	a5,a5,1
     b08:	c11c                	sw	a5,0(a0)
     b0a:	8082                	ret
     b0c:	6741                	lui	a4,0x10
     b0e:	1779                	addi	a4,a4,-2
     b10:	8ff9                	and	a5,a5,a4
     b12:	bfdd                	j	b08 <DMA_Cmd+0x8>

00000b14 <DMA_ITConfig>:
     b14:	411c                	lw	a5,0(a0)
     b16:	c601                	beqz	a2,b1e <DMA_ITConfig+0xa>
     b18:	8ddd                	or	a1,a1,a5
     b1a:	c10c                	sw	a1,0(a0)
     b1c:	8082                	ret
     b1e:	fff5c593          	not	a1,a1
     b22:	8dfd                	and	a1,a1,a5
     b24:	bfdd                	j	b1a <DMA_ITConfig+0x6>

00000b26 <DMA_SetCurrDataCounter>:
     b26:	c14c                	sw	a1,4(a0)
     b28:	8082                	ret

00000b2a <DMA_ClearFlag>:
     b2a:	00351793          	slli	a5,a0,0x3
     b2e:	0007d763          	bgez	a5,b3c <DMA_ClearFlag+0x12>
     b32:	400207b7          	lui	a5,0x40020
     b36:	40a7a223          	sw	a0,1028(a5) # 40020404 <_eusrstack+0x20018404>
     b3a:	8082                	ret
     b3c:	00251793          	slli	a5,a0,0x2
     b40:	0007d763          	bgez	a5,b4e <DMA_ClearFlag+0x24>
     b44:	400207b7          	lui	a5,0x40020
     b48:	4ca7aa23          	sw	a0,1236(a5) # 400204d4 <_eusrstack+0x200184d4>
     b4c:	8082                	ret
     b4e:	400207b7          	lui	a5,0x40020
     b52:	c3c8                	sw	a0,4(a5)
     b54:	8082                	ret

00000b56 <DMA_ClearITPendingBit>:
     b56:	e9aff2ef          	jal	t0,1f0 <__riscv_save_0>
     b5a:	3fc1                	jal	b2a <DMA_ClearFlag>
     b5c:	eb8ff06f          	j	214 <__riscv_restore_0>

00000b60 <EXTI_ClearITPendingBit>:
     b60:	400107b7          	lui	a5,0x40010
     b64:	40a7aa23          	sw	a0,1044(a5) # 40010414 <_eusrstack+0x20008414>
     b68:	8082                	ret

00000b6a <GPIO_AFIODeInit>:
     b6a:	e86ff2ef          	jal	t0,1f0 <__riscv_save_0>
     b6e:	4585                	li	a1,1
     b70:	4505                	li	a0,1
     b72:	217d                	jal	1020 <RCC_APB2PeriphResetCmd>
     b74:	4581                	li	a1,0
     b76:	4505                	li	a0,1
     b78:	2165                	jal	1020 <RCC_APB2PeriphResetCmd>
     b7a:	e9aff06f          	j	214 <__riscv_restore_0>

00000b7e <GPIO_Init>:
     b7e:	459c                	lw	a5,8(a1)
     b80:	0107f713          	andi	a4,a5,16
     b84:	00f7f813          	andi	a6,a5,15
     b88:	c701                	beqz	a4,b90 <GPIO_Init+0x12>
     b8a:	41d8                	lw	a4,4(a1)
     b8c:	00e86833          	or	a6,a6,a4
     b90:	218e                	lhu	a1,0(a1)
     b92:	0ff5f713          	andi	a4,a1,255
     b96:	c339                	beqz	a4,bdc <GPIO_Init+0x5e>
     b98:	4118                	lw	a4,0(a0)
     b9a:	4681                	li	a3,0
     b9c:	4e85                	li	t4,1
     b9e:	4f3d                	li	t5,15
     ba0:	02800f93          	li	t6,40
     ba4:	04800293          	li	t0,72
     ba8:	4e21                	li	t3,8
     baa:	00de9633          	sll	a2,t4,a3
     bae:	00c5f8b3          	and	a7,a1,a2
     bb2:	03161163          	bne	a2,a7,bd4 <GPIO_Init+0x56>
     bb6:	00269893          	slli	a7,a3,0x2
     bba:	011f1333          	sll	t1,t5,a7
     bbe:	fff34313          	not	t1,t1
     bc2:	00e37733          	and	a4,t1,a4
     bc6:	011818b3          	sll	a7,a6,a7
     bca:	00e8e733          	or	a4,a7,a4
     bce:	05f79f63          	bne	a5,t6,c2c <GPIO_Init+0xae>
     bd2:	c950                	sw	a2,20(a0)
     bd4:	0685                	addi	a3,a3,1
     bd6:	fdc69ae3          	bne	a3,t3,baa <GPIO_Init+0x2c>
     bda:	c118                	sw	a4,0(a0)
     bdc:	0ff00713          	li	a4,255
     be0:	04b77563          	bgeu	a4,a1,c2a <GPIO_Init+0xac>
     be4:	4154                	lw	a3,4(a0)
     be6:	4621                	li	a2,8
     be8:	4e85                	li	t4,1
     bea:	4f3d                	li	t5,15
     bec:	02800f93          	li	t6,40
     bf0:	04800293          	li	t0,72
     bf4:	4e41                	li	t3,16
     bf6:	00ce98b3          	sll	a7,t4,a2
     bfa:	0115f733          	and	a4,a1,a7
     bfe:	02e89263          	bne	a7,a4,c22 <GPIO_Init+0xa4>
     c02:	00261713          	slli	a4,a2,0x2
     c06:	1701                	addi	a4,a4,-32
     c08:	00ef1333          	sll	t1,t5,a4
     c0c:	fff34313          	not	t1,t1
     c10:	00d376b3          	and	a3,t1,a3
     c14:	00e81733          	sll	a4,a6,a4
     c18:	8ed9                	or	a3,a3,a4
     c1a:	01f79d63          	bne	a5,t6,c34 <GPIO_Init+0xb6>
     c1e:	01152a23          	sw	a7,20(a0)
     c22:	0605                	addi	a2,a2,1
     c24:	fdc619e3          	bne	a2,t3,bf6 <GPIO_Init+0x78>
     c28:	c154                	sw	a3,4(a0)
     c2a:	8082                	ret
     c2c:	fa5794e3          	bne	a5,t0,bd4 <GPIO_Init+0x56>
     c30:	c910                	sw	a2,16(a0)
     c32:	b74d                	j	bd4 <GPIO_Init+0x56>
     c34:	fe5797e3          	bne	a5,t0,c22 <GPIO_Init+0xa4>
     c38:	01152823          	sw	a7,16(a0)
     c3c:	b7dd                	j	c22 <GPIO_Init+0xa4>

00000c3e <GPIO_ReadInputDataBit>:
     c3e:	4508                	lw	a0,8(a0)
     c40:	8d6d                	and	a0,a0,a1
     c42:	00a03533          	snez	a0,a0
     c46:	8082                	ret

00000c48 <GPIO_SetBits>:
     c48:	c90c                	sw	a1,16(a0)
     c4a:	8082                	ret

00000c4c <GPIO_WriteBit>:
     c4c:	c219                	beqz	a2,c52 <GPIO_WriteBit+0x6>
     c4e:	c90c                	sw	a1,16(a0)
     c50:	8082                	ret
     c52:	c94c                	sw	a1,20(a0)
     c54:	8082                	ret

00000c56 <I2C_DeInit>:
     c56:	d9aff2ef          	jal	t0,1f0 <__riscv_save_0>
     c5a:	400057b7          	lui	a5,0x40005
     c5e:	40078793          	addi	a5,a5,1024 # 40005400 <_eusrstack+0x1fffd400>
     c62:	4585                	li	a1,1
     c64:	00f51b63          	bne	a0,a5,c7a <I2C_DeInit+0x24>
     c68:	00200537          	lui	a0,0x200
     c6c:	2ec9                	jal	103e <RCC_APB1PeriphResetCmd>
     c6e:	4581                	li	a1,0
     c70:	00200537          	lui	a0,0x200
     c74:	26e9                	jal	103e <RCC_APB1PeriphResetCmd>
     c76:	d9eff06f          	j	214 <__riscv_restore_0>
     c7a:	00400537          	lui	a0,0x400
     c7e:	26c1                	jal	103e <RCC_APB1PeriphResetCmd>
     c80:	4581                	li	a1,0
     c82:	00400537          	lui	a0,0x400
     c86:	b7fd                	j	c74 <I2C_DeInit+0x1e>

00000c88 <I2C_Init>:
     c88:	d68ff2ef          	jal	t0,1f0 <__riscv_save_0>
     c8c:	7179                	addi	sp,sp,-48
     c8e:	2146                	lhu	s1,4(a0)
     c90:	842a                	mv	s0,a0
     c92:	0868                	addi	a0,sp,28
     c94:	c62e                	sw	a1,12(sp)
     c96:	242d                	jal	ec0 <RCC_GetClocksFreq>
     c98:	5792                	lw	a5,36(sp)
     c9a:	000f4737          	lui	a4,0xf4
     c9e:	24070713          	addi	a4,a4,576 # f4240 <_data_lma+0xecfd4>
     ca2:	02e7d733          	divu	a4,a5,a4
     ca6:	04c2                	slli	s1,s1,0x10
     ca8:	80c1                	srli	s1,s1,0x10
     caa:	fc04f493          	andi	s1,s1,-64
     cae:	04c2                	slli	s1,s1,0x10
     cb0:	03c00693          	li	a3,60
     cb4:	80c1                	srli	s1,s1,0x10
     cb6:	45b2                	lw	a1,12(sp)
     cb8:	00e6f463          	bgeu	a3,a4,cc0 <I2C_Init+0x38>
     cbc:	03c00713          	li	a4,60
     cc0:	01071613          	slli	a2,a4,0x10
     cc4:	8241                	srli	a2,a2,0x10
     cc6:	8cd1                	or	s1,s1,a2
     cc8:	a046                	sh	s1,4(s0)
     cca:	2016                	lhu	a3,0(s0)
     ccc:	6561                	lui	a0,0x18
     cce:	6a050513          	addi	a0,a0,1696 # 186a0 <_data_lma+0x11434>
     cd2:	06c2                	slli	a3,a3,0x10
     cd4:	82c1                	srli	a3,a3,0x10
     cd6:	9af9                	andi	a3,a3,-2
     cd8:	06c2                	slli	a3,a3,0x10
     cda:	82c1                	srli	a3,a3,0x10
     cdc:	a016                	sh	a3,0(s0)
     cde:	4194                	lw	a3,0(a1)
     ce0:	04d56963          	bltu	a0,a3,d32 <I2C_Init+0xaa>
     ce4:	0686                	slli	a3,a3,0x1
     ce6:	02d7d7b3          	divu	a5,a5,a3
     cea:	4691                	li	a3,4
     cec:	01079713          	slli	a4,a5,0x10
     cf0:	8341                	srli	a4,a4,0x10
     cf2:	87ba                	mv	a5,a4
     cf4:	00d77363          	bgeu	a4,a3,cfa <I2C_Init+0x72>
     cf8:	4791                	li	a5,4
     cfa:	0605                	addi	a2,a2,1
     cfc:	0642                	slli	a2,a2,0x10
     cfe:	07c2                	slli	a5,a5,0x10
     d00:	8241                	srli	a2,a2,0x10
     d02:	83c1                	srli	a5,a5,0x10
     d04:	b012                	sh	a2,32(s0)
     d06:	ac5e                	sh	a5,28(s0)
     d08:	201e                	lhu	a5,0(s0)
     d0a:	21da                	lhu	a4,4(a1)
     d0c:	25b6                	lhu	a3,10(a1)
     d0e:	0017e793          	ori	a5,a5,1
     d12:	a01e                	sh	a5,0(s0)
     d14:	201e                	lhu	a5,0(s0)
     d16:	8f55                	or	a4,a4,a3
     d18:	07c2                	slli	a5,a5,0x10
     d1a:	83c1                	srli	a5,a5,0x10
     d1c:	bf57f793          	andi	a5,a5,-1035
     d20:	8fd9                	or	a5,a5,a4
     d22:	a01e                	sh	a5,0(s0)
     d24:	259a                	lhu	a4,8(a1)
     d26:	25de                	lhu	a5,12(a1)
     d28:	8fd9                	or	a5,a5,a4
     d2a:	a41e                	sh	a5,8(s0)
     d2c:	6145                	addi	sp,sp,48
     d2e:	ce6ff06f          	j	214 <__riscv_restore_0>
     d32:	21ea                	lhu	a0,6(a1)
     d34:	6631                	lui	a2,0xc
     d36:	167d                	addi	a2,a2,-1
     d38:	02c51d63          	bne	a0,a2,d72 <I2C_Init+0xea>
     d3c:	460d                	li	a2,3
     d3e:	02c686b3          	mul	a3,a3,a2
     d42:	02d7d7b3          	divu	a5,a5,a3
     d46:	07c2                	slli	a5,a5,0x10
     d48:	83c1                	srli	a5,a5,0x10
     d4a:	01479693          	slli	a3,a5,0x14
     d4e:	e299                	bnez	a3,d54 <I2C_Init+0xcc>
     d50:	0017e793          	ori	a5,a5,1
     d54:	66a1                	lui	a3,0x8
     d56:	8fd5                	or	a5,a5,a3
     d58:	12c00693          	li	a3,300
     d5c:	02d70733          	mul	a4,a4,a3
     d60:	3e800693          	li	a3,1000
     d64:	02d74733          	div	a4,a4,a3
     d68:	0705                	addi	a4,a4,1
     d6a:	0742                	slli	a4,a4,0x10
     d6c:	8341                	srli	a4,a4,0x10
     d6e:	b01a                	sh	a4,32(s0)
     d70:	bf59                	j	d06 <I2C_Init+0x7e>
     d72:	4665                	li	a2,25
     d74:	02c686b3          	mul	a3,a3,a2
     d78:	02d7d7b3          	divu	a5,a5,a3
     d7c:	6691                	lui	a3,0x4
     d7e:	07c2                	slli	a5,a5,0x10
     d80:	83c1                	srli	a5,a5,0x10
     d82:	8fd5                	or	a5,a5,a3
     d84:	b7d9                	j	d4a <I2C_Init+0xc2>

00000d86 <I2C_Cmd>:
     d86:	211e                	lhu	a5,0(a0)
     d88:	c589                	beqz	a1,d92 <I2C_Cmd+0xc>
     d8a:	0017e793          	ori	a5,a5,1
     d8e:	a11e                	sh	a5,0(a0)
     d90:	8082                	ret
     d92:	07c2                	slli	a5,a5,0x10
     d94:	83c1                	srli	a5,a5,0x10
     d96:	9bf9                	andi	a5,a5,-2
     d98:	07c2                	slli	a5,a5,0x10
     d9a:	83c1                	srli	a5,a5,0x10
     d9c:	bfcd                	j	d8e <I2C_Cmd+0x8>

00000d9e <I2C_GenerateSTART>:
     d9e:	211e                	lhu	a5,0(a0)
     da0:	c589                	beqz	a1,daa <I2C_GenerateSTART+0xc>
     da2:	1007e793          	ori	a5,a5,256
     da6:	a11e                	sh	a5,0(a0)
     da8:	8082                	ret
     daa:	07c2                	slli	a5,a5,0x10
     dac:	83c1                	srli	a5,a5,0x10
     dae:	eff7f793          	andi	a5,a5,-257
     db2:	07c2                	slli	a5,a5,0x10
     db4:	83c1                	srli	a5,a5,0x10
     db6:	bfc5                	j	da6 <I2C_GenerateSTART+0x8>

00000db8 <I2C_GenerateSTOP>:
     db8:	211e                	lhu	a5,0(a0)
     dba:	c589                	beqz	a1,dc4 <I2C_GenerateSTOP+0xc>
     dbc:	2007e793          	ori	a5,a5,512
     dc0:	a11e                	sh	a5,0(a0)
     dc2:	8082                	ret
     dc4:	07c2                	slli	a5,a5,0x10
     dc6:	83c1                	srli	a5,a5,0x10
     dc8:	dff7f793          	andi	a5,a5,-513
     dcc:	07c2                	slli	a5,a5,0x10
     dce:	83c1                	srli	a5,a5,0x10
     dd0:	bfc5                	j	dc0 <I2C_GenerateSTOP+0x8>

00000dd2 <I2C_AcknowledgeConfig>:
     dd2:	211e                	lhu	a5,0(a0)
     dd4:	c589                	beqz	a1,dde <I2C_AcknowledgeConfig+0xc>
     dd6:	4007e793          	ori	a5,a5,1024
     dda:	a11e                	sh	a5,0(a0)
     ddc:	8082                	ret
     dde:	07c2                	slli	a5,a5,0x10
     de0:	83c1                	srli	a5,a5,0x10
     de2:	bff7f793          	andi	a5,a5,-1025
     de6:	07c2                	slli	a5,a5,0x10
     de8:	83c1                	srli	a5,a5,0x10
     dea:	bfc5                	j	dda <I2C_AcknowledgeConfig+0x8>

00000dec <I2C_SendData>:
     dec:	a90e                	sh	a1,16(a0)
     dee:	8082                	ret

00000df0 <I2C_ReceiveData>:
     df0:	290a                	lhu	a0,16(a0)
     df2:	0ff57513          	andi	a0,a0,255
     df6:	8082                	ret

00000df8 <I2C_Send7bitAddress>:
     df8:	0fe5f793          	andi	a5,a1,254
     dfc:	c219                	beqz	a2,e02 <I2C_Send7bitAddress+0xa>
     dfe:	0015e793          	ori	a5,a1,1
     e02:	07c2                	slli	a5,a5,0x10
     e04:	83c1                	srli	a5,a5,0x10
     e06:	a91e                	sh	a5,16(a0)
     e08:	8082                	ret

00000e0a <I2C_CheckEvent>:
     e0a:	295e                	lhu	a5,20(a0)
     e0c:	2d0a                	lhu	a0,24(a0)
     e0e:	0542                	slli	a0,a0,0x10
     e10:	8d5d                	or	a0,a0,a5
     e12:	8d6d                	and	a0,a0,a1
     e14:	0522                	slli	a0,a0,0x8
     e16:	8121                	srli	a0,a0,0x8
     e18:	8d0d                	sub	a0,a0,a1
     e1a:	00153513          	seqz	a0,a0
     e1e:	8082                	ret

00000e20 <I2C_GetFlagStatus>:
     e20:	1141                	addi	sp,sp,-16
     e22:	c402                	sw	zero,8(sp)
     e24:	c602                	sw	zero,12(sp)
     e26:	01c5d793          	srli	a5,a1,0x1c
     e2a:	c62a                	sw	a0,12(sp)
     e2c:	c43e                	sw	a5,8(sp)
     e2e:	47a2                	lw	a5,8(sp)
     e30:	05a2                	slli	a1,a1,0x8
     e32:	81a1                	srli	a1,a1,0x8
     e34:	cb99                	beqz	a5,e4a <I2C_GetFlagStatus+0x2a>
     e36:	47b2                	lw	a5,12(sp)
     e38:	07d1                	addi	a5,a5,20
     e3a:	c63e                	sw	a5,12(sp)
     e3c:	47b2                	lw	a5,12(sp)
     e3e:	4388                	lw	a0,0(a5)
     e40:	0141                	addi	sp,sp,16
     e42:	8d6d                	and	a0,a0,a1
     e44:	00a03533          	snez	a0,a0
     e48:	8082                	ret
     e4a:	47b2                	lw	a5,12(sp)
     e4c:	81c1                	srli	a1,a1,0x10
     e4e:	07e1                	addi	a5,a5,24
     e50:	b7ed                	j	e3a <I2C_GetFlagStatus+0x1a>

00000e52 <I2C_ClearFlag>:
     e52:	fff5c593          	not	a1,a1
     e56:	05c2                	slli	a1,a1,0x10
     e58:	81c1                	srli	a1,a1,0x10
     e5a:	a94e                	sh	a1,20(a0)
     e5c:	8082                	ret

00000e5e <NVIC_PriorityGroupConfig>:
     e5e:	84a1a623          	sw	a0,-1972(gp) # 20000254 <NVIC_Priority_Group>
     e62:	8082                	ret

00000e64 <NVIC_Init>:
     e64:	84c1a703          	lw	a4,-1972(gp) # 20000254 <NVIC_Priority_Group>
     e68:	4789                	li	a5,2
     e6a:	2110                	lbu	a2,0(a0)
     e6c:	02f71163          	bne	a4,a5,e8e <NVIC_Init+0x2a>
     e70:	3114                	lbu	a3,1(a0)
     e72:	478d                	li	a5,3
     e74:	00d7ed63          	bltu	a5,a3,e8e <NVIC_Init+0x2a>
     e78:	213c                	lbu	a5,2(a0)
     e7a:	069a                	slli	a3,a3,0x6
     e7c:	e000e737          	lui	a4,0xe000e
     e80:	0796                	slli	a5,a5,0x5
     e82:	8fd5                	or	a5,a5,a3
     e84:	0ff7f793          	andi	a5,a5,255
     e88:	9732                	add	a4,a4,a2
     e8a:	40f70023          	sb	a5,1024(a4) # e000e400 <_eusrstack+0xc0006400>
     e8e:	4154                	lw	a3,4(a0)
     e90:	4705                	li	a4,1
     e92:	00565793          	srli	a5,a2,0x5
     e96:	00c71733          	sll	a4,a4,a2
     e9a:	ca89                	beqz	a3,eac <NVIC_Init+0x48>
     e9c:	04078793          	addi	a5,a5,64
     ea0:	078a                	slli	a5,a5,0x2
     ea2:	e000e6b7          	lui	a3,0xe000e
     ea6:	97b6                	add	a5,a5,a3
     ea8:	c398                	sw	a4,0(a5)
     eaa:	8082                	ret
     eac:	06078793          	addi	a5,a5,96
     eb0:	e000e6b7          	lui	a3,0xe000e
     eb4:	078a                	slli	a5,a5,0x2
     eb6:	97b6                	add	a5,a5,a3
     eb8:	c398                	sw	a4,0(a5)
     eba:	0000100f          	fence.i
     ebe:	8082                	ret

00000ec0 <RCC_GetClocksFreq>:
     ec0:	40021737          	lui	a4,0x40021
     ec4:	435c                	lw	a5,4(a4)
     ec6:	4691                	li	a3,4
     ec8:	8bb1                	andi	a5,a5,12
     eca:	00d78563          	beq	a5,a3,ed4 <RCC_GetClocksFreq+0x14>
     ece:	46a1                	li	a3,8
     ed0:	06d78263          	beq	a5,a3,f34 <RCC_GetClocksFreq+0x74>
     ed4:	007a17b7          	lui	a5,0x7a1
     ed8:	20078793          	addi	a5,a5,512 # 7a1200 <_data_lma+0x799f94>
     edc:	c11c                	sw	a5,0(a0)
     ede:	40021637          	lui	a2,0x40021
     ee2:	425c                	lw	a5,4(a2)
     ee4:	20000737          	lui	a4,0x20000
     ee8:	01c70713          	addi	a4,a4,28 # 2000001c <APBAHBPrescTable>
     eec:	8391                	srli	a5,a5,0x4
     eee:	8bbd                	andi	a5,a5,15
     ef0:	97ba                	add	a5,a5,a4
     ef2:	2394                	lbu	a3,0(a5)
     ef4:	411c                	lw	a5,0(a0)
     ef6:	00d7d7b3          	srl	a5,a5,a3
     efa:	c15c                	sw	a5,4(a0)
     efc:	4254                	lw	a3,4(a2)
     efe:	82a1                	srli	a3,a3,0x8
     f00:	8a9d                	andi	a3,a3,7
     f02:	96ba                	add	a3,a3,a4
     f04:	2294                	lbu	a3,0(a3)
     f06:	00d7d6b3          	srl	a3,a5,a3
     f0a:	c514                	sw	a3,8(a0)
     f0c:	4254                	lw	a3,4(a2)
     f0e:	82ad                	srli	a3,a3,0xb
     f10:	8a9d                	andi	a3,a3,7
     f12:	9736                	add	a4,a4,a3
     f14:	2318                	lbu	a4,0(a4)
     f16:	00e7d7b3          	srl	a5,a5,a4
     f1a:	c55c                	sw	a5,12(a0)
     f1c:	4258                	lw	a4,4(a2)
     f1e:	8339                	srli	a4,a4,0xe
     f20:	00377693          	andi	a3,a4,3
     f24:	80418713          	addi	a4,gp,-2044 # 2000020c <ADCPrescTable>
     f28:	9736                	add	a4,a4,a3
     f2a:	2318                	lbu	a4,0(a4)
     f2c:	02e7d7b3          	divu	a5,a5,a4
     f30:	c91c                	sw	a5,16(a0)
     f32:	8082                	ret
     f34:	435c                	lw	a5,4(a4)
     f36:	4354                	lw	a3,4(a4)
     f38:	6741                	lui	a4,0x10
     f3a:	83c9                	srli	a5,a5,0x12
     f3c:	8ef9                	and	a3,a3,a4
     f3e:	1ffff737          	lui	a4,0x1ffff
     f42:	70c72703          	lw	a4,1804(a4) # 1ffff70c <_data_lma+0x1fff84a0>
     f46:	8bbd                	andi	a5,a5,15
     f48:	0789                	addi	a5,a5,2
     f4a:	01171613          	slli	a2,a4,0x11
     f4e:	00064863          	bltz	a2,f5e <RCC_GetClocksFreq+0x9e>
     f52:	4645                	li	a2,17
     f54:	4701                	li	a4,0
     f56:	02c79263          	bne	a5,a2,f7a <RCC_GetClocksFreq+0xba>
     f5a:	47c9                	li	a5,18
     f5c:	a839                	j	f7a <RCC_GetClocksFreq+0xba>
     f5e:	4709                	li	a4,2
     f60:	02e78963          	beq	a5,a4,f92 <RCC_GetClocksFreq+0xd2>
     f64:	473d                	li	a4,15
     f66:	02e78863          	beq	a5,a4,f96 <RCC_GetClocksFreq+0xd6>
     f6a:	4741                	li	a4,16
     f6c:	02e78863          	beq	a5,a4,f9c <RCC_GetClocksFreq+0xdc>
     f70:	4645                	li	a2,17
     f72:	4701                	li	a4,0
     f74:	00c79363          	bne	a5,a2,f7a <RCC_GetClocksFreq+0xba>
     f78:	47c1                	li	a5,16
     f7a:	e685                	bnez	a3,fa2 <RCC_GetClocksFreq+0xe2>
     f7c:	400246b7          	lui	a3,0x40024
     f80:	8006a683          	lw	a3,-2048(a3) # 40023800 <_eusrstack+0x2001b800>
     f84:	8ac1                	andi	a3,a3,16
     f86:	c68d                	beqz	a3,fb0 <RCC_GetClocksFreq+0xf0>
     f88:	007a16b7          	lui	a3,0x7a1
     f8c:	20068693          	addi	a3,a3,512 # 7a1200 <_data_lma+0x799f94>
     f90:	a025                	j	fb8 <RCC_GetClocksFreq+0xf8>
     f92:	4701                	li	a4,0
     f94:	b7d9                	j	f5a <RCC_GetClocksFreq+0x9a>
     f96:	4705                	li	a4,1
     f98:	47b5                	li	a5,13
     f9a:	b7c5                	j	f7a <RCC_GetClocksFreq+0xba>
     f9c:	4701                	li	a4,0
     f9e:	47bd                	li	a5,15
     fa0:	bfe9                	j	f7a <RCC_GetClocksFreq+0xba>
     fa2:	400216b7          	lui	a3,0x40021
     fa6:	42d4                	lw	a3,4(a3)
     fa8:	00e69613          	slli	a2,a3,0xe
     fac:	fc065ee3          	bgez	a2,f88 <RCC_GetClocksFreq+0xc8>
     fb0:	003d16b7          	lui	a3,0x3d1
     fb4:	90068693          	addi	a3,a3,-1792 # 3d0900 <_data_lma+0x3c9694>
     fb8:	02d787b3          	mul	a5,a5,a3
     fbc:	c11c                	sw	a5,0(a0)
     fbe:	d305                	beqz	a4,ede <RCC_GetClocksFreq+0x1e>
     fc0:	411c                	lw	a5,0(a0)
     fc2:	8385                	srli	a5,a5,0x1
     fc4:	bf21                	j	edc <RCC_GetClocksFreq+0x1c>

00000fc6 <RCC_AHBPeriphClockCmd>:
     fc6:	c599                	beqz	a1,fd4 <RCC_AHBPeriphClockCmd+0xe>
     fc8:	40021737          	lui	a4,0x40021
     fcc:	4b5c                	lw	a5,20(a4)
     fce:	8d5d                	or	a0,a0,a5
     fd0:	cb48                	sw	a0,20(a4)
     fd2:	8082                	ret
     fd4:	400217b7          	lui	a5,0x40021
     fd8:	4bd8                	lw	a4,20(a5)
     fda:	fff54513          	not	a0,a0
     fde:	8d79                	and	a0,a0,a4
     fe0:	cbc8                	sw	a0,20(a5)
     fe2:	8082                	ret

00000fe4 <RCC_APB2PeriphClockCmd>:
     fe4:	c599                	beqz	a1,ff2 <RCC_APB2PeriphClockCmd+0xe>
     fe6:	40021737          	lui	a4,0x40021
     fea:	4f1c                	lw	a5,24(a4)
     fec:	8d5d                	or	a0,a0,a5
     fee:	cf08                	sw	a0,24(a4)
     ff0:	8082                	ret
     ff2:	400217b7          	lui	a5,0x40021
     ff6:	4f98                	lw	a4,24(a5)
     ff8:	fff54513          	not	a0,a0
     ffc:	8d79                	and	a0,a0,a4
     ffe:	cf88                	sw	a0,24(a5)
    1000:	8082                	ret

00001002 <RCC_APB1PeriphClockCmd>:
    1002:	c599                	beqz	a1,1010 <RCC_APB1PeriphClockCmd+0xe>
    1004:	40021737          	lui	a4,0x40021
    1008:	4f5c                	lw	a5,28(a4)
    100a:	8d5d                	or	a0,a0,a5
    100c:	cf48                	sw	a0,28(a4)
    100e:	8082                	ret
    1010:	400217b7          	lui	a5,0x40021
    1014:	4fd8                	lw	a4,28(a5)
    1016:	fff54513          	not	a0,a0
    101a:	8d79                	and	a0,a0,a4
    101c:	cfc8                	sw	a0,28(a5)
    101e:	8082                	ret

00001020 <RCC_APB2PeriphResetCmd>:
    1020:	c599                	beqz	a1,102e <RCC_APB2PeriphResetCmd+0xe>
    1022:	40021737          	lui	a4,0x40021
    1026:	475c                	lw	a5,12(a4)
    1028:	8d5d                	or	a0,a0,a5
    102a:	c748                	sw	a0,12(a4)
    102c:	8082                	ret
    102e:	400217b7          	lui	a5,0x40021
    1032:	47d8                	lw	a4,12(a5)
    1034:	fff54513          	not	a0,a0
    1038:	8d79                	and	a0,a0,a4
    103a:	c7c8                	sw	a0,12(a5)
    103c:	8082                	ret

0000103e <RCC_APB1PeriphResetCmd>:
    103e:	c599                	beqz	a1,104c <RCC_APB1PeriphResetCmd+0xe>
    1040:	40021737          	lui	a4,0x40021
    1044:	4b1c                	lw	a5,16(a4)
    1046:	8d5d                	or	a0,a0,a5
    1048:	cb08                	sw	a0,16(a4)
    104a:	8082                	ret
    104c:	400217b7          	lui	a5,0x40021
    1050:	4b98                	lw	a4,16(a5)
    1052:	fff54513          	not	a0,a0
    1056:	8d79                	and	a0,a0,a4
    1058:	cb88                	sw	a0,16(a5)
    105a:	8082                	ret

0000105c <RCC_USBFSCLKConfig>:
    105c:	400217b7          	lui	a5,0x40021
    1060:	43d8                	lw	a4,4(a5)
    1062:	ff4006b7          	lui	a3,0xff400
    1066:	16fd                	addi	a3,a3,-1
    1068:	8f75                	and	a4,a4,a3
    106a:	c3d8                	sw	a4,4(a5)
    106c:	43d8                	lw	a4,4(a5)
    106e:	055a                	slli	a0,a0,0x16
    1070:	8d59                	or	a0,a0,a4
    1072:	c3c8                	sw	a0,4(a5)
    1074:	8082                	ret

00001076 <TIM_GetCapture2>:
    1076:	3d0a                	lhu	a0,56(a0)
    1078:	8082                	ret

0000107a <TIM_GetITStatus>:
    107a:	291e                	lhu	a5,16(a0)
    107c:	254a                	lhu	a0,12(a0)
    107e:	8fed                	and	a5,a5,a1
    1080:	0542                	slli	a0,a0,0x10
    1082:	8141                	srli	a0,a0,0x10
    1084:	c789                	beqz	a5,108e <TIM_GetITStatus+0x14>
    1086:	8d6d                	and	a0,a0,a1
    1088:	00a03533          	snez	a0,a0
    108c:	8082                	ret
    108e:	4501                	li	a0,0
    1090:	8082                	ret

00001092 <TIM_ClearITPendingBit>:
    1092:	fff5c593          	not	a1,a1
    1096:	05c2                	slli	a1,a1,0x10
    1098:	81c1                	srli	a1,a1,0x10
    109a:	a90e                	sh	a1,16(a0)
    109c:	8082                	ret

0000109e <USART_Init>:
    109e:	952ff2ef          	jal	t0,1f0 <__riscv_save_0>
    10a2:	2916                	lhu	a3,16(a0)
    10a4:	77f5                	lui	a5,0xffffd
    10a6:	17fd                	addi	a5,a5,-1
    10a8:	8ff5                	and	a5,a5,a3
    10aa:	21f6                	lhu	a3,6(a1)
    10ac:	25da                	lhu	a4,12(a1)
    10ae:	7179                	addi	sp,sp,-48
    10b0:	8fd5                	or	a5,a5,a3
    10b2:	a91e                	sh	a5,16(a0)
    10b4:	2556                	lhu	a3,12(a0)
    10b6:	77fd                	lui	a5,0xfffff
    10b8:	9f378793          	addi	a5,a5,-1549 # ffffe9f3 <_eusrstack+0xdfff69f3>
    10bc:	8ff5                	and	a5,a5,a3
    10be:	21d6                	lhu	a3,4(a1)
    10c0:	842a                	mv	s0,a0
    10c2:	c62e                	sw	a1,12(sp)
    10c4:	8fd5                	or	a5,a5,a3
    10c6:	2596                	lhu	a3,8(a1)
    10c8:	8fd5                	or	a5,a5,a3
    10ca:	25b6                	lhu	a3,10(a1)
    10cc:	8fd5                	or	a5,a5,a3
    10ce:	a55e                	sh	a5,12(a0)
    10d0:	295e                	lhu	a5,20(a0)
    10d2:	07c2                	slli	a5,a5,0x10
    10d4:	83c1                	srli	a5,a5,0x10
    10d6:	cff7f793          	andi	a5,a5,-769
    10da:	8fd9                	or	a5,a5,a4
    10dc:	a95e                	sh	a5,20(a0)
    10de:	0868                	addi	a0,sp,28
    10e0:	33c5                	jal	ec0 <RCC_GetClocksFreq>
    10e2:	400147b7          	lui	a5,0x40014
    10e6:	80078793          	addi	a5,a5,-2048 # 40013800 <_eusrstack+0x2000b800>
    10ea:	45b2                	lw	a1,12(sp)
    10ec:	02f41e63          	bne	s0,a5,1128 <USART_Init+0x8a>
    10f0:	57a2                	lw	a5,40(sp)
    10f2:	4765                	li	a4,25
    10f4:	02e787b3          	mul	a5,a5,a4
    10f8:	4198                	lw	a4,0(a1)
    10fa:	06400693          	li	a3,100
    10fe:	070a                	slli	a4,a4,0x2
    1100:	02e7d7b3          	divu	a5,a5,a4
    1104:	02d7d733          	divu	a4,a5,a3
    1108:	02d7f7b3          	remu	a5,a5,a3
    110c:	0712                	slli	a4,a4,0x4
    110e:	0792                	slli	a5,a5,0x4
    1110:	03278793          	addi	a5,a5,50
    1114:	02d7d7b3          	divu	a5,a5,a3
    1118:	8bbd                	andi	a5,a5,15
    111a:	8fd9                	or	a5,a5,a4
    111c:	07c2                	slli	a5,a5,0x10
    111e:	83c1                	srli	a5,a5,0x10
    1120:	a41e                	sh	a5,8(s0)
    1122:	6145                	addi	sp,sp,48
    1124:	8f0ff06f          	j	214 <__riscv_restore_0>
    1128:	5792                	lw	a5,36(sp)
    112a:	b7e1                	j	10f2 <USART_Init+0x54>

0000112c <USART_Cmd>:
    112c:	c591                	beqz	a1,1138 <USART_Cmd+0xc>
    112e:	255e                	lhu	a5,12(a0)
    1130:	6709                	lui	a4,0x2
    1132:	8fd9                	or	a5,a5,a4
    1134:	a55e                	sh	a5,12(a0)
    1136:	8082                	ret
    1138:	255a                	lhu	a4,12(a0)
    113a:	77f9                	lui	a5,0xffffe
    113c:	17fd                	addi	a5,a5,-1
    113e:	8ff9                	and	a5,a5,a4
    1140:	bfd5                	j	1134 <USART_Cmd+0x8>

00001142 <USART_ITConfig>:
    1142:	0ff5f713          	andi	a4,a1,255
    1146:	4785                	li	a5,1
    1148:	8315                	srli	a4,a4,0x5
    114a:	00b795b3          	sll	a1,a5,a1
    114e:	00f71963          	bne	a4,a5,1160 <USART_ITConfig+0x1e>
    1152:	00c50793          	addi	a5,a0,12
    1156:	4398                	lw	a4,0(a5)
    1158:	ce01                	beqz	a2,1170 <USART_ITConfig+0x2e>
    115a:	8dd9                	or	a1,a1,a4
    115c:	c38c                	sw	a1,0(a5)
    115e:	8082                	ret
    1160:	4689                	li	a3,2
    1162:	01450793          	addi	a5,a0,20
    1166:	fed718e3          	bne	a4,a3,1156 <USART_ITConfig+0x14>
    116a:	01050793          	addi	a5,a0,16
    116e:	b7e5                	j	1156 <USART_ITConfig+0x14>
    1170:	fff5c593          	not	a1,a1
    1174:	8df9                	and	a1,a1,a4
    1176:	b7dd                	j	115c <USART_ITConfig+0x1a>

00001178 <USART_DMACmd>:
    1178:	295e                	lhu	a5,20(a0)
    117a:	c601                	beqz	a2,1182 <USART_DMACmd+0xa>
    117c:	8ddd                	or	a1,a1,a5
    117e:	a94e                	sh	a1,20(a0)
    1180:	8082                	ret
    1182:	fff5c593          	not	a1,a1
    1186:	8dfd                	and	a1,a1,a5
    1188:	bfdd                	j	117e <USART_DMACmd+0x6>

0000118a <USART_SendData>:
    118a:	1ff5f593          	andi	a1,a1,511
    118e:	a14e                	sh	a1,4(a0)
    1190:	8082                	ret

00001192 <USART_ReceiveData>:
    1192:	214a                	lhu	a0,4(a0)
    1194:	1ff57513          	andi	a0,a0,511
    1198:	8082                	ret

0000119a <USART_GetFlagStatus>:
    119a:	210a                	lhu	a0,0(a0)
    119c:	8d6d                	and	a0,a0,a1
    119e:	00a03533          	snez	a0,a0
    11a2:	8082                	ret

000011a4 <USART_GetITStatus>:
    11a4:	0ff5f713          	andi	a4,a1,255
    11a8:	4685                	li	a3,1
    11aa:	8315                	srli	a4,a4,0x5
    11ac:	00b697b3          	sll	a5,a3,a1
    11b0:	02d71163          	bne	a4,a3,11d2 <USART_GetITStatus+0x2e>
    11b4:	255a                	lhu	a4,12(a0)
    11b6:	8ff9                	and	a5,a5,a4
    11b8:	211a                	lhu	a4,0(a0)
    11ba:	4501                	li	a0,0
    11bc:	0742                	slli	a4,a4,0x10
    11be:	8341                	srli	a4,a4,0x10
    11c0:	cb81                	beqz	a5,11d0 <USART_GetITStatus+0x2c>
    11c2:	4505                	li	a0,1
    11c4:	81a1                	srli	a1,a1,0x8
    11c6:	00b515b3          	sll	a1,a0,a1
    11ca:	8f6d                	and	a4,a4,a1
    11cc:	00e03533          	snez	a0,a4
    11d0:	8082                	ret
    11d2:	4689                	li	a3,2
    11d4:	00d71463          	bne	a4,a3,11dc <USART_GetITStatus+0x38>
    11d8:	291a                	lhu	a4,16(a0)
    11da:	bff1                	j	11b6 <USART_GetITStatus+0x12>
    11dc:	295a                	lhu	a4,20(a0)
    11de:	bfe1                	j	11b6 <USART_GetITStatus+0x12>

000011e0 <internal_malloc>:
    11e0:	810ff2ef          	jal	t0,1f0 <__riscv_save_0>
    11e4:	80c1a783          	lw	a5,-2036(gp) # 20000214 <cJSON_malloc>
    11e8:	9782                	jalr	a5
    11ea:	82aff06f          	j	214 <__riscv_restore_0>

000011ee <internal_free>:
    11ee:	c901                	beqz	a0,11fe <internal_free+0x10>
    11f0:	800ff2ef          	jal	t0,1f0 <__riscv_save_0>
    11f4:	8081a783          	lw	a5,-2040(gp) # 20000210 <cJSON_free>
    11f8:	9782                	jalr	a5
    11fa:	81aff06f          	j	214 <__riscv_restore_0>
    11fe:	8082                	ret

00001200 <parse_string>:
    1200:	00058703          	lb	a4,0(a1)
    1204:	02200793          	li	a5,34
    1208:	06f71f63          	bne	a4,a5,1286 <parse_string+0x86>
    120c:	fcbfe2ef          	jal	t0,1d6 <__riscv_save_4>
    1210:	00158413          	addi	s0,a1,1
    1214:	8722                	mv	a4,s0
    1216:	4781                	li	a5,0
    1218:	02200593          	li	a1,34
    121c:	05c00813          	li	a6,92
    1220:	00070683          	lb	a3,0(a4) # 2000 <i2c_timeout_stop+0x6>
    1224:	0785                	addi	a5,a5,1
    1226:	00b68363          	beq	a3,a1,122c <parse_string+0x2c>
    122a:	e2b5                	bnez	a3,128e <parse_string+0x8e>
    122c:	84aa                	mv	s1,a0
    122e:	853e                	mv	a0,a5
    1230:	8932                	mv	s2,a2
    1232:	377d                	jal	11e0 <internal_malloc>
    1234:	c539                	beqz	a0,1282 <parse_string+0x82>
    1236:	87aa                	mv	a5,a0
    1238:	02200593          	li	a1,34
    123c:	05c00813          	li	a6,92
    1240:	06e00613          	li	a2,110
    1244:	48a9                	li	a7,10
    1246:	07400313          	li	t1,116
    124a:	4e25                	li	t3,9
    124c:	07500e93          	li	t4,117
    1250:	03f00f13          	li	t5,63
    1254:	07200f93          	li	t6,114
    1258:	42b5                	li	t0,13
    125a:	06200393          	li	t2,98
    125e:	49a1                	li	s3,8
    1260:	06600a13          	li	s4,102
    1264:	4ab1                	li	s5,12
    1266:	00040703          	lb	a4,0(s0)
    126a:	00140693          	addi	a3,s0,1
    126e:	00b70363          	beq	a4,a1,1274 <parse_string+0x74>
    1272:	e31d                	bnez	a4,1298 <parse_string+0x98>
    1274:	00078023          	sb	zero,0(a5) # ffffe000 <_eusrstack+0xdfff6000>
    1278:	47c1                	li	a5,16
    127a:	c888                	sw	a0,16(s1)
    127c:	c4dc                	sw	a5,12(s1)
    127e:	00d92023          	sw	a3,0(s2)
    1282:	f89fe06f          	j	20a <__riscv_restore_4>
    1286:	84b1a823          	sw	a1,-1968(gp) # 20000258 <ep>
    128a:	4501                	li	a0,0
    128c:	8082                	ret
    128e:	01069363          	bne	a3,a6,1294 <parse_string+0x94>
    1292:	0705                	addi	a4,a4,1
    1294:	0705                	addi	a4,a4,1
    1296:	b769                	j	1220 <parse_string+0x20>
    1298:	0785                	addi	a5,a5,1
    129a:	05071b63          	bne	a4,a6,12f0 <parse_string+0xf0>
    129e:	00140703          	lb	a4,1(s0)
    12a2:	02c70c63          	beq	a4,a2,12da <parse_string+0xda>
    12a6:	00e64963          	blt	a2,a4,12b8 <parse_string+0xb8>
    12aa:	02770063          	beq	a4,t2,12ca <parse_string+0xca>
    12ae:	03470363          	beq	a4,s4,12d4 <parse_string+0xd4>
    12b2:	fee78fa3          	sb	a4,-1(a5)
    12b6:	a821                	j	12ce <parse_string+0xce>
    12b8:	02670463          	beq	a4,t1,12e0 <parse_string+0xe0>
    12bc:	03d70563          	beq	a4,t4,12e6 <parse_string+0xe6>
    12c0:	fff719e3          	bne	a4,t6,12b2 <parse_string+0xb2>
    12c4:	fe578fa3          	sb	t0,-1(a5)
    12c8:	a019                	j	12ce <parse_string+0xce>
    12ca:	ff378fa3          	sb	s3,-1(a5)
    12ce:	0685                	addi	a3,a3,1
    12d0:	8436                	mv	s0,a3
    12d2:	bf51                	j	1266 <parse_string+0x66>
    12d4:	ff578fa3          	sb	s5,-1(a5)
    12d8:	bfdd                	j	12ce <parse_string+0xce>
    12da:	ff178fa3          	sb	a7,-1(a5)
    12de:	bfc5                	j	12ce <parse_string+0xce>
    12e0:	ffc78fa3          	sb	t3,-1(a5)
    12e4:	b7ed                	j	12ce <parse_string+0xce>
    12e6:	00540693          	addi	a3,s0,5
    12ea:	ffe78fa3          	sb	t5,-1(a5)
    12ee:	b7c5                	j	12ce <parse_string+0xce>
    12f0:	fee78fa3          	sb	a4,-1(a5)
    12f4:	bff1                	j	12d0 <parse_string+0xd0>

000012f6 <skip>:
    12f6:	477d                	li	a4,31
    12f8:	e119                	bnez	a0,12fe <skip+0x8>
    12fa:	8082                	ret
    12fc:	0505                	addi	a0,a0,1
    12fe:	211c                	lbu	a5,0(a0)
    1300:	17fd                	addi	a5,a5,-1
    1302:	0ff7f793          	andi	a5,a5,255
    1306:	fef77be3          	bgeu	a4,a5,12fc <skip+0x6>
    130a:	bfc5                	j	12fa <skip+0x4>

0000130c <parse_value>:
    130c:	eb5fe2ef          	jal	t0,1c0 <__riscv_save_12>
    1310:	1101                	addi	sp,sp,-32
    1312:	c62e                	sw	a1,12(sp)
    1314:	e199                	bnez	a1,131a <parse_value+0xe>
    1316:	4401                	li	s0,0
    1318:	aa9d                	j	148e <parse_value+0x182>
    131a:	00058783          	lb	a5,0(a1)
    131e:	842e                	mv	s0,a1
    1320:	dbfd                	beqz	a5,1316 <parse_value+0xa>
    1322:	05b00713          	li	a4,91
    1326:	892a                	mv	s2,a0
    1328:	1ee78363          	beq	a5,a4,150e <parse_value+0x202>
    132c:	0cf74163          	blt	a4,a5,13ee <parse_value+0xe2>
    1330:	02d00713          	li	a4,45
    1334:	02e78263          	beq	a5,a4,1358 <parse_value+0x4c>
    1338:	00f74963          	blt	a4,a5,134a <parse_value+0x3e>
    133c:	02200713          	li	a4,34
    1340:	14e78463          	beq	a5,a4,1488 <parse_value+0x17c>
    1344:	8481a823          	sw	s0,-1968(gp) # 20000258 <ep>
    1348:	b7f9                	j	1316 <parse_value+0xa>
    134a:	fd078713          	addi	a4,a5,-48
    134e:	0ff77713          	andi	a4,a4,255
    1352:	46a5                	li	a3,9
    1354:	fee6e8e3          	bltu	a3,a4,1344 <parse_value+0x38>
    1358:	02d00713          	li	a4,45
    135c:	26e79f63          	bne	a5,a4,15da <parse_value+0x2ce>
    1360:	000077b7          	lui	a5,0x7
    1364:	8b07aa03          	lw	s4,-1872(a5) # 68b0 <__malloc_unlock+0x158>
    1368:	8b47aa83          	lw	s5,-1868(a5)
    136c:	0405                	addi	s0,s0,1
    136e:	00040783          	lb	a5,0(s0)
    1372:	03000713          	li	a4,48
    1376:	26e79963          	bne	a5,a4,15e8 <parse_value+0x2dc>
    137a:	0405                	addi	s0,s0,1
    137c:	4b01                	li	s6,0
    137e:	4b81                	li	s7,0
    1380:	00040703          	lb	a4,0(s0)
    1384:	02e00793          	li	a5,46
    1388:	04f71263          	bne	a4,a5,13cc <parse_value+0xc0>
    138c:	000077b7          	lui	a5,0x7
    1390:	8b87ac03          	lw	s8,-1864(a5) # 68b8 <__malloc_unlock+0x160>
    1394:	8bc7ac83          	lw	s9,-1860(a5)
    1398:	000077b7          	lui	a5,0x7
    139c:	8c07ad83          	lw	s11,-1856(a5) # 68c0 <__malloc_unlock+0x168>
    13a0:	8c47a783          	lw	a5,-1852(a5)
    13a4:	0405                	addi	s0,s0,1
    13a6:	4725                	li	a4,9
    13a8:	89ee                	mv	s3,s11
    13aa:	8d3e                	mv	s10,a5
    13ac:	00040483          	lb	s1,0(s0)
    13b0:	fd048493          	addi	s1,s1,-48 # 1fffffd0 <_data_lma+0x1fff8d64>
    13b4:	0ff4f693          	andi	a3,s1,255
    13b8:	28d77563          	bgeu	a4,a3,1642 <parse_value+0x336>
    13bc:	855a                	mv	a0,s6
    13be:	85de                	mv	a1,s7
    13c0:	8662                	mv	a2,s8
    13c2:	86e6                	mv	a3,s9
    13c4:	3ec030ef          	jal	ra,47b0 <__divdf3>
    13c8:	8b2a                	mv	s6,a0
    13ca:	8bae                	mv	s7,a1
    13cc:	00040783          	lb	a5,0(s0)
    13d0:	04500713          	li	a4,69
    13d4:	fdf7f793          	andi	a5,a5,-33
    13d8:	30e79d63          	bne	a5,a4,16f2 <parse_value+0x3e6>
    13dc:	00140783          	lb	a5,1(s0)
    13e0:	02b00713          	li	a4,43
    13e4:	28e79d63          	bne	a5,a4,167e <parse_value+0x372>
    13e8:	0409                	addi	s0,s0,2
    13ea:	4c05                	li	s8,1
    13ec:	ac79                	j	168a <parse_value+0x37e>
    13ee:	06e00713          	li	a4,110
    13f2:	1ce78863          	beq	a5,a4,15c2 <parse_value+0x2b6>
    13f6:	02f74463          	blt	a4,a5,141e <parse_value+0x112>
    13fa:	06600713          	li	a4,102
    13fe:	f4e793e3          	bne	a5,a4,1344 <parse_value+0x38>
    1402:	000075b7          	lui	a1,0x7
    1406:	4615                	li	a2,5
    1408:	8d858593          	addi	a1,a1,-1832 # 68d8 <__malloc_unlock+0x180>
    140c:	8522                	mv	a0,s0
    140e:	1aa050ef          	jal	ra,65b8 <strncmp>
    1412:	f90d                	bnez	a0,1344 <parse_value+0x38>
    1414:	4785                	li	a5,1
    1416:	00f92623          	sw	a5,12(s2)
    141a:	0415                	addi	s0,s0,5
    141c:	a88d                	j	148e <parse_value+0x182>
    141e:	07400713          	li	a4,116
    1422:	18e78163          	beq	a5,a4,15a4 <parse_value+0x298>
    1426:	07b00713          	li	a4,123
    142a:	f0e79de3          	bne	a5,a4,1344 <parse_value+0x38>
    142e:	04000793          	li	a5,64
    1432:	c55c                	sw	a5,12(a0)
    1434:	00158513          	addi	a0,a1,1
    1438:	3d7d                	jal	12f6 <skip>
    143a:	00050703          	lb	a4,0(a0)
    143e:	07d00793          	li	a5,125
    1442:	842a                	mv	s0,a0
    1444:	4a01                	li	s4,0
    1446:	0ef70163          	beq	a4,a5,1528 <parse_value+0x21c>
    144a:	02200993          	li	s3,34
    144e:	03a00a93          	li	s5,58
    1452:	02c00b13          	li	s6,44
    1456:	02800513          	li	a0,40
    145a:	3359                	jal	11e0 <internal_malloc>
    145c:	84aa                	mv	s1,a0
    145e:	ea050ce3          	beqz	a0,1316 <parse_value+0xa>
    1462:	4581                	li	a1,0
    1464:	02800613          	li	a2,40
    1468:	db9fe0ef          	jal	ra,220 <memset>
    146c:	8522                	mv	a0,s0
    146e:	3561                	jal	12f6 <skip>
    1470:	00050783          	lb	a5,0(a0)
    1474:	85aa                	mv	a1,a0
    1476:	03378063          	beq	a5,s3,1496 <parse_value+0x18a>
    147a:	c02a                	sw	a0,0(sp)
    147c:	8526                	mv	a0,s1
    147e:	3b85                	jal	11ee <internal_free>
    1480:	4582                	lw	a1,0(sp)
    1482:	84b1a823          	sw	a1,-1968(gp) # 20000258 <ep>
    1486:	bd41                	j	1316 <parse_value+0xa>
    1488:	0070                	addi	a2,sp,12
    148a:	3b9d                	jal	1200 <parse_string>
    148c:	4432                	lw	s0,12(sp)
    148e:	8522                	mv	a0,s0
    1490:	6105                	addi	sp,sp,32
    1492:	d6bfe06f          	j	1fc <__riscv_restore_12>
    1496:	0870                	addi	a2,sp,28
    1498:	8526                	mv	a0,s1
    149a:	339d                	jal	1200 <parse_string>
    149c:	489c                	lw	a5,16(s1)
    149e:	4572                	lw	a0,28(sp)
    14a0:	e781                	bnez	a5,14a8 <parse_value+0x19c>
    14a2:	8526                	mv	a0,s1
    14a4:	33a9                	jal	11ee <internal_free>
    14a6:	bd85                	j	1316 <parse_value+0xa>
    14a8:	d09c                	sw	a5,32(s1)
    14aa:	0004a823          	sw	zero,16(s1)
    14ae:	35a1                	jal	12f6 <skip>
    14b0:	00050783          	lb	a5,0(a0)
    14b4:	842a                	mv	s0,a0
    14b6:	01578563          	beq	a5,s5,14c0 <parse_value+0x1b4>
    14ba:	8526                	mv	a0,s1
    14bc:	3b0d                	jal	11ee <internal_free>
    14be:	b559                	j	1344 <parse_value+0x38>
    14c0:	0505                	addi	a0,a0,1
    14c2:	3d15                	jal	12f6 <skip>
    14c4:	85aa                	mv	a1,a0
    14c6:	8526                	mv	a0,s1
    14c8:	3591                	jal	130c <parse_value>
    14ca:	3535                	jal	12f6 <skip>
    14cc:	842a                	mv	s0,a0
    14ce:	e501                	bnez	a0,14d6 <parse_value+0x1ca>
    14d0:	8526                	mv	a0,s1
    14d2:	3b31                	jal	11ee <internal_free>
    14d4:	bf6d                	j	148e <parse_value+0x182>
    14d6:	000a1e63          	bnez	s4,14f2 <parse_value+0x1e6>
    14da:	00992423          	sw	s1,8(s2)
    14de:	8522                	mv	a0,s0
    14e0:	3d19                	jal	12f6 <skip>
    14e2:	00050783          	lb	a5,0(a0)
    14e6:	01679b63          	bne	a5,s6,14fc <parse_value+0x1f0>
    14ea:	00150413          	addi	s0,a0,1
    14ee:	8a26                	mv	s4,s1
    14f0:	b79d                	j	1456 <parse_value+0x14a>
    14f2:	009a2023          	sw	s1,0(s4)
    14f6:	0144a223          	sw	s4,4(s1)
    14fa:	b7d5                	j	14de <parse_value+0x1d2>
    14fc:	07d00713          	li	a4,125
    1500:	00150413          	addi	s0,a0,1
    1504:	f8e785e3          	beq	a5,a4,148e <parse_value+0x182>
    1508:	84a1a823          	sw	a0,-1968(gp) # 20000258 <ep>
    150c:	b529                	j	1316 <parse_value+0xa>
    150e:	02000793          	li	a5,32
    1512:	c55c                	sw	a5,12(a0)
    1514:	00158513          	addi	a0,a1,1
    1518:	3bf9                	jal	12f6 <skip>
    151a:	00050703          	lb	a4,0(a0)
    151e:	05d00793          	li	a5,93
    1522:	842a                	mv	s0,a0
    1524:	00f71463          	bne	a4,a5,152c <parse_value+0x220>
    1528:	0405                	addi	s0,s0,1
    152a:	b795                	j	148e <parse_value+0x182>
    152c:	02800513          	li	a0,40
    1530:	3945                	jal	11e0 <internal_malloc>
    1532:	84aa                	mv	s1,a0
    1534:	de0501e3          	beqz	a0,1316 <parse_value+0xa>
    1538:	02800613          	li	a2,40
    153c:	4581                	li	a1,0
    153e:	ce3fe0ef          	jal	ra,220 <memset>
    1542:	8522                	mv	a0,s0
    1544:	3b4d                	jal	12f6 <skip>
    1546:	85aa                	mv	a1,a0
    1548:	8526                	mv	a0,s1
    154a:	33c9                	jal	130c <parse_value>
    154c:	336d                	jal	12f6 <skip>
    154e:	842a                	mv	s0,a0
    1550:	d141                	beqz	a0,14d0 <parse_value+0x1c4>
    1552:	00992423          	sw	s1,8(s2)
    1556:	02c00993          	li	s3,44
    155a:	00040783          	lb	a5,0(s0)
    155e:	01378763          	beq	a5,s3,156c <parse_value+0x260>
    1562:	05d00713          	li	a4,93
    1566:	dce79fe3          	bne	a5,a4,1344 <parse_value+0x38>
    156a:	bf7d                	j	1528 <parse_value+0x21c>
    156c:	02800513          	li	a0,40
    1570:	3985                	jal	11e0 <internal_malloc>
    1572:	892a                	mv	s2,a0
    1574:	da0501e3          	beqz	a0,1316 <parse_value+0xa>
    1578:	02800613          	li	a2,40
    157c:	4581                	li	a1,0
    157e:	ca3fe0ef          	jal	ra,220 <memset>
    1582:	00140513          	addi	a0,s0,1
    1586:	3b85                	jal	12f6 <skip>
    1588:	85aa                	mv	a1,a0
    158a:	854a                	mv	a0,s2
    158c:	3341                	jal	130c <parse_value>
    158e:	33a5                	jal	12f6 <skip>
    1590:	842a                	mv	s0,a0
    1592:	e119                	bnez	a0,1598 <parse_value+0x28c>
    1594:	854a                	mv	a0,s2
    1596:	bf35                	j	14d2 <parse_value+0x1c6>
    1598:	0124a023          	sw	s2,0(s1)
    159c:	00992223          	sw	s1,4(s2)
    15a0:	84ca                	mv	s1,s2
    15a2:	bf65                	j	155a <parse_value+0x24e>
    15a4:	000075b7          	lui	a1,0x7
    15a8:	4611                	li	a2,4
    15aa:	8d058593          	addi	a1,a1,-1840 # 68d0 <__malloc_unlock+0x178>
    15ae:	8522                	mv	a0,s0
    15b0:	008050ef          	jal	ra,65b8 <strncmp>
    15b4:	4789                	li	a5,2
    15b6:	d80517e3          	bnez	a0,1344 <parse_value+0x38>
    15ba:	00f92623          	sw	a5,12(s2)
    15be:	0411                	addi	s0,s0,4
    15c0:	b5f9                	j	148e <parse_value+0x182>
    15c2:	000075b7          	lui	a1,0x7
    15c6:	4611                	li	a2,4
    15c8:	8e058593          	addi	a1,a1,-1824 # 68e0 <__malloc_unlock+0x188>
    15cc:	8522                	mv	a0,s0
    15ce:	7eb040ef          	jal	ra,65b8 <strncmp>
    15d2:	d60519e3          	bnez	a0,1344 <parse_value+0x38>
    15d6:	4791                	li	a5,4
    15d8:	b7cd                	j	15ba <parse_value+0x2ae>
    15da:	000077b7          	lui	a5,0x7
    15de:	8b87aa03          	lw	s4,-1864(a5) # 68b8 <__malloc_unlock+0x160>
    15e2:	8bc7aa83          	lw	s5,-1860(a5)
    15e6:	b361                	j	136e <parse_value+0x62>
    15e8:	fcf78793          	addi	a5,a5,-49
    15ec:	0ff7f793          	andi	a5,a5,255
    15f0:	4721                	li	a4,8
    15f2:	4b01                	li	s6,0
    15f4:	4b81                	li	s7,0
    15f6:	d8f765e3          	bltu	a4,a5,1380 <parse_value+0x74>
    15fa:	000077b7          	lui	a5,0x7
    15fe:	8c07ac03          	lw	s8,-1856(a5) # 68c0 <__malloc_unlock+0x168>
    1602:	8c47ac83          	lw	s9,-1852(a5)
    1606:	44a5                	li	s1,9
    1608:	8662                	mv	a2,s8
    160a:	86e6                	mv	a3,s9
    160c:	855a                	mv	a0,s6
    160e:	85de                	mv	a1,s7
    1610:	00b030ef          	jal	ra,4e1a <__muldf3>
    1614:	c02a                	sw	a0,0(sp)
    1616:	00040503          	lb	a0,0(s0)
    161a:	c22e                	sw	a1,4(sp)
    161c:	0405                	addi	s0,s0,1
    161e:	fd050513          	addi	a0,a0,-48
    1622:	456040ef          	jal	ra,5a78 <__floatsidf>
    1626:	4602                	lw	a2,0(sp)
    1628:	4692                	lw	a3,4(sp)
    162a:	257020ef          	jal	ra,4080 <__adddf3>
    162e:	201c                	lbu	a5,0(s0)
    1630:	8b2a                	mv	s6,a0
    1632:	8bae                	mv	s7,a1
    1634:	fd078793          	addi	a5,a5,-48
    1638:	0ff7f793          	andi	a5,a5,255
    163c:	fcf4f6e3          	bgeu	s1,a5,1608 <parse_value+0x2fc>
    1640:	b381                	j	1380 <parse_value+0x74>
    1642:	86be                	mv	a3,a5
    1644:	866e                	mv	a2,s11
    1646:	855a                	mv	a0,s6
    1648:	85de                	mv	a1,s7
    164a:	c43e                	sw	a5,8(sp)
    164c:	7ce030ef          	jal	ra,4e1a <__muldf3>
    1650:	c02a                	sw	a0,0(sp)
    1652:	8526                	mv	a0,s1
    1654:	c22e                	sw	a1,4(sp)
    1656:	422040ef          	jal	ra,5a78 <__floatsidf>
    165a:	4602                	lw	a2,0(sp)
    165c:	4692                	lw	a3,4(sp)
    165e:	0405                	addi	s0,s0,1
    1660:	221020ef          	jal	ra,4080 <__adddf3>
    1664:	8b2a                	mv	s6,a0
    1666:	8bae                	mv	s7,a1
    1668:	8562                	mv	a0,s8
    166a:	85e6                	mv	a1,s9
    166c:	864e                	mv	a2,s3
    166e:	86ea                	mv	a3,s10
    1670:	7aa030ef          	jal	ra,4e1a <__muldf3>
    1674:	8c2a                	mv	s8,a0
    1676:	8cae                	mv	s9,a1
    1678:	4725                	li	a4,9
    167a:	47a2                	lw	a5,8(sp)
    167c:	bb05                	j	13ac <parse_value+0xa0>
    167e:	02d00713          	li	a4,45
    1682:	06e79663          	bne	a5,a4,16ee <parse_value+0x3e2>
    1686:	0409                	addi	s0,s0,2
    1688:	5c7d                	li	s8,-1
    168a:	4481                	li	s1,0
    168c:	4725                	li	a4,9
    168e:	4629                	li	a2,10
    1690:	a029                	j	169a <parse_value+0x38e>
    1692:	02c484b3          	mul	s1,s1,a2
    1696:	0405                	addi	s0,s0,1
    1698:	94be                	add	s1,s1,a5
    169a:	00040783          	lb	a5,0(s0)
    169e:	fd078793          	addi	a5,a5,-48
    16a2:	0ff7f693          	andi	a3,a5,255
    16a6:	fed776e3          	bgeu	a4,a3,1692 <parse_value+0x386>
    16aa:	8652                	mv	a2,s4
    16ac:	86d6                	mv	a3,s5
    16ae:	855a                	mv	a0,s6
    16b0:	85de                	mv	a1,s7
    16b2:	768030ef          	jal	ra,4e1a <__muldf3>
    16b6:	c085                	beqz	s1,16d6 <parse_value+0x3ca>
    16b8:	4785                	li	a5,1
    16ba:	02fc1f63          	bne	s8,a5,16f8 <parse_value+0x3ec>
    16be:	000077b7          	lui	a5,0x7
    16c2:	8c07aa03          	lw	s4,-1856(a5) # 68c0 <__malloc_unlock+0x168>
    16c6:	8c47aa83          	lw	s5,-1852(a5)
    16ca:	8652                	mv	a2,s4
    16cc:	86d6                	mv	a3,s5
    16ce:	14fd                	addi	s1,s1,-1
    16d0:	74a030ef          	jal	ra,4e1a <__muldf3>
    16d4:	f8fd                	bnez	s1,16ca <parse_value+0x3be>
    16d6:	00a92c23          	sw	a0,24(s2)
    16da:	00b92e23          	sw	a1,28(s2)
    16de:	332040ef          	jal	ra,5a10 <__fixdfsi>
    16e2:	47a1                	li	a5,8
    16e4:	00a92a23          	sw	a0,20(s2)
    16e8:	00f92623          	sw	a5,12(s2)
    16ec:	b34d                	j	148e <parse_value+0x182>
    16ee:	0405                	addi	s0,s0,1
    16f0:	b9ed                	j	13ea <parse_value+0xde>
    16f2:	4c05                	li	s8,1
    16f4:	4481                	li	s1,0
    16f6:	bf55                	j	16aa <parse_value+0x39e>
    16f8:	000077b7          	lui	a5,0x7
    16fc:	8c87aa03          	lw	s4,-1848(a5) # 68c8 <__malloc_unlock+0x170>
    1700:	8cc7aa83          	lw	s5,-1844(a5)
    1704:	b7d9                	j	16ca <parse_value+0x3be>

00001706 <cJSON_InitHooks>:
    1706:	c519                	beqz	a0,1714 <cJSON_InitHooks+0xe>
    1708:	4118                	lw	a4,0(a0)
    170a:	80e1a623          	sw	a4,-2036(gp) # 20000214 <cJSON_malloc>
    170e:	4158                	lw	a4,4(a0)
    1710:	80e1a423          	sw	a4,-2040(gp) # 20000210 <cJSON_free>
    1714:	8082                	ret

00001716 <cJSON_Delete>:
    1716:	c905                	beqz	a0,1746 <cJSON_Delete+0x30>
    1718:	ad9fe2ef          	jal	t0,1f0 <__riscv_save_0>
    171c:	842a                	mv	s0,a0
    171e:	4408                	lw	a0,8(s0)
    1720:	4004                	lw	s1,0(s0)
    1722:	c111                	beqz	a0,1726 <cJSON_Delete+0x10>
    1724:	3fcd                	jal	1716 <cJSON_Delete>
    1726:	4808                	lw	a0,16(s0)
    1728:	c511                	beqz	a0,1734 <cJSON_Delete+0x1e>
    172a:	445c                	lw	a5,12(s0)
    172c:	2007f793          	andi	a5,a5,512
    1730:	e391                	bnez	a5,1734 <cJSON_Delete+0x1e>
    1732:	3c75                	jal	11ee <internal_free>
    1734:	5008                	lw	a0,32(s0)
    1736:	c111                	beqz	a0,173a <cJSON_Delete+0x24>
    1738:	3c5d                	jal	11ee <internal_free>
    173a:	8522                	mv	a0,s0
    173c:	3c4d                	jal	11ee <internal_free>
    173e:	8426                	mv	s0,s1
    1740:	fcf9                	bnez	s1,171e <cJSON_Delete+0x8>
    1742:	ad3fe06f          	j	214 <__riscv_restore_0>
    1746:	8082                	ret

00001748 <cJSON_Parse>:
    1748:	aa9fe2ef          	jal	t0,1f0 <__riscv_save_0>
    174c:	e509                	bnez	a0,1756 <cJSON_Parse+0xe>
    174e:	4401                	li	s0,0
    1750:	8522                	mv	a0,s0
    1752:	ac3fe06f          	j	214 <__riscv_restore_0>
    1756:	84aa                	mv	s1,a0
    1758:	02800513          	li	a0,40
    175c:	8401a823          	sw	zero,-1968(gp) # 20000258 <ep>
    1760:	a81ff0ef          	jal	ra,11e0 <internal_malloc>
    1764:	842a                	mv	s0,a0
    1766:	d565                	beqz	a0,174e <cJSON_Parse+0x6>
    1768:	02800613          	li	a2,40
    176c:	4581                	li	a1,0
    176e:	ab3fe0ef          	jal	ra,220 <memset>
    1772:	8526                	mv	a0,s1
    1774:	3649                	jal	12f6 <skip>
    1776:	85aa                	mv	a1,a0
    1778:	8522                	mv	a0,s0
    177a:	3e49                	jal	130c <parse_value>
    177c:	3ead                	jal	12f6 <skip>
    177e:	c501                	beqz	a0,1786 <cJSON_Parse+0x3e>
    1780:	00050783          	lb	a5,0(a0)
    1784:	d7f1                	beqz	a5,1750 <cJSON_Parse+0x8>
    1786:	8522                	mv	a0,s0
    1788:	3779                	jal	1716 <cJSON_Delete>
    178a:	b7d1                	j	174e <cJSON_Parse+0x6>

0000178c <cJSON_GetObjectItem>:
    178c:	a4bfe2ef          	jal	t0,1d6 <__riscv_save_4>
    1790:	e509                	bnez	a0,179a <cJSON_GetObjectItem+0xe>
    1792:	4481                	li	s1,0
    1794:	8526                	mv	a0,s1
    1796:	a75fe06f          	j	20a <__riscv_restore_4>
    179a:	dde5                	beqz	a1,1792 <cJSON_GetObjectItem+0x6>
    179c:	4504                	lw	s1,8(a0)
    179e:	8a2e                	mv	s4,a1
    17a0:	4985                	li	s3,1
    17a2:	d8e5                	beqz	s1,1792 <cJSON_GetObjectItem+0x6>
    17a4:	0204aa83          	lw	s5,32(s1)
    17a8:	8b52                	mv	s6,s4
    17aa:	000a9763          	bnez	s5,17b8 <cJSON_GetObjectItem+0x2c>
    17ae:	4084                	lw	s1,0(s1)
    17b0:	bfcd                	j	17a2 <cJSON_GetObjectItem+0x16>
    17b2:	d06d                	beqz	s0,1794 <cJSON_GetObjectItem+0x8>
    17b4:	0a85                	addi	s5,s5,1
    17b6:	0b05                	addi	s6,s6,1
    17b8:	000ac903          	lbu	s2,0(s5)
    17bc:	349040ef          	jal	ra,6304 <__locale_ctype_ptr>
    17c0:	954a                	add	a0,a0,s2
    17c2:	311c                	lbu	a5,1(a0)
    17c4:	8b8d                	andi	a5,a5,3
    17c6:	01379463          	bne	a5,s3,17ce <cJSON_GetObjectItem+0x42>
    17ca:	02090913          	addi	s2,s2,32
    17ce:	000b4403          	lbu	s0,0(s6)
    17d2:	333040ef          	jal	ra,6304 <__locale_ctype_ptr>
    17d6:	9522                	add	a0,a0,s0
    17d8:	3118                	lbu	a4,1(a0)
    17da:	87a2                	mv	a5,s0
    17dc:	8b0d                	andi	a4,a4,3
    17de:	01371463          	bne	a4,s3,17e6 <cJSON_GetObjectItem+0x5a>
    17e2:	02040793          	addi	a5,s0,32
    17e6:	000a8403          	lb	s0,0(s5)
    17ea:	fcf904e3          	beq	s2,a5,17b2 <cJSON_GetObjectItem+0x26>
    17ee:	317040ef          	jal	ra,6304 <__locale_ctype_ptr>
    17f2:	0ff47413          	andi	s0,s0,255
    17f6:	9522                	add	a0,a0,s0
    17f8:	311c                	lbu	a5,1(a0)
    17fa:	8b8d                	andi	a5,a5,3
    17fc:	01379463          	bne	a5,s3,1804 <cJSON_GetObjectItem+0x78>
    1800:	02040413          	addi	s0,s0,32
    1804:	000b4903          	lbu	s2,0(s6)
    1808:	2fd040ef          	jal	ra,6304 <__locale_ctype_ptr>
    180c:	954a                	add	a0,a0,s2
    180e:	3118                	lbu	a4,1(a0)
    1810:	87ca                	mv	a5,s2
    1812:	8b0d                	andi	a4,a4,3
    1814:	01371463          	bne	a4,s3,181c <cJSON_GetObjectItem+0x90>
    1818:	02090793          	addi	a5,s2,32
    181c:	f8f419e3          	bne	s0,a5,17ae <cJSON_GetObjectItem+0x22>
    1820:	bf95                	j	1794 <cJSON_GetObjectItem+0x8>

00001822 <USBFS_RCC_Init>:
    1822:	9cffe2ef          	jal	t0,1f0 <__riscv_save_0>
    1826:	200007b7          	lui	a5,0x20000
    182a:	2087a703          	lw	a4,520(a5) # 20000208 <SystemCoreClock>
    182e:	089547b7          	lui	a5,0x8954
    1832:	40078793          	addi	a5,a5,1024 # 8954400 <_data_lma+0x894d194>
    1836:	4509                	li	a0,2
    1838:	02f70063          	beq	a4,a5,1858 <USBFS_RCC_Init+0x36>
    183c:	05b8e7b7          	lui	a5,0x5b8e
    1840:	80078793          	addi	a5,a5,-2048 # 5b8d800 <_data_lma+0x5b86594>
    1844:	4505                	li	a0,1
    1846:	00f70963          	beq	a4,a5,1858 <USBFS_RCC_Init+0x36>
    184a:	02dc77b7          	lui	a5,0x2dc7
    184e:	c0078793          	addi	a5,a5,-1024 # 2dc6c00 <_data_lma+0x2dbf994>
    1852:	00f71563          	bne	a4,a5,185c <USBFS_RCC_Init+0x3a>
    1856:	4501                	li	a0,0
    1858:	805ff0ef          	jal	ra,105c <RCC_USBFSCLKConfig>
    185c:	4585                	li	a1,1
    185e:	6505                	lui	a0,0x1
    1860:	f66ff0ef          	jal	ra,fc6 <RCC_AHBPeriphClockCmd>
    1864:	9b1fe06f          	j	214 <__riscv_restore_0>

00001868 <USBFS_Device_Endp_Init>:
    1868:	500007b7          	lui	a5,0x50000
    186c:	04000713          	li	a4,64
    1870:	a7d8                	sb	a4,12(a5)
    1872:	04800713          	li	a4,72
    1876:	b7d8                	sb	a4,13(a5)
    1878:	89c18713          	addi	a4,gp,-1892 # 200002a4 <USBFS_EP0_Buf>
    187c:	cb98                	sw	a4,16(a5)
    187e:	8dc18713          	addi	a4,gp,-1828 # 200002e4 <USBFS_EP1_Buf>
    1882:	cbd8                	sw	a4,20(a5)
    1884:	91c18713          	addi	a4,gp,-1764 # 20000324 <USBFS_EP2_Buf>
    1888:	cf98                	sw	a4,24(a5)
    188a:	95c18713          	addi	a4,gp,-1700 # 20000364 <USBFS_EP3_Buf>
    188e:	cfd8                	sw	a4,28(a5)
    1890:	020789a3          	sb	zero,51(a5) # 50000033 <_eusrstack+0x2fff8033>
    1894:	02078da3          	sb	zero,59(a5)
    1898:	02079a23          	sh	zero,52(a5)
    189c:	02079e23          	sh	zero,60(a5)
    18a0:	4709                	li	a4,2
    18a2:	02e78923          	sb	a4,50(a5)
    18a6:	02e78b23          	sb	a4,54(a5)
    18aa:	02e78f23          	sb	a4,62(a5)
    18ae:	85818793          	addi	a5,gp,-1960 # 20000260 <USBFS_Endp_Busy>
    18b2:	00078023          	sb	zero,0(a5)
    18b6:	000780a3          	sb	zero,1(a5)
    18ba:	00078123          	sb	zero,2(a5)
    18be:	000781a3          	sb	zero,3(a5)
    18c2:	00078223          	sb	zero,4(a5)
    18c6:	000782a3          	sb	zero,5(a5)
    18ca:	00078323          	sb	zero,6(a5)
    18ce:	000783a3          	sb	zero,7(a5)
    18d2:	8082                	ret

000018d4 <USBFS_Device_Init>:
    18d4:	91dfe2ef          	jal	t0,1f0 <__riscv_save_0>
    18d8:	50000437          	lui	s0,0x50000
    18dc:	4799                	li	a5,6
    18de:	a01c                	sb	a5,0(s0)
    18e0:	c51d                	beqz	a0,190e <USBFS_Device_Init+0x3a>
    18e2:	4529                	li	a0,10
    18e4:	726010ef          	jal	ra,300a <Delay_Us>
    18e8:	479d                	li	a5,7
    18ea:	00040023          	sb	zero,0(s0) # 50000000 <_eusrstack+0x2fff8000>
    18ee:	a03c                	sb	a5,2(s0)
    18f0:	02900793          	li	a5,41
    18f4:	a01c                	sb	a5,0(s0)
    18f6:	3f8d                	jal	1868 <USBFS_Device_Endp_Init>
    18f8:	f8100793          	li	a5,-127
    18fc:	b01c                	sb	a5,1(s0)
    18fe:	00080737          	lui	a4,0x80
    1902:	e000e7b7          	lui	a5,0xe000e
    1906:	10e7a423          	sw	a4,264(a5) # e000e108 <_eusrstack+0xc0006108>
    190a:	90bfe06f          	j	214 <__riscv_restore_0>
    190e:	4529                	li	a0,10
    1910:	6fa010ef          	jal	ra,300a <Delay_Us>
    1914:	e000e7b7          	lui	a5,0xe000e
    1918:	00040023          	sb	zero,0(s0)
    191c:	00080737          	lui	a4,0x80
    1920:	18e7a423          	sw	a4,392(a5) # e000e188 <_eusrstack+0xc0006188>
    1924:	0000100f          	fence.i
    1928:	b7cd                	j	190a <USBFS_Device_Init+0x36>

0000192a <USBFS_IRQHandler>:
    192a:	1101                	addi	sp,sp,-32
    192c:	ce22                	sw	s0,28(sp)
    192e:	cc26                	sw	s1,24(sp)
    1930:	ca4a                	sw	s2,20(sp)
    1932:	c84e                	sw	s3,16(sp)
    1934:	c652                	sw	s4,12(sp)
    1936:	c456                	sw	s5,8(sp)
    1938:	50000437          	lui	s0,0x50000
    193c:	2078                	lbu	a4,6(s0)
    193e:	307c                	lbu	a5,7(s0)
    1940:	0ff77713          	andi	a4,a4,255
    1944:	00277693          	andi	a3,a4,2
    1948:	56068763          	beqz	a3,1eb6 <USBFS_IRQHandler+0x58c>
    194c:	0ff7f793          	andi	a5,a5,255
    1950:	0307f713          	andi	a4,a5,48
    1954:	02000593          	li	a1,32
    1958:	02b70963          	beq	a4,a1,198a <USBFS_IRQHandler+0x60>
    195c:	03000693          	li	a3,48
    1960:	18d70263          	beq	a4,a3,1ae4 <USBFS_IRQHandler+0x1ba>
    1964:	eb61                	bnez	a4,1a34 <USBFS_IRQHandler+0x10a>
    1966:	03f7f713          	andi	a4,a5,63
    196a:	12070863          	beqz	a4,1a9a <USBFS_IRQHandler+0x170>
    196e:	4789                	li	a5,2
    1970:	0cf71263          	bne	a4,a5,1a34 <USBFS_IRQHandler+0x10a>
    1974:	03b44783          	lbu	a5,59(s0) # 5000003b <_eusrstack+0x2fff803b>
    1978:	0047c793          	xori	a5,a5,4
    197c:	02f40da3          	sb	a5,59(s0)
    1980:	85818793          	addi	a5,gp,-1960 # 20000260 <USBFS_Endp_Busy>
    1984:	00078123          	sb	zero,2(a5)
    1988:	a075                	j	1a34 <USBFS_IRQHandler+0x10a>
    198a:	03f7f793          	andi	a5,a5,63
    198e:	02100693          	li	a3,33
    1992:	0ad78e63          	beq	a5,a3,1a4e <USBFS_IRQHandler+0x124>
    1996:	02300693          	li	a3,35
    199a:	0cd78d63          	beq	a5,a3,1a74 <USBFS_IRQHandler+0x14a>
    199e:	08e79b63          	bne	a5,a4,1a34 <USBFS_IRQHandler+0x10a>
    19a2:	86418793          	addi	a5,gp,-1948 # 2000026c <USBFS_SetupReqLen>
    19a6:	239e                	lhu	a5,0(a5)
    19a8:	86418493          	addi	s1,gp,-1948 # 2000026c <USBFS_SetupReqLen>
    19ac:	07c2                	slli	a5,a5,0x10
    19ae:	83c1                	srli	a5,a5,0x10
    19b0:	e781                	bnez	a5,19b8 <USBFS_IRQHandler+0x8e>
    19b2:	4791                	li	a5,4
    19b4:	02f409a3          	sb	a5,51(s0)
    19b8:	8661c783          	lbu	a5,-1946(gp) # 2000026e <USBFS_SetupReqType>
    19bc:	0607f793          	andi	a5,a5,96
    19c0:	ebb5                	bnez	a5,1a34 <USBFS_IRQHandler+0x10a>
    19c2:	8601c783          	lbu	a5,-1952(gp) # 20000268 <USBFS_SetupReqCode>
    19c6:	4715                	li	a4,5
    19c8:	0ff7f793          	andi	a5,a5,255
    19cc:	04e78b63          	beq	a5,a4,1a22 <USBFS_IRQHandler+0xf8>
    19d0:	4719                	li	a4,6
    19d2:	06e79163          	bne	a5,a4,1a34 <USBFS_IRQHandler+0x10a>
    19d6:	209e                	lhu	a5,0(s1)
    19d8:	03f00713          	li	a4,63
    19dc:	04000413          	li	s0,64
    19e0:	00f76563          	bltu	a4,a5,19ea <USBFS_IRQHandler+0xc0>
    19e4:	2082                	lhu	s0,0(s1)
    19e6:	0442                	slli	s0,s0,0x10
    19e8:	8041                	srli	s0,s0,0x10
    19ea:	86c18913          	addi	s2,gp,-1940 # 20000274 <pUSBFS_Descr>
    19ee:	00092983          	lw	s3,0(s2)
    19f2:	8622                	mv	a2,s0
    19f4:	85ce                	mv	a1,s3
    19f6:	89c18513          	addi	a0,gp,-1892 # 200002a4 <USBFS_EP0_Buf>
    19fa:	169040ef          	jal	ra,6362 <memcpy>
    19fe:	209e                	lhu	a5,0(s1)
    1a00:	99a2                	add	s3,s3,s0
    1a02:	01392023          	sw	s3,0(s2)
    1a06:	8f81                	sub	a5,a5,s0
    1a08:	07c2                	slli	a5,a5,0x10
    1a0a:	83c1                	srli	a5,a5,0x10
    1a0c:	a09e                	sh	a5,0(s1)
    1a0e:	500007b7          	lui	a5,0x50000
    1a12:	bb82                	sh	s0,48(a5)
    1a14:	0327c703          	lbu	a4,50(a5) # 50000032 <_eusrstack+0x2fff8032>
    1a18:	00474713          	xori	a4,a4,4
    1a1c:	02e78923          	sb	a4,50(a5)
    1a20:	a811                	j	1a34 <USBFS_IRQHandler+0x10a>
    1a22:	50000737          	lui	a4,0x50000
    1a26:	333c                	lbu	a5,3(a4)
    1a28:	8541c683          	lbu	a3,-1964(gp) # 2000025c <USBFS_DevAddr>
    1a2c:	0807f793          	andi	a5,a5,128
    1a30:	8fd5                	or	a5,a5,a3
    1a32:	b33c                	sb	a5,3(a4)
    1a34:	500007b7          	lui	a5,0x50000
    1a38:	4709                	li	a4,2
    1a3a:	a3f8                	sb	a4,6(a5)
    1a3c:	4472                	lw	s0,28(sp)
    1a3e:	44e2                	lw	s1,24(sp)
    1a40:	4952                	lw	s2,20(sp)
    1a42:	49c2                	lw	s3,16(sp)
    1a44:	4a32                	lw	s4,12(sp)
    1a46:	4aa2                	lw	s5,8(sp)
    1a48:	6105                	addi	sp,sp,32
    1a4a:	30200073          	mret
    1a4e:	03644783          	lbu	a5,54(s0)
    1a52:	0047c793          	xori	a5,a5,4
    1a56:	02f40b23          	sb	a5,54(s0)
    1a5a:	03644783          	lbu	a5,54(s0)
    1a5e:	0fc7f793          	andi	a5,a5,252
    1a62:	0027e793          	ori	a5,a5,2
    1a66:	02f40b23          	sb	a5,54(s0)
    1a6a:	85818793          	addi	a5,gp,-1960 # 20000260 <USBFS_Endp_Busy>
    1a6e:	000780a3          	sb	zero,1(a5) # 50000001 <_eusrstack+0x2fff8001>
    1a72:	b7c9                	j	1a34 <USBFS_IRQHandler+0x10a>
    1a74:	03e44783          	lbu	a5,62(s0)
    1a78:	0047c793          	xori	a5,a5,4
    1a7c:	02f40f23          	sb	a5,62(s0)
    1a80:	03e44783          	lbu	a5,62(s0)
    1a84:	0fc7f793          	andi	a5,a5,252
    1a88:	0027e793          	ori	a5,a5,2
    1a8c:	02f40f23          	sb	a5,62(s0)
    1a90:	85818793          	addi	a5,gp,-1960 # 20000260 <USBFS_Endp_Busy>
    1a94:	000781a3          	sb	zero,3(a5)
    1a98:	bf71                	j	1a34 <USBFS_IRQHandler+0x10a>
    1a9a:	241a                	lhu	a4,8(s0)
    1a9c:	0407f793          	andi	a5,a5,64
    1aa0:	dbd1                	beqz	a5,1a34 <USBFS_IRQHandler+0x10a>
    1aa2:	8661c783          	lbu	a5,-1946(gp) # 2000026e <USBFS_SetupReqType>
    1aa6:	86418693          	addi	a3,gp,-1948 # 2000026c <USBFS_SetupReqLen>
    1aaa:	0607f793          	andi	a5,a5,96
    1aae:	c38d                	beqz	a5,1ad0 <USBFS_IRQHandler+0x1a6>
    1ab0:	00069023          	sh	zero,0(a3) # ff400000 <_eusrstack+0xdf3f8000>
    1ab4:	8601c783          	lbu	a5,-1952(gp) # 20000268 <USBFS_SetupReqCode>
    1ab8:	00f59c63          	bne	a1,a5,1ad0 <USBFS_IRQHandler+0x1a6>
    1abc:	89c18713          	addi	a4,gp,-1892 # 200002a4 <USBFS_EP0_Buf>
    1ac0:	2370                	lbu	a2,6(a4)
    1ac2:	430c                	lw	a1,0(a4)
    1ac4:	235a                	lhu	a4,4(a4)
    1ac6:	81018793          	addi	a5,gp,-2032 # 20000218 <LineCoding>
    1aca:	c38c                	sw	a1,0(a5)
    1acc:	a3da                	sh	a4,4(a5)
    1ace:	a3f0                	sb	a2,6(a5)
    1ad0:	229e                	lhu	a5,0(a3)
    1ad2:	07c2                	slli	a5,a5,0x10
    1ad4:	83c1                	srli	a5,a5,0x10
    1ad6:	ffb9                	bnez	a5,1a34 <USBFS_IRQHandler+0x10a>
    1ad8:	500007b7          	lui	a5,0x50000
    1adc:	02079823          	sh	zero,48(a5) # 50000030 <_eusrstack+0x2fff8030>
    1ae0:	4711                	li	a4,4
    1ae2:	bf2d                	j	1a1c <USBFS_IRQHandler+0xf2>
    1ae4:	4799                	li	a5,6
    1ae6:	02f40923          	sb	a5,50(s0)
    1aea:	02f409a3          	sb	a5,51(s0)
    1aee:	89c18693          	addi	a3,gp,-1892 # 200002a4 <USBFS_EP0_Buf>
    1af2:	229c                	lbu	a5,0(a3)
    1af4:	86618613          	addi	a2,gp,-1946 # 2000026e <USBFS_SetupReqType>
    1af8:	a21c                	sb	a5,0(a2)
    1afa:	329c                	lbu	a5,1(a3)
    1afc:	0066d803          	lhu	a6,6(a3)
    1b00:	86018713          	addi	a4,gp,-1952 # 20000268 <USBFS_SetupReqCode>
    1b04:	a31c                	sb	a5,0(a4)
    1b06:	0026d883          	lhu	a7,2(a3)
    1b0a:	86418793          	addi	a5,gp,-1948 # 2000026c <USBFS_SetupReqLen>
    1b0e:	01079023          	sh	a6,0(a5)
    1b12:	86818813          	addi	a6,gp,-1944 # 20000270 <USBFS_SetupReqValue>
    1b16:	01181023          	sh	a7,0(a6)
    1b1a:	0046d883          	lhu	a7,4(a3)
    1b1e:	86218813          	addi	a6,gp,-1950 # 2000026a <USBFS_SetupReqIndex>
    1b22:	01181023          	sh	a7,0(a6)
    1b26:	00064803          	lbu	a6,0(a2) # 40021000 <_eusrstack+0x20019000>
    1b2a:	86418913          	addi	s2,gp,-1948 # 2000026c <USBFS_SetupReqLen>
    1b2e:	86618993          	addi	s3,gp,-1946 # 2000026e <USBFS_SetupReqType>
    1b32:	06087813          	andi	a6,a6,96
    1b36:	89c18613          	addi	a2,gp,-1892 # 200002a4 <USBFS_EP0_Buf>
    1b3a:	86818793          	addi	a5,gp,-1944 # 20000270 <USBFS_SetupReqValue>
    1b3e:	86218693          	addi	a3,gp,-1950 # 2000026a <USBFS_SetupReqIndex>
    1b42:	0a080263          	beqz	a6,1be6 <USBFS_IRQHandler+0x2bc>
    1b46:	0009c783          	lbu	a5,0(s3)
    1b4a:	86c18493          	addi	s1,gp,-1940 # 20000274 <pUSBFS_Descr>
    1b4e:	0207f793          	andi	a5,a5,32
    1b52:	cfbd                	beqz	a5,1bd0 <USBFS_IRQHandler+0x2a6>
    1b54:	231c                	lbu	a5,0(a4)
    1b56:	02100713          	li	a4,33
    1b5a:	0ff7f793          	andi	a5,a5,255
    1b5e:	06e78563          	beq	a5,a4,1bc8 <USBFS_IRQHandler+0x29e>
    1b62:	04f76b63          	bltu	a4,a5,1bb8 <USBFS_IRQHandler+0x28e>
    1b66:	4401                	li	s0,0
    1b68:	00b78463          	beq	a5,a1,1b70 <USBFS_IRQHandler+0x246>
    1b6c:	0ff00413          	li	s0,255
    1b70:	00095783          	lhu	a5,0(s2)
    1b74:	03f00713          	li	a4,63
    1b78:	04000a13          	li	s4,64
    1b7c:	00f76763          	bltu	a4,a5,1b8a <USBFS_IRQHandler+0x260>
    1b80:	00095a03          	lhu	s4,0(s2)
    1b84:	0a42                	slli	s4,s4,0x10
    1b86:	010a5a13          	srli	s4,s4,0x10
    1b8a:	0004aa83          	lw	s5,0(s1)
    1b8e:	8652                	mv	a2,s4
    1b90:	89c18513          	addi	a0,gp,-1892 # 200002a4 <USBFS_EP0_Buf>
    1b94:	85d6                	mv	a1,s5
    1b96:	9a56                	add	s4,s4,s5
    1b98:	7ca040ef          	jal	ra,6362 <memcpy>
    1b9c:	0144a023          	sw	s4,0(s1)
    1ba0:	0ff00793          	li	a5,255
    1ba4:	10f41363          	bne	s0,a5,1caa <USBFS_IRQHandler+0x380>
    1ba8:	500007b7          	lui	a5,0x50000
    1bac:	471d                	li	a4,7
    1bae:	02e78923          	sb	a4,50(a5) # 50000032 <_eusrstack+0x2fff8032>
    1bb2:	02e789a3          	sb	a4,51(a5)
    1bb6:	bdbd                	j	1a34 <USBFS_IRQHandler+0x10a>
    1bb8:	02300713          	li	a4,35
    1bbc:	0ff00413          	li	s0,255
    1bc0:	faf768e3          	bltu	a4,a5,1b70 <USBFS_IRQHandler+0x246>
    1bc4:	4401                	li	s0,0
    1bc6:	b76d                	j	1b70 <USBFS_IRQHandler+0x246>
    1bc8:	81018793          	addi	a5,gp,-2032 # 20000218 <LineCoding>
    1bcc:	c09c                	sw	a5,0(s1)
    1bce:	bfdd                	j	1bc4 <USBFS_IRQHandler+0x29a>
    1bd0:	0009c403          	lbu	s0,0(s3)
    1bd4:	8019                	srli	s0,s0,0x6
    1bd6:	00144413          	xori	s0,s0,1
    1bda:	8805                	andi	s0,s0,1
    1bdc:	40800433          	neg	s0,s0
    1be0:	0ff47413          	andi	s0,s0,255
    1be4:	b771                	j	1b70 <USBFS_IRQHandler+0x246>
    1be6:	2318                	lbu	a4,0(a4)
    1be8:	45ad                	li	a1,11
    1bea:	0ff77713          	andi	a4,a4,255
    1bee:	fae5ede3          	bltu	a1,a4,1ba8 <USBFS_IRQHandler+0x27e>
    1bf2:	659d                	lui	a1,0x7
    1bf4:	070a                	slli	a4,a4,0x2
    1bf6:	8e858593          	addi	a1,a1,-1816 # 68e8 <__malloc_unlock+0x190>
    1bfa:	972e                	add	a4,a4,a1
    1bfc:	4318                	lw	a4,0(a4)
    1bfe:	8702                	jr	a4
    1c00:	239a                	lhu	a4,0(a5)
    1c02:	4689                	li	a3,2
    1c04:	8321                	srli	a4,a4,0x8
    1c06:	86c18493          	addi	s1,gp,-1940 # 20000274 <pUSBFS_Descr>
    1c0a:	02d70663          	beq	a4,a3,1c36 <USBFS_IRQHandler+0x30c>
    1c0e:	460d                	li	a2,3
    1c10:	02c70e63          	beq	a4,a2,1c4c <USBFS_IRQHandler+0x322>
    1c14:	4785                	li	a5,1
    1c16:	04f71663          	bne	a4,a5,1c62 <USBFS_IRQHandler+0x338>
    1c1a:	679d                	lui	a5,0x7
    1c1c:	efc78713          	addi	a4,a5,-260 # 6efc <MyDevDescr>
    1c20:	efc7c783          	lbu	a5,-260(a5)
    1c24:	c098                	sw	a4,0(s1)
    1c26:	4401                	li	s0,0
    1c28:	00095703          	lhu	a4,0(s2)
    1c2c:	f4e7f2e3          	bgeu	a5,a4,1b70 <USBFS_IRQHandler+0x246>
    1c30:	00f91023          	sh	a5,0(s2)
    1c34:	bf35                	j	1b70 <USBFS_IRQHandler+0x246>
    1c36:	671d                	lui	a4,0x7
    1c38:	eb870713          	addi	a4,a4,-328 # 6eb8 <MyCfgDescr>
    1c3c:	333c                	lbu	a5,3(a4)
    1c3e:	c098                	sw	a4,0(s1)
    1c40:	2338                	lbu	a4,2(a4)
    1c42:	07a2                	slli	a5,a5,0x8
    1c44:	97ba                	add	a5,a5,a4
    1c46:	07c2                	slli	a5,a5,0x10
    1c48:	83c1                	srli	a5,a5,0x10
    1c4a:	bff1                	j	1c26 <USBFS_IRQHandler+0x2fc>
    1c4c:	239e                	lhu	a5,0(a5)
    1c4e:	4605                	li	a2,1
    1c50:	0ff7f793          	andi	a5,a5,255
    1c54:	02c78163          	beq	a5,a2,1c76 <USBFS_IRQHandler+0x34c>
    1c58:	cb89                	beqz	a5,1c6a <USBFS_IRQHandler+0x340>
    1c5a:	02d78563          	beq	a5,a3,1c84 <USBFS_IRQHandler+0x35a>
    1c5e:	02e78a63          	beq	a5,a4,1c92 <USBFS_IRQHandler+0x368>
    1c62:	4781                	li	a5,0
    1c64:	0ff00413          	li	s0,255
    1c68:	b7c1                	j	1c28 <USBFS_IRQHandler+0x2fe>
    1c6a:	82018713          	addi	a4,gp,-2016 # 20000228 <MyLangDescr>
    1c6e:	c098                	sw	a4,0(s1)
    1c70:	8201c783          	lbu	a5,-2016(gp) # 20000228 <MyLangDescr>
    1c74:	bf4d                	j	1c26 <USBFS_IRQHandler+0x2fc>
    1c76:	679d                	lui	a5,0x7
    1c78:	f1078713          	addi	a4,a5,-240 # 6f10 <MyManuInfo>
    1c7c:	c098                	sw	a4,0(s1)
    1c7e:	f107c783          	lbu	a5,-240(a5)
    1c82:	b755                	j	1c26 <USBFS_IRQHandler+0x2fc>
    1c84:	679d                	lui	a5,0x7
    1c86:	f2078713          	addi	a4,a5,-224 # 6f20 <MyProdInfo>
    1c8a:	c098                	sw	a4,0(s1)
    1c8c:	f207c783          	lbu	a5,-224(a5)
    1c90:	bf59                	j	1c26 <USBFS_IRQHandler+0x2fc>
    1c92:	679d                	lui	a5,0x7
    1c94:	f3878713          	addi	a4,a5,-200 # 6f38 <MySerNumInfo>
    1c98:	c098                	sw	a4,0(s1)
    1c9a:	f387c783          	lbu	a5,-200(a5)
    1c9e:	b761                	j	1c26 <USBFS_IRQHandler+0x2fc>
    1ca0:	239e                	lhu	a5,0(a5)
    1ca2:	0ff7f793          	andi	a5,a5,255
    1ca6:	84f18a23          	sb	a5,-1964(gp) # 2000025c <USBFS_DevAddr>
    1caa:	0009c783          	lbu	a5,0(s3)
    1cae:	07e2                	slli	a5,a5,0x18
    1cb0:	87e1                	srai	a5,a5,0x18
    1cb2:	1e07d863          	bgez	a5,1ea2 <USBFS_IRQHandler+0x578>
    1cb6:	00095703          	lhu	a4,0(s2)
    1cba:	04000793          	li	a5,64
    1cbe:	00e7e663          	bltu	a5,a4,1cca <USBFS_IRQHandler+0x3a0>
    1cc2:	00095783          	lhu	a5,0(s2)
    1cc6:	07c2                	slli	a5,a5,0x10
    1cc8:	83c1                	srli	a5,a5,0x10
    1cca:	00095703          	lhu	a4,0(s2)
    1cce:	8f1d                	sub	a4,a4,a5
    1cd0:	0742                	slli	a4,a4,0x10
    1cd2:	8341                	srli	a4,a4,0x10
    1cd4:	00e91023          	sh	a4,0(s2)
    1cd8:	50000737          	lui	a4,0x50000
    1cdc:	bb1e                	sh	a5,48(a4)
    1cde:	4791                	li	a5,4
    1ce0:	02f70923          	sb	a5,50(a4) # 50000032 <_eusrstack+0x2fff8032>
    1ce4:	bb81                	j	1a34 <USBFS_IRQHandler+0x10a>
    1ce6:	8551c783          	lbu	a5,-1963(gp) # 2000025d <USBFS_DevConfig>
    1cea:	a21c                	sb	a5,0(a2)
    1cec:	00095703          	lhu	a4,0(s2)
    1cf0:	4785                	li	a5,1
    1cf2:	fae7fce3          	bgeu	a5,a4,1caa <USBFS_IRQHandler+0x380>
    1cf6:	00f91023          	sh	a5,0(s2)
    1cfa:	bf45                	j	1caa <USBFS_IRQHandler+0x380>
    1cfc:	239e                	lhu	a5,0(a5)
    1cfe:	0ff7f793          	andi	a5,a5,255
    1d02:	84f18aa3          	sb	a5,-1963(gp) # 2000025d <USBFS_DevConfig>
    1d06:	4705                	li	a4,1
    1d08:	84e18b23          	sb	a4,-1962(gp) # 2000025e <USBFS_DevEnumStatus>
    1d0c:	bf79                	j	1caa <USBFS_IRQHandler+0x380>
    1d0e:	0009c703          	lbu	a4,0(s3)
    1d12:	8b7d                	andi	a4,a4,31
    1d14:	ef11                	bnez	a4,1d30 <USBFS_IRQHandler+0x406>
    1d16:	239e                	lhu	a5,0(a5)
    1d18:	4705                	li	a4,1
    1d1a:	0ff7f793          	andi	a5,a5,255
    1d1e:	f8e796e3          	bne	a5,a4,1caa <USBFS_IRQHandler+0x380>
    1d22:	85718793          	addi	a5,gp,-1961 # 2000025f <USBFS_DevSleepStatus>
    1d26:	2398                	lbu	a4,0(a5)
    1d28:	0fe77713          	andi	a4,a4,254
    1d2c:	a398                	sb	a4,0(a5)
    1d2e:	bfb5                	j	1caa <USBFS_IRQHandler+0x380>
    1d30:	0009c703          	lbu	a4,0(s3)
    1d34:	4609                	li	a2,2
    1d36:	8b7d                	andi	a4,a4,31
    1d38:	e6c718e3          	bne	a4,a2,1ba8 <USBFS_IRQHandler+0x27e>
    1d3c:	239e                	lhu	a5,0(a5)
    1d3e:	0ff7f793          	andi	a5,a5,255
    1d42:	e60793e3          	bnez	a5,1ba8 <USBFS_IRQHandler+0x27e>
    1d46:	229e                	lhu	a5,0(a3)
    1d48:	08100693          	li	a3,129
    1d4c:	0ff7f793          	andi	a5,a5,255
    1d50:	00d78d63          	beq	a5,a3,1d6a <USBFS_IRQHandler+0x440>
    1d54:	08300693          	li	a3,131
    1d58:	00d78e63          	beq	a5,a3,1d74 <USBFS_IRQHandler+0x44a>
    1d5c:	e4e796e3          	bne	a5,a4,1ba8 <USBFS_IRQHandler+0x27e>
    1d60:	500007b7          	lui	a5,0x50000
    1d64:	02078da3          	sb	zero,59(a5) # 5000003b <_eusrstack+0x2fff803b>
    1d68:	b789                	j	1caa <USBFS_IRQHandler+0x380>
    1d6a:	500007b7          	lui	a5,0x50000
    1d6e:	02e78b23          	sb	a4,54(a5) # 50000036 <_eusrstack+0x2fff8036>
    1d72:	bf25                	j	1caa <USBFS_IRQHandler+0x380>
    1d74:	500007b7          	lui	a5,0x50000
    1d78:	02e78f23          	sb	a4,62(a5) # 5000003e <_eusrstack+0x2fff803e>
    1d7c:	b73d                	j	1caa <USBFS_IRQHandler+0x380>
    1d7e:	0009c703          	lbu	a4,0(s3)
    1d82:	8b7d                	andi	a4,a4,31
    1d84:	e705                	bnez	a4,1dac <USBFS_IRQHandler+0x482>
    1d86:	239e                	lhu	a5,0(a5)
    1d88:	4705                	li	a4,1
    1d8a:	0ff7f793          	andi	a5,a5,255
    1d8e:	e0e79de3          	bne	a5,a4,1ba8 <USBFS_IRQHandler+0x27e>
    1d92:	679d                	lui	a5,0x7
    1d94:	ebf7c783          	lbu	a5,-321(a5) # 6ebf <MyCfgDescr+0x7>
    1d98:	0207f793          	andi	a5,a5,32
    1d9c:	e00786e3          	beqz	a5,1ba8 <USBFS_IRQHandler+0x27e>
    1da0:	85718793          	addi	a5,gp,-1961 # 2000025f <USBFS_DevSleepStatus>
    1da4:	2398                	lbu	a4,0(a5)
    1da6:	00176713          	ori	a4,a4,1
    1daa:	b749                	j	1d2c <USBFS_IRQHandler+0x402>
    1dac:	0009c703          	lbu	a4,0(s3)
    1db0:	4609                	li	a2,2
    1db2:	8b7d                	andi	a4,a4,31
    1db4:	dec71ae3          	bne	a4,a2,1ba8 <USBFS_IRQHandler+0x27e>
    1db8:	239e                	lhu	a5,0(a5)
    1dba:	0ff7f793          	andi	a5,a5,255
    1dbe:	de0795e3          	bnez	a5,1ba8 <USBFS_IRQHandler+0x27e>
    1dc2:	229e                	lhu	a5,0(a3)
    1dc4:	08100693          	li	a3,129
    1dc8:	0ff7f793          	andi	a5,a5,255
    1dcc:	02d78163          	beq	a5,a3,1dee <USBFS_IRQHandler+0x4c4>
    1dd0:	08300693          	li	a3,131
    1dd4:	02d78663          	beq	a5,a3,1e00 <USBFS_IRQHandler+0x4d6>
    1dd8:	dce798e3          	bne	a5,a4,1ba8 <USBFS_IRQHandler+0x27e>
    1ddc:	50000737          	lui	a4,0x50000
    1de0:	03b74783          	lbu	a5,59(a4) # 5000003b <_eusrstack+0x2fff803b>
    1de4:	0037e793          	ori	a5,a5,3
    1de8:	02f70da3          	sb	a5,59(a4)
    1dec:	bd7d                	j	1caa <USBFS_IRQHandler+0x380>
    1dee:	50000737          	lui	a4,0x50000
    1df2:	03674783          	lbu	a5,54(a4) # 50000036 <_eusrstack+0x2fff8036>
    1df6:	0037e793          	ori	a5,a5,3
    1dfa:	02f70b23          	sb	a5,54(a4)
    1dfe:	b575                	j	1caa <USBFS_IRQHandler+0x380>
    1e00:	50000737          	lui	a4,0x50000
    1e04:	03e74783          	lbu	a5,62(a4) # 5000003e <_eusrstack+0x2fff803e>
    1e08:	0037e793          	ori	a5,a5,3
    1e0c:	02f70f23          	sb	a5,62(a4)
    1e10:	bd69                	j	1caa <USBFS_IRQHandler+0x380>
    1e12:	00060023          	sb	zero,0(a2)
    1e16:	bdd9                	j	1cec <USBFS_IRQHandler+0x3c2>
    1e18:	0009c783          	lbu	a5,0(s3)
    1e1c:	00061023          	sh	zero,0(a2)
    1e20:	8bfd                	andi	a5,a5,31
    1e22:	e385                	bnez	a5,1e42 <USBFS_IRQHandler+0x518>
    1e24:	8571c783          	lbu	a5,-1961(gp) # 2000025f <USBFS_DevSleepStatus>
    1e28:	4401                	li	s0,0
    1e2a:	8b85                	andi	a5,a5,1
    1e2c:	c399                	beqz	a5,1e32 <USBFS_IRQHandler+0x508>
    1e2e:	4789                	li	a5,2
    1e30:	a21c                	sb	a5,0(a2)
    1e32:	00095703          	lhu	a4,0(s2)
    1e36:	4789                	li	a5,2
    1e38:	d6e7f4e3          	bgeu	a5,a4,1ba0 <USBFS_IRQHandler+0x276>
    1e3c:	00f91023          	sh	a5,0(s2)
    1e40:	b385                	j	1ba0 <USBFS_IRQHandler+0x276>
    1e42:	0009c703          	lbu	a4,0(s3)
    1e46:	4789                	li	a5,2
    1e48:	0ff00413          	li	s0,255
    1e4c:	8b7d                	andi	a4,a4,31
    1e4e:	fef712e3          	bne	a4,a5,1e32 <USBFS_IRQHandler+0x508>
    1e52:	229e                	lhu	a5,0(a3)
    1e54:	08100693          	li	a3,129
    1e58:	0ff7f793          	andi	a5,a5,255
    1e5c:	02d78163          	beq	a5,a3,1e7e <USBFS_IRQHandler+0x554>
    1e60:	08300693          	li	a3,131
    1e64:	02d78a63          	beq	a5,a3,1e98 <USBFS_IRQHandler+0x56e>
    1e68:	fce795e3          	bne	a5,a4,1e32 <USBFS_IRQHandler+0x508>
    1e6c:	500007b7          	lui	a5,0x50000
    1e70:	03b7c783          	lbu	a5,59(a5) # 5000003b <_eusrstack+0x2fff803b>
    1e74:	8b8d                	andi	a5,a5,3
    1e76:	470d                	li	a4,3
    1e78:	00e79e63          	bne	a5,a4,1e94 <USBFS_IRQHandler+0x56a>
    1e7c:	a811                	j	1e90 <USBFS_IRQHandler+0x566>
    1e7e:	500007b7          	lui	a5,0x50000
    1e82:	0367c783          	lbu	a5,54(a5) # 50000036 <_eusrstack+0x2fff8036>
    1e86:	470d                	li	a4,3
    1e88:	4401                	li	s0,0
    1e8a:	8b8d                	andi	a5,a5,3
    1e8c:	fae793e3          	bne	a5,a4,1e32 <USBFS_IRQHandler+0x508>
    1e90:	4785                	li	a5,1
    1e92:	a21c                	sb	a5,0(a2)
    1e94:	4401                	li	s0,0
    1e96:	bf71                	j	1e32 <USBFS_IRQHandler+0x508>
    1e98:	500007b7          	lui	a5,0x50000
    1e9c:	03e7c783          	lbu	a5,62(a5) # 5000003e <_eusrstack+0x2fff803e>
    1ea0:	bfd1                	j	1e74 <USBFS_IRQHandler+0x54a>
    1ea2:	00095783          	lhu	a5,0(s2)
    1ea6:	07c2                	slli	a5,a5,0x10
    1ea8:	83c1                	srli	a5,a5,0x10
    1eaa:	c20787e3          	beqz	a5,1ad8 <USBFS_IRQHandler+0x1ae>
    1eae:	500007b7          	lui	a5,0x50000
    1eb2:	4711                	li	a4,4
    1eb4:	b9fd                	j	1bb2 <USBFS_IRQHandler+0x288>
    1eb6:	00177793          	andi	a5,a4,1
    1eba:	c385                	beqz	a5,1eda <USBFS_IRQHandler+0x5b0>
    1ebc:	84018aa3          	sb	zero,-1963(gp) # 2000025d <USBFS_DevConfig>
    1ec0:	84018a23          	sb	zero,-1964(gp) # 2000025c <USBFS_DevAddr>
    1ec4:	84018ba3          	sb	zero,-1961(gp) # 2000025f <USBFS_DevSleepStatus>
    1ec8:	84018b23          	sb	zero,-1962(gp) # 2000025e <USBFS_DevEnumStatus>
    1ecc:	000401a3          	sb	zero,3(s0)
    1ed0:	999ff0ef          	jal	ra,1868 <USBFS_Device_Endp_Init>
    1ed4:	4785                	li	a5,1
    1ed6:	a07c                	sb	a5,6(s0)
    1ed8:	b695                	j	1a3c <USBFS_IRQHandler+0x112>
    1eda:	00477793          	andi	a5,a4,4
    1ede:	c795                	beqz	a5,1f0a <USBFS_IRQHandler+0x5e0>
    1ee0:	4791                	li	a5,4
    1ee2:	a07c                	sb	a5,6(s0)
    1ee4:	4529                	li	a0,10
    1ee6:	124010ef          	jal	ra,300a <Delay_Us>
    1eea:	3058                	lbu	a4,5(s0)
    1eec:	85718793          	addi	a5,gp,-1961 # 2000025f <USBFS_DevSleepStatus>
    1ef0:	8b11                	andi	a4,a4,4
    1ef2:	c719                	beqz	a4,1f00 <USBFS_IRQHandler+0x5d6>
    1ef4:	2398                	lbu	a4,0(a5)
    1ef6:	00276713          	ori	a4,a4,2
    1efa:	a398                	sb	a4,0(a5)
    1efc:	239c                	lbu	a5,0(a5)
    1efe:	be3d                	j	1a3c <USBFS_IRQHandler+0x112>
    1f00:	2398                	lbu	a4,0(a5)
    1f02:	0fd77713          	andi	a4,a4,253
    1f06:	a398                	sb	a4,0(a5)
    1f08:	be15                	j	1a3c <USBFS_IRQHandler+0x112>
    1f0a:	a078                	sb	a4,6(s0)
    1f0c:	be05                	j	1a3c <USBFS_IRQHandler+0x112>

00001f0e <dac8571_init>:
    1f0e:	ae2fe2ef          	jal	t0,1f0 <__riscv_save_0>
    1f12:	400057b7          	lui	a5,0x40005
    1f16:	40078413          	addi	s0,a5,1024 # 40005400 <_eusrstack+0x1fffd400>
    1f1a:	2852                	lhu	a2,20(s0)
    1f1c:	2c16                	lhu	a3,24(s0)
    1f1e:	4007d703          	lhu	a4,1024(a5)
    1f22:	205e                	lhu	a5,4(s0)
    1f24:	01c45803          	lhu	a6,28(s0)
    1f28:	00007537          	lui	a0,0x7
    1f2c:	1141                	addi	sp,sp,-16
    1f2e:	04c00593          	li	a1,76
    1f32:	91850513          	addi	a0,a0,-1768 # 6918 <__malloc_unlock+0x1c0>
    1f36:	197010ef          	jal	ra,38cc <printf>
    1f3a:	400217b7          	lui	a5,0x40021
    1f3e:	4fcc                	lw	a1,28(a5)
    1f40:	4f90                	lw	a2,24(a5)
    1f42:	200007b7          	lui	a5,0x20000
    1f46:	2087a683          	lw	a3,520(a5) # 20000208 <SystemCoreClock>
    1f4a:	00007537          	lui	a0,0x7
    1f4e:	97450513          	addi	a0,a0,-1676 # 6974 <__malloc_unlock+0x21c>
    1f52:	17b010ef          	jal	ra,38cc <printf>
    1f56:	47c1                	li	a5,16
    1f58:	3e800693          	li	a3,1000
    1f5c:	460d                	li	a2,3
    1f5e:	006c                	addi	a1,sp,12
    1f60:	04c00513          	li	a0,76
    1f64:	867c                	sh	a5,12(sp)
    1f66:	00010723          	sb	zero,14(sp)
    1f6a:	6f6000ef          	jal	ra,2660 <i2c_util_write>
    1f6e:	e911                	bnez	a0,1f82 <dac8571_init+0x74>
    1f70:	00007537          	lui	a0,0x7
    1f74:	9ac50513          	addi	a0,a0,-1620 # 69ac <__malloc_unlock+0x254>
    1f78:	1a3010ef          	jal	ra,391a <puts>
    1f7c:	0141                	addi	sp,sp,16
    1f7e:	a96fe06f          	j	214 <__riscv_restore_0>
    1f82:	2852                	lhu	a2,20(s0)
    1f84:	2c16                	lhu	a3,24(s0)
    1f86:	85aa                	mv	a1,a0
    1f88:	00007537          	lui	a0,0x7
    1f8c:	9c050513          	addi	a0,a0,-1600 # 69c0 <__malloc_unlock+0x268>
    1f90:	13d010ef          	jal	ra,38cc <printf>
    1f94:	b7e5                	j	1f7c <dac8571_init+0x6e>

00001f96 <dac8571_set_output>:
    1f96:	a5afe2ef          	jal	t0,1f0 <__riscv_save_0>
    1f9a:	1141                	addi	sp,sp,-16
    1f9c:	47c1                	li	a5,16
    1f9e:	865c                	sb	a5,12(sp)
    1fa0:	8748                	sb	a0,14(sp)
    1fa2:	00855793          	srli	a5,a0,0x8
    1fa6:	006c                	addi	a1,sp,12
    1fa8:	3e800693          	li	a3,1000
    1fac:	460d                	li	a2,3
    1fae:	04c00513          	li	a0,76
    1fb2:	86dc                	sb	a5,13(sp)
    1fb4:	6ac000ef          	jal	ra,2660 <i2c_util_write>
    1fb8:	0141                	addi	sp,sp,16
    1fba:	a5afe06f          	j	214 <__riscv_restore_0>

00001fbe <i2c_timeout_start>:
    1fbe:	e000f7b7          	lui	a5,0xe000f
    1fc2:	43d8                	lw	a4,4(a5)
    1fc4:	567d                	li	a2,-1
    1fc6:	56fd                	li	a3,-1
    1fc8:	9b79                	andi	a4,a4,-2
    1fca:	c3d8                	sw	a4,4(a5)
    1fcc:	cb90                	sw	a2,16(a5)
    1fce:	cbd4                	sw	a3,20(a5)
    1fd0:	4398                	lw	a4,0(a5)
    1fd2:	1141                	addi	sp,sp,-16
    1fd4:	01076713          	ori	a4,a4,16
    1fd8:	c398                	sw	a4,0(a5)
    1fda:	4398                	lw	a4,0(a5)
    1fdc:	02176713          	ori	a4,a4,33
    1fe0:	c398                	sw	a4,0(a5)
    1fe2:	c602                	sw	zero,12(sp)
    1fe4:	474d                	li	a4,19
    1fe6:	47b2                	lw	a5,12(sp)
    1fe8:	00f75463          	bge	a4,a5,1ff0 <i2c_timeout_start+0x32>
    1fec:	0141                	addi	sp,sp,16
    1fee:	8082                	ret
    1ff0:	0001                	nop
    1ff2:	47b2                	lw	a5,12(sp)
    1ff4:	0785                	addi	a5,a5,1
    1ff6:	c63e                	sw	a5,12(sp)
    1ff8:	b7fd                	j	1fe6 <i2c_timeout_start+0x28>

00001ffa <i2c_timeout_stop>:
    1ffa:	e000f7b7          	lui	a5,0xe000f
    1ffe:	4398                	lw	a4,0(a5)
    2000:	4681                	li	a3,0
    2002:	9b79                	andi	a4,a4,-2
    2004:	c398                	sw	a4,0(a5)
    2006:	c794                	sw	a3,8(a5)
    2008:	4701                	li	a4,0
    200a:	c7d8                	sw	a4,12(a5)
    200c:	8082                	ret

0000200e <i2c_get_ticks>:
    200e:	e000f7b7          	lui	a5,0xe000f
    2012:	4788                	lw	a0,8(a5)
    2014:	47cc                	lw	a1,12(a5)
    2016:	0522                	slli	a0,a0,0x8
    2018:	8121                	srli	a0,a0,0x8
    201a:	8082                	ret

0000201c <i2c_elapsed_ms>:
    201c:	9d4fe2ef          	jal	t0,1f0 <__riscv_save_0>
    2020:	842a                	mv	s0,a0
    2022:	37f5                	jal	200e <i2c_get_ticks>
    2024:	200007b7          	lui	a5,0x20000
    2028:	2087a783          	lw	a5,520(a5) # 20000208 <SystemCoreClock>
    202c:	007a1737          	lui	a4,0x7a1
    2030:	20070713          	addi	a4,a4,512 # 7a1200 <_data_lma+0x799f94>
    2034:	02e7d7b3          	divu	a5,a5,a4
    2038:	3e800713          	li	a4,1000
    203c:	8d01                	sub	a0,a0,s0
    203e:	0522                	slli	a0,a0,0x8
    2040:	8121                	srli	a0,a0,0x8
    2042:	02e787b3          	mul	a5,a5,a4
    2046:	02f55533          	divu	a0,a0,a5
    204a:	9cafe06f          	j	214 <__riscv_restore_0>

0000204e <i2c_wait_event_ex>:
    204e:	97afe2ef          	jal	t0,1c8 <__riscv_save_10>
    2052:	100004b7          	lui	s1,0x10000
    2056:	40005437          	lui	s0,0x40005
    205a:	8aaa                	mv	s5,a0
    205c:	8b2e                	mv	s6,a1
    205e:	8bb2                	mv	s7,a2
    2060:	89b6                	mv	s3,a3
    2062:	40040913          	addi	s2,s0,1024 # 40005400 <_eusrstack+0x1fffd400>
    2066:	40048c13          	addi	s8,s1,1024 # 10000400 <_data_lma+0xfff9194>
    206a:	4a05                	li	s4,1
    206c:	10048c93          	addi	s9,s1,256
    2070:	20048d13          	addi	s10,s1,512
    2074:	85d6                	mv	a1,s5
    2076:	854a                	mv	a0,s2
    2078:	d93fe0ef          	jal	ra,e0a <I2C_CheckEvent>
    207c:	c119                	beqz	a0,2082 <i2c_wait_event_ex+0x34>
    207e:	4501                	li	a0,0
    2080:	a831                	j	209c <i2c_wait_event_ex+0x4e>
    2082:	85e2                	mv	a1,s8
    2084:	854a                	mv	a0,s2
    2086:	d9bfe0ef          	jal	ra,e20 <I2C_GetFlagStatus>
    208a:	01451b63          	bne	a0,s4,20a0 <i2c_wait_event_ex+0x52>
    208e:	40040513          	addi	a0,s0,1024
    2092:	40048593          	addi	a1,s1,1024
    2096:	dbdfe0ef          	jal	ra,e52 <I2C_ClearFlag>
    209a:	5575                	li	a0,-3
    209c:	964fe06f          	j	200 <__riscv_restore_10>
    20a0:	85e6                	mv	a1,s9
    20a2:	854a                	mv	a0,s2
    20a4:	d7dfe0ef          	jal	ra,e20 <I2C_GetFlagStatus>
    20a8:	03451163          	bne	a0,s4,20ca <i2c_wait_event_ex+0x7c>
    20ac:	10048593          	addi	a1,s1,256
    20b0:	40040513          	addi	a0,s0,1024
    20b4:	d9ffe0ef          	jal	ra,e52 <I2C_ClearFlag>
    20b8:	00007537          	lui	a0,0x7
    20bc:	85ce                	mv	a1,s3
    20be:	a5c50513          	addi	a0,a0,-1444 # 6a5c <__malloc_unlock+0x304>
    20c2:	00b010ef          	jal	ra,38cc <printf>
    20c6:	557d                	li	a0,-1
    20c8:	bfd1                	j	209c <i2c_wait_event_ex+0x4e>
    20ca:	85ea                	mv	a1,s10
    20cc:	854a                	mv	a0,s2
    20ce:	d53fe0ef          	jal	ra,e20 <I2C_GetFlagStatus>
    20d2:	01451e63          	bne	a0,s4,20ee <i2c_wait_event_ex+0xa0>
    20d6:	20048593          	addi	a1,s1,512
    20da:	40040513          	addi	a0,s0,1024
    20de:	d75fe0ef          	jal	ra,e52 <I2C_ClearFlag>
    20e2:	00007537          	lui	a0,0x7
    20e6:	85ce                	mv	a1,s3
    20e8:	a7450513          	addi	a0,a0,-1420 # 6a74 <__malloc_unlock+0x31c>
    20ec:	bfd9                	j	20c2 <i2c_wait_event_ex+0x74>
    20ee:	855a                	mv	a0,s6
    20f0:	3735                	jal	201c <i2c_elapsed_ms>
    20f2:	f97561e3          	bltu	a0,s7,2074 <i2c_wait_event_ex+0x26>
    20f6:	41445603          	lhu	a2,1044(s0)
    20fa:	41845683          	lhu	a3,1048(s0)
    20fe:	00007537          	lui	a0,0x7
    2102:	85ce                	mv	a1,s3
    2104:	a8c50513          	addi	a0,a0,-1396 # 6a8c <__malloc_unlock+0x334>
    2108:	40040413          	addi	s0,s0,1024
    210c:	7c0010ef          	jal	ra,38cc <printf>
    2110:	bf5d                	j	20c6 <i2c_wait_event_ex+0x78>

00002112 <i2c_write_once>:
    2112:	8b6fe2ef          	jal	t0,1c8 <__riscv_save_10>
    2116:	40005437          	lui	s0,0x40005
    211a:	1141                	addi	sp,sp,-16
    211c:	84aa                	mv	s1,a0
    211e:	8c2e                	mv	s8,a1
    2120:	8bb2                	mv	s7,a2
    2122:	8a36                	mv	s4,a3
    2124:	89ba                	mv	s3,a4
    2126:	40040913          	addi	s2,s0,1024 # 40005400 <_eusrstack+0x1fffd400>
    212a:	000205b7          	lui	a1,0x20
    212e:	854a                	mv	a0,s2
    2130:	cf1fe0ef          	jal	ra,e20 <I2C_GetFlagStatus>
    2134:	e125                	bnez	a0,2194 <i2c_write_once+0x82>
    2136:	3de1                	jal	200e <i2c_get_ticks>
    2138:	40045783          	lhu	a5,1024(s0)
    213c:	8b2a                	mv	s6,a0
    213e:	06300713          	li	a4,99
    2142:	1007e793          	ori	a5,a5,256
    2146:	40f41023          	sh	a5,1024(s0)
    214a:	c602                	sw	zero,12(sp)
    214c:	47b2                	lw	a5,12(sp)
    214e:	06f75663          	bge	a4,a5,21ba <i2c_write_once+0xa8>
    2152:	400057b7          	lui	a5,0x40005
    2156:	4007d583          	lhu	a1,1024(a5) # 40005400 <_eusrstack+0x1fffd400>
    215a:	40078713          	addi	a4,a5,1024
    215e:	05c2                	slli	a1,a1,0x10
    2160:	81c1                	srli	a1,a1,0x10
    2162:	1005f793          	andi	a5,a1,256
    2166:	cb81                	beqz	a5,2176 <i2c_write_once+0x64>
    2168:	2b52                	lhu	a2,20(a4)
    216a:	00007537          	lui	a0,0x7
    216e:	b1850513          	addi	a0,a0,-1256 # 6b18 <__malloc_unlock+0x3c0>
    2172:	75a010ef          	jal	ra,38cc <printf>
    2176:	00030537          	lui	a0,0x30
    217a:	4685                	li	a3,1
    217c:	864e                	mv	a2,s3
    217e:	85da                	mv	a1,s6
    2180:	0505                	addi	a0,a0,1
    2182:	35f1                	jal	204e <i2c_wait_event_ex>
    2184:	842a                	mv	s0,a0
    2186:	cd1d                	beqz	a0,21c4 <i2c_write_once+0xb2>
    2188:	40005537          	lui	a0,0x40005
    218c:	4585                	li	a1,1
    218e:	40050513          	addi	a0,a0,1024 # 40005400 <_eusrstack+0x1fffd400>
    2192:	a845                	j	2242 <i2c_write_once+0x130>
    2194:	8552                	mv	a0,s4
    2196:	3559                	jal	201c <i2c_elapsed_ms>
    2198:	f93569e3          	bltu	a0,s3,212a <i2c_write_once+0x18>
    219c:	41445583          	lhu	a1,1044(s0)
    21a0:	41845603          	lhu	a2,1048(s0)
    21a4:	00007537          	lui	a0,0x7
    21a8:	aec50513          	addi	a0,a0,-1300 # 6aec <__malloc_unlock+0x394>
    21ac:	720010ef          	jal	ra,38cc <printf>
    21b0:	547d                	li	s0,-1
    21b2:	8522                	mv	a0,s0
    21b4:	0141                	addi	sp,sp,16
    21b6:	84afe06f          	j	200 <__riscv_restore_10>
    21ba:	0001                	nop
    21bc:	47b2                	lw	a5,12(sp)
    21be:	0785                	addi	a5,a5,1
    21c0:	c63e                	sw	a5,12(sp)
    21c2:	b769                	j	214c <i2c_write_once+0x3a>
    21c4:	00149593          	slli	a1,s1,0x1
    21c8:	400054b7          	lui	s1,0x40005
    21cc:	4601                	li	a2,0
    21ce:	0fe5f593          	andi	a1,a1,254
    21d2:	40048513          	addi	a0,s1,1024 # 40005400 <_eusrstack+0x1fffd400>
    21d6:	c23fe0ef          	jal	ra,df8 <I2C_Send7bitAddress>
    21da:	4529                	li	a0,10
    21dc:	665000ef          	jal	ra,3040 <Delay_Ms>
    21e0:	00070a37          	lui	s4,0x70
    21e4:	4689                	li	a3,2
    21e6:	864e                	mv	a2,s3
    21e8:	85da                	mv	a1,s6
    21ea:	082a0513          	addi	a0,s4,130 # 70082 <_data_lma+0x68e16>
    21ee:	3585                	jal	204e <i2c_wait_event_ex>
    21f0:	842a                	mv	s0,a0
    21f2:	e529                	bnez	a0,223c <i2c_write_once+0x12a>
    21f4:	10000cb7          	lui	s9,0x10000
    21f8:	40005937          	lui	s2,0x40005
    21fc:	4481                	li	s1,0
    21fe:	080c8c93          	addi	s9,s9,128 # 10000080 <_data_lma+0xfff8e14>
    2202:	40090d13          	addi	s10,s2,1024 # 40005400 <_eusrstack+0x1fffd400>
    2206:	084a0a13          	addi	s4,s4,132
    220a:	0ff4fa93          	andi	s5,s1,255
    220e:	f69b8de3          	beq	s7,s1,2188 <i2c_write_once+0x76>
    2212:	85e6                	mv	a1,s9
    2214:	856a                	mv	a0,s10
    2216:	c0bfe0ef          	jal	ra,e20 <I2C_GetFlagStatus>
    221a:	e51d                	bnez	a0,2248 <i2c_write_once+0x136>
    221c:	41495603          	lhu	a2,1044(s2)
    2220:	00007537          	lui	a0,0x7
    2224:	85a6                	mv	a1,s1
    2226:	b5450513          	addi	a0,a0,-1196 # 6b54 <__malloc_unlock+0x3fc>
    222a:	6a2010ef          	jal	ra,38cc <printf>
    222e:	40090913          	addi	s2,s2,1024
    2232:	4585                	li	a1,1
    2234:	854a                	mv	a0,s2
    2236:	b83fe0ef          	jal	ra,db8 <I2C_GenerateSTOP>
    223a:	bf9d                	j	21b0 <i2c_write_once+0x9e>
    223c:	4585                	li	a1,1
    223e:	40048513          	addi	a0,s1,1024
    2242:	b77fe0ef          	jal	ra,db8 <I2C_GenerateSTOP>
    2246:	b7b5                	j	21b2 <i2c_write_once+0xa0>
    2248:	009c07b3          	add	a5,s8,s1
    224c:	238c                	lbu	a1,0(a5)
    224e:	856a                	mv	a0,s10
    2250:	0485                	addi	s1,s1,1
    2252:	b9bfe0ef          	jal	ra,dec <I2C_SendData>
    2256:	003a8693          	addi	a3,s5,3
    225a:	0ff6f693          	andi	a3,a3,255
    225e:	864e                	mv	a2,s3
    2260:	85da                	mv	a1,s6
    2262:	8552                	mv	a0,s4
    2264:	33ed                	jal	204e <i2c_wait_event_ex>
    2266:	8aaa                	mv	s5,a0
    2268:	d14d                	beqz	a0,220a <i2c_write_once+0xf8>
    226a:	4585                	li	a1,1
    226c:	40090513          	addi	a0,s2,1024
    2270:	b49fe0ef          	jal	ra,db8 <I2C_GenerateSTOP>
    2274:	8456                	mv	s0,s5
    2276:	bf35                	j	21b2 <i2c_write_once+0xa0>

00002278 <i2c_wait_rxne>:
    2278:	f5ffd2ef          	jal	t0,1d6 <__riscv_save_4>
    227c:	100004b7          	lui	s1,0x10000
    2280:	40005437          	lui	s0,0x40005
    2284:	89aa                	mv	s3,a0
    2286:	8a2e                	mv	s4,a1
    2288:	8ab2                	mv	s5,a2
    228a:	04048493          	addi	s1,s1,64 # 10000040 <_data_lma+0xfff8dd4>
    228e:	40040913          	addi	s2,s0,1024 # 40005400 <_eusrstack+0x1fffd400>
    2292:	85a6                	mv	a1,s1
    2294:	854a                	mv	a0,s2
    2296:	b8bfe0ef          	jal	ra,e20 <I2C_GetFlagStatus>
    229a:	c119                	beqz	a0,22a0 <i2c_wait_rxne+0x28>
    229c:	4501                	li	a0,0
    229e:	a01d                	j	22c4 <i2c_wait_rxne+0x4c>
    22a0:	854e                	mv	a0,s3
    22a2:	3bad                	jal	201c <i2c_elapsed_ms>
    22a4:	ff4567e3          	bltu	a0,s4,2292 <i2c_wait_rxne+0x1a>
    22a8:	41445603          	lhu	a2,1044(s0)
    22ac:	41845683          	lhu	a3,1048(s0)
    22b0:	00007537          	lui	a0,0x7
    22b4:	85d6                	mv	a1,s5
    22b6:	ab850513          	addi	a0,a0,-1352 # 6ab8 <__malloc_unlock+0x360>
    22ba:	612010ef          	jal	ra,38cc <printf>
    22be:	40040413          	addi	s0,s0,1024
    22c2:	557d                	li	a0,-1
    22c4:	f47fd06f          	j	20a <__riscv_restore_4>

000022c8 <i2c_read_once>:
    22c8:	f01fd2ef          	jal	t0,1c8 <__riscv_save_10>
    22cc:	40005437          	lui	s0,0x40005
    22d0:	89aa                	mv	s3,a0
    22d2:	8cae                	mv	s9,a1
    22d4:	8b32                	mv	s6,a2
    22d6:	8a36                	mv	s4,a3
    22d8:	8aba                	mv	s5,a4
    22da:	893e                	mv	s2,a5
    22dc:	40040493          	addi	s1,s0,1024 # 40005400 <_eusrstack+0x1fffd400>
    22e0:	000205b7          	lui	a1,0x20
    22e4:	8526                	mv	a0,s1
    22e6:	b3bfe0ef          	jal	ra,e20 <I2C_GetFlagStatus>
    22ea:	e905                	bnez	a0,231a <i2c_read_once+0x52>
    22ec:	330d                	jal	200e <i2c_get_ticks>
    22ee:	8baa                	mv	s7,a0
    22f0:	4585                	li	a1,1
    22f2:	40040513          	addi	a0,s0,1024
    22f6:	aa9fe0ef          	jal	ra,d9e <I2C_GenerateSTART>
    22fa:	00030ab7          	lui	s5,0x30
    22fe:	46d1                	li	a3,20
    2300:	864a                	mv	a2,s2
    2302:	85de                	mv	a1,s7
    2304:	001a8513          	addi	a0,s5,1 # 30001 <_data_lma+0x28d95>
    2308:	3399                	jal	204e <i2c_wait_event_ex>
    230a:	84aa                	mv	s1,a0
    230c:	c91d                	beqz	a0,2342 <i2c_read_once+0x7a>
    230e:	4585                	li	a1,1
    2310:	40040513          	addi	a0,s0,1024
    2314:	aa5fe0ef          	jal	ra,db8 <I2C_GenerateSTOP>
    2318:	a015                	j	233c <i2c_read_once+0x74>
    231a:	8556                	mv	a0,s5
    231c:	3301                	jal	201c <i2c_elapsed_ms>
    231e:	fd2561e3          	bltu	a0,s2,22e0 <i2c_read_once+0x18>
    2322:	41445583          	lhu	a1,1044(s0)
    2326:	41845603          	lhu	a2,1048(s0)
    232a:	00007537          	lui	a0,0x7
    232e:	9f450513          	addi	a0,a0,-1548 # 69f4 <__malloc_unlock+0x29c>
    2332:	40040413          	addi	s0,s0,1024
    2336:	596010ef          	jal	ra,38cc <printf>
    233a:	54fd                	li	s1,-1
    233c:	8526                	mv	a0,s1
    233e:	ec3fd06f          	j	200 <__riscv_restore_10>
    2342:	0986                	slli	s3,s3,0x1
    2344:	0ff9f993          	andi	s3,s3,255
    2348:	4601                	li	a2,0
    234a:	85ce                	mv	a1,s3
    234c:	40040513          	addi	a0,s0,1024
    2350:	aa9fe0ef          	jal	ra,df8 <I2C_Send7bitAddress>
    2354:	4529                	li	a0,10
    2356:	4eb000ef          	jal	ra,3040 <Delay_Ms>
    235a:	00070c37          	lui	s8,0x70
    235e:	46d5                	li	a3,21
    2360:	864a                	mv	a2,s2
    2362:	85de                	mv	a1,s7
    2364:	082c0513          	addi	a0,s8,130 # 70082 <_data_lma+0x68e16>
    2368:	31dd                	jal	204e <i2c_wait_event_ex>
    236a:	84aa                	mv	s1,a0
    236c:	f14d                	bnez	a0,230e <i2c_read_once+0x46>
    236e:	100005b7          	lui	a1,0x10000
    2372:	08058593          	addi	a1,a1,128 # 10000080 <_data_lma+0xfff8e14>
    2376:	40040513          	addi	a0,s0,1024
    237a:	aa7fe0ef          	jal	ra,e20 <I2C_GetFlagStatus>
    237e:	e105                	bnez	a0,239e <i2c_read_once+0xd6>
    2380:	41445583          	lhu	a1,1044(s0)
    2384:	00007537          	lui	a0,0x7
    2388:	a2c50513          	addi	a0,a0,-1492 # 6a2c <__malloc_unlock+0x2d4>
    238c:	540010ef          	jal	ra,38cc <printf>
    2390:	40040413          	addi	s0,s0,1024
    2394:	4585                	li	a1,1
    2396:	8522                	mv	a0,s0
    2398:	a21fe0ef          	jal	ra,db8 <I2C_GenerateSTOP>
    239c:	bf79                	j	233a <i2c_read_once+0x72>
    239e:	85e6                	mv	a1,s9
    23a0:	40040513          	addi	a0,s0,1024
    23a4:	a49fe0ef          	jal	ra,dec <I2C_SendData>
    23a8:	46d9                	li	a3,22
    23aa:	864a                	mv	a2,s2
    23ac:	85de                	mv	a1,s7
    23ae:	084c0513          	addi	a0,s8,132
    23b2:	c9dff0ef          	jal	ra,204e <i2c_wait_event_ex>
    23b6:	84aa                	mv	s1,a0
    23b8:	f939                	bnez	a0,230e <i2c_read_once+0x46>
    23ba:	c55ff0ef          	jal	ra,200e <i2c_get_ticks>
    23be:	8baa                	mv	s7,a0
    23c0:	4585                	li	a1,1
    23c2:	40040513          	addi	a0,s0,1024
    23c6:	9d9fe0ef          	jal	ra,d9e <I2C_GenerateSTART>
    23ca:	46f9                	li	a3,30
    23cc:	864a                	mv	a2,s2
    23ce:	85de                	mv	a1,s7
    23d0:	001a8513          	addi	a0,s5,1
    23d4:	c7bff0ef          	jal	ra,204e <i2c_wait_event_ex>
    23d8:	84aa                	mv	s1,a0
    23da:	f2051ae3          	bnez	a0,230e <i2c_read_once+0x46>
    23de:	4605                	li	a2,1
    23e0:	85ce                	mv	a1,s3
    23e2:	40040513          	addi	a0,s0,1024
    23e6:	a13fe0ef          	jal	ra,df8 <I2C_Send7bitAddress>
    23ea:	4529                	li	a0,10
    23ec:	455000ef          	jal	ra,3040 <Delay_Ms>
    23f0:	46fd                	li	a3,31
    23f2:	864a                	mv	a2,s2
    23f4:	85de                	mv	a1,s7
    23f6:	002a8513          	addi	a0,s5,2
    23fa:	c55ff0ef          	jal	ra,204e <i2c_wait_event_ex>
    23fe:	84aa                	mv	s1,a0
    2400:	f00517e3          	bnez	a0,230e <i2c_read_once+0x46>
    2404:	4785                	li	a5,1
    2406:	04fa0563          	beq	s4,a5,2450 <i2c_read_once+0x188>
    240a:	400059b7          	lui	s3,0x40005
    240e:	4401                	li	s0,0
    2410:	fffa0a93          	addi	s5,s4,-1
    2414:	40098993          	addi	s3,s3,1024 # 40005400 <_eusrstack+0x1fffd400>
    2418:	f34402e3          	beq	s0,s4,233c <i2c_read_once+0x74>
    241c:	068a9363          	bne	s5,s0,2482 <i2c_read_once+0x1ba>
    2420:	4581                	li	a1,0
    2422:	854e                	mv	a0,s3
    2424:	9affe0ef          	jal	ra,dd2 <I2C_AcknowledgeConfig>
    2428:	4585                	li	a1,1
    242a:	854e                	mv	a0,s3
    242c:	98dfe0ef          	jal	ra,db8 <I2C_GenerateSTOP>
    2430:	02840613          	addi	a2,s0,40
    2434:	0ff67613          	andi	a2,a2,255
    2438:	85ca                	mv	a1,s2
    243a:	855e                	mv	a0,s7
    243c:	3d35                	jal	2278 <i2c_wait_rxne>
    243e:	e539                	bnez	a0,248c <i2c_read_once+0x1c4>
    2440:	854e                	mv	a0,s3
    2442:	9affe0ef          	jal	ra,df0 <I2C_ReceiveData>
    2446:	008b07b3          	add	a5,s6,s0
    244a:	a388                	sb	a0,0(a5)
    244c:	0405                	addi	s0,s0,1
    244e:	b7e9                	j	2418 <i2c_read_once+0x150>
    2450:	4581                	li	a1,0
    2452:	40040513          	addi	a0,s0,1024
    2456:	97dfe0ef          	jal	ra,dd2 <I2C_AcknowledgeConfig>
    245a:	4585                	li	a1,1
    245c:	40040513          	addi	a0,s0,1024
    2460:	959fe0ef          	jal	ra,db8 <I2C_GenerateSTOP>
    2464:	02000613          	li	a2,32
    2468:	85ca                	mv	a1,s2
    246a:	855e                	mv	a0,s7
    246c:	3531                	jal	2278 <i2c_wait_rxne>
    246e:	84aa                	mv	s1,a0
    2470:	ec0516e3          	bnez	a0,233c <i2c_read_once+0x74>
    2474:	40040513          	addi	a0,s0,1024
    2478:	979fe0ef          	jal	ra,df0 <I2C_ReceiveData>
    247c:	00ab0023          	sb	a0,0(s6)
    2480:	bd75                	j	233c <i2c_read_once+0x74>
    2482:	4585                	li	a1,1
    2484:	854e                	mv	a0,s3
    2486:	94dfe0ef          	jal	ra,dd2 <I2C_AcknowledgeConfig>
    248a:	b75d                	j	2430 <i2c_read_once+0x168>
    248c:	84aa                	mv	s1,a0
    248e:	b57d                	j	233c <i2c_read_once+0x74>

00002490 <i2c_util_init>:
    2490:	d47fd2ef          	jal	t0,1d6 <__riscv_save_4>
    2494:	1101                	addi	sp,sp,-32
    2496:	4585                	li	a1,1
    2498:	00200537          	lui	a0,0x200
    249c:	c202                	sw	zero,4(sp)
    249e:	c402                	sw	zero,8(sp)
    24a0:	c602                	sw	zero,12(sp)
    24a2:	c802                	sw	zero,16(sp)
    24a4:	ca02                	sw	zero,20(sp)
    24a6:	cc02                	sw	zero,24(sp)
    24a8:	ce02                	sw	zero,28(sp)
    24aa:	b59fe0ef          	jal	ra,1002 <RCC_APB1PeriphClockCmd>
    24ae:	4585                	li	a1,1
    24b0:	4525                	li	a0,9
    24b2:	b33fe0ef          	jal	ra,fe4 <RCC_APB2PeriphClockCmd>
    24b6:	40005437          	lui	s0,0x40005
    24ba:	eb0fe0ef          	jal	ra,b6a <GPIO_AFIODeInit>
    24be:	40040513          	addi	a0,s0,1024 # 40005400 <_eusrstack+0x1fffd400>
    24c2:	f94fe0ef          	jal	ra,c56 <I2C_DeInit>
    24c6:	400114b7          	lui	s1,0x40011
    24ca:	0c000593          	li	a1,192
    24ce:	c0048513          	addi	a0,s1,-1024 # 40010c00 <_eusrstack+0x20008c00>
    24d2:	f76fe0ef          	jal	ra,c48 <GPIO_SetBits>
    24d6:	04000793          	li	a5,64
    24da:	49f1                	li	s3,28
    24dc:	490d                	li	s2,3
    24de:	004c                	addi	a1,sp,4
    24e0:	c0048513          	addi	a0,s1,-1024
    24e4:	827c                	sh	a5,4(sp)
    24e6:	c64e                	sw	s3,12(sp)
    24e8:	c44a                	sw	s2,8(sp)
    24ea:	e94fe0ef          	jal	ra,b7e <GPIO_Init>
    24ee:	08000793          	li	a5,128
    24f2:	004c                	addi	a1,sp,4
    24f4:	c0048513          	addi	a0,s1,-1024
    24f8:	827c                	sh	a5,4(sp)
    24fa:	c64e                	sw	s3,12(sp)
    24fc:	c44a                	sw	s2,8(sp)
    24fe:	e80fe0ef          	jal	ra,b7e <GPIO_Init>
    2502:	40045783          	lhu	a5,1024(s0)
    2506:	6721                	lui	a4,0x8
    2508:	8fd9                	or	a5,a5,a4
    250a:	40f41023          	sh	a5,1024(s0)
    250e:	c002                	sw	zero,0(sp)
    2510:	06300713          	li	a4,99
    2514:	4782                	lw	a5,0(sp)
    2516:	04f75363          	bge	a4,a5,255c <i2c_util_init+0xcc>
    251a:	40005737          	lui	a4,0x40005
    251e:	40075783          	lhu	a5,1024(a4) # 40005400 <_eusrstack+0x1fffd400>
    2522:	40070413          	addi	s0,a4,1024
    2526:	080c                	addi	a1,sp,16
    2528:	07c6                	slli	a5,a5,0x11
    252a:	83c5                	srli	a5,a5,0x11
    252c:	40f71023          	sh	a5,1024(a4)
    2530:	67e1                	lui	a5,0x18
    2532:	6a078793          	addi	a5,a5,1696 # 186a0 <_data_lma+0x11434>
    2536:	c83e                	sw	a5,16(sp)
    2538:	400007b7          	lui	a5,0x40000
    253c:	ca3e                	sw	a5,20(sp)
    253e:	040007b7          	lui	a5,0x4000
    2542:	cc3e                	sw	a5,24(sp)
    2544:	8522                	mv	a0,s0
    2546:	6791                	lui	a5,0x4
    2548:	86fc                	sh	a5,28(sp)
    254a:	f3efe0ef          	jal	ra,c88 <I2C_Init>
    254e:	4585                	li	a1,1
    2550:	8522                	mv	a0,s0
    2552:	835fe0ef          	jal	ra,d86 <I2C_Cmd>
    2556:	6105                	addi	sp,sp,32
    2558:	cb3fd06f          	j	20a <__riscv_restore_4>
    255c:	0001                	nop
    255e:	4782                	lw	a5,0(sp)
    2560:	0785                	addi	a5,a5,1
    2562:	c03e                	sw	a5,0(sp)
    2564:	bf45                	j	2514 <i2c_util_init+0x84>

00002566 <i2c_util_bus_recovery>:
    2566:	c8bfd2ef          	jal	t0,1f0 <__riscv_save_0>
    256a:	40005537          	lui	a0,0x40005
    256e:	1141                	addi	sp,sp,-16
    2570:	4581                	li	a1,0
    2572:	40050513          	addi	a0,a0,1024 # 40005400 <_eusrstack+0x1fffd400>
    2576:	c202                	sw	zero,4(sp)
    2578:	c402                	sw	zero,8(sp)
    257a:	c602                	sw	zero,12(sp)
    257c:	80bfe0ef          	jal	ra,d86 <I2C_Cmd>
    2580:	40011437          	lui	s0,0x40011
    2584:	04000793          	li	a5,64
    2588:	448d                	li	s1,3
    258a:	c0040513          	addi	a0,s0,-1024 # 40010c00 <_eusrstack+0x20008c00>
    258e:	827c                	sh	a5,4(sp)
    2590:	004c                	addi	a1,sp,4
    2592:	47d1                	li	a5,20
    2594:	c63e                	sw	a5,12(sp)
    2596:	c426                	sw	s1,8(sp)
    2598:	de6fe0ef          	jal	ra,b7e <GPIO_Init>
    259c:	08000793          	li	a5,128
    25a0:	827c                	sh	a5,4(sp)
    25a2:	c0040513          	addi	a0,s0,-1024
    25a6:	4791                	li	a5,4
    25a8:	004c                	addi	a1,sp,4
    25aa:	c426                	sw	s1,8(sp)
    25ac:	c63e                	sw	a5,12(sp)
    25ae:	44a5                	li	s1,9
    25b0:	dcefe0ef          	jal	ra,b7e <GPIO_Init>
    25b4:	c0040413          	addi	s0,s0,-1024
    25b8:	4601                	li	a2,0
    25ba:	04000593          	li	a1,64
    25be:	8522                	mv	a0,s0
    25c0:	e8cfe0ef          	jal	ra,c4c <GPIO_WriteBit>
    25c4:	4515                	li	a0,5
    25c6:	245000ef          	jal	ra,300a <Delay_Us>
    25ca:	4605                	li	a2,1
    25cc:	04000593          	li	a1,64
    25d0:	8522                	mv	a0,s0
    25d2:	e7afe0ef          	jal	ra,c4c <GPIO_WriteBit>
    25d6:	4515                	li	a0,5
    25d8:	233000ef          	jal	ra,300a <Delay_Us>
    25dc:	08000593          	li	a1,128
    25e0:	8522                	mv	a0,s0
    25e2:	e5cfe0ef          	jal	ra,c3e <GPIO_ReadInputDataBit>
    25e6:	4785                	li	a5,1
    25e8:	892a                	mv	s2,a0
    25ea:	00f50763          	beq	a0,a5,25f8 <i2c_util_bus_recovery+0x92>
    25ee:	14fd                	addi	s1,s1,-1
    25f0:	0ff4f493          	andi	s1,s1,255
    25f4:	f0f1                	bnez	s1,25b8 <i2c_util_bus_recovery+0x52>
    25f6:	4901                	li	s2,0
    25f8:	08000793          	li	a5,128
    25fc:	40011437          	lui	s0,0x40011
    2600:	827c                	sh	a5,4(sp)
    2602:	47d1                	li	a5,20
    2604:	c63e                	sw	a5,12(sp)
    2606:	004c                	addi	a1,sp,4
    2608:	478d                	li	a5,3
    260a:	c0040513          	addi	a0,s0,-1024 # 40010c00 <_eusrstack+0x20008c00>
    260e:	c43e                	sw	a5,8(sp)
    2610:	d6efe0ef          	jal	ra,b7e <GPIO_Init>
    2614:	4601                	li	a2,0
    2616:	08000593          	li	a1,128
    261a:	c0040513          	addi	a0,s0,-1024
    261e:	e2efe0ef          	jal	ra,c4c <GPIO_WriteBit>
    2622:	4515                	li	a0,5
    2624:	1e7000ef          	jal	ra,300a <Delay_Us>
    2628:	4605                	li	a2,1
    262a:	04000593          	li	a1,64
    262e:	c0040513          	addi	a0,s0,-1024
    2632:	e1afe0ef          	jal	ra,c4c <GPIO_WriteBit>
    2636:	4515                	li	a0,5
    2638:	1d3000ef          	jal	ra,300a <Delay_Us>
    263c:	4605                	li	a2,1
    263e:	08000593          	li	a1,128
    2642:	c0040513          	addi	a0,s0,-1024
    2646:	e06fe0ef          	jal	ra,c4c <GPIO_WriteBit>
    264a:	4515                	li	a0,5
    264c:	1bf000ef          	jal	ra,300a <Delay_Us>
    2650:	3581                	jal	2490 <i2c_util_init>
    2652:	5579                	li	a0,-2
    2654:	00090363          	beqz	s2,265a <i2c_util_bus_recovery+0xf4>
    2658:	4501                	li	a0,0
    265a:	0141                	addi	sp,sp,16
    265c:	bb9fd06f          	j	214 <__riscv_restore_0>

00002660 <i2c_util_write>:
    2660:	b77fd2ef          	jal	t0,1d6 <__riscv_save_4>
    2664:	1141                	addi	sp,sp,-16
    2666:	89b6                	mv	s3,a3
    2668:	842a                	mv	s0,a0
    266a:	84ae                	mv	s1,a1
    266c:	8932                	mv	s2,a2
    266e:	951ff0ef          	jal	ra,1fbe <i2c_timeout_start>
    2672:	99dff0ef          	jal	ra,200e <i2c_get_ticks>
    2676:	86aa                	mv	a3,a0
    2678:	874e                	mv	a4,s3
    267a:	864a                	mv	a2,s2
    267c:	85a6                	mv	a1,s1
    267e:	8522                	mv	a0,s0
    2680:	a93ff0ef          	jal	ra,2112 <i2c_write_once>
    2684:	c62a                	sw	a0,12(sp)
    2686:	975ff0ef          	jal	ra,1ffa <i2c_timeout_stop>
    268a:	4532                	lw	a0,12(sp)
    268c:	c10d                	beqz	a0,26ae <i2c_util_write+0x4e>
    268e:	3de1                	jal	2566 <i2c_util_bus_recovery>
    2690:	92fff0ef          	jal	ra,1fbe <i2c_timeout_start>
    2694:	97bff0ef          	jal	ra,200e <i2c_get_ticks>
    2698:	86aa                	mv	a3,a0
    269a:	874e                	mv	a4,s3
    269c:	864a                	mv	a2,s2
    269e:	85a6                	mv	a1,s1
    26a0:	8522                	mv	a0,s0
    26a2:	a71ff0ef          	jal	ra,2112 <i2c_write_once>
    26a6:	c62a                	sw	a0,12(sp)
    26a8:	953ff0ef          	jal	ra,1ffa <i2c_timeout_stop>
    26ac:	4532                	lw	a0,12(sp)
    26ae:	0141                	addi	sp,sp,16
    26b0:	b5bfd06f          	j	20a <__riscv_restore_4>

000026b4 <i2c_util_read>:
    26b4:	b23fd2ef          	jal	t0,1d6 <__riscv_save_4>
    26b8:	1141                	addi	sp,sp,-16
    26ba:	8a3a                	mv	s4,a4
    26bc:	842a                	mv	s0,a0
    26be:	84ae                	mv	s1,a1
    26c0:	8932                	mv	s2,a2
    26c2:	89b6                	mv	s3,a3
    26c4:	8fbff0ef          	jal	ra,1fbe <i2c_timeout_start>
    26c8:	947ff0ef          	jal	ra,200e <i2c_get_ticks>
    26cc:	872a                	mv	a4,a0
    26ce:	87d2                	mv	a5,s4
    26d0:	86ce                	mv	a3,s3
    26d2:	864a                	mv	a2,s2
    26d4:	85a6                	mv	a1,s1
    26d6:	8522                	mv	a0,s0
    26d8:	bf1ff0ef          	jal	ra,22c8 <i2c_read_once>
    26dc:	c62a                	sw	a0,12(sp)
    26de:	91dff0ef          	jal	ra,1ffa <i2c_timeout_stop>
    26e2:	4532                	lw	a0,12(sp)
    26e4:	c115                	beqz	a0,2708 <i2c_util_read+0x54>
    26e6:	3541                	jal	2566 <i2c_util_bus_recovery>
    26e8:	8d7ff0ef          	jal	ra,1fbe <i2c_timeout_start>
    26ec:	923ff0ef          	jal	ra,200e <i2c_get_ticks>
    26f0:	872a                	mv	a4,a0
    26f2:	87d2                	mv	a5,s4
    26f4:	86ce                	mv	a3,s3
    26f6:	864a                	mv	a2,s2
    26f8:	85a6                	mv	a1,s1
    26fa:	8522                	mv	a0,s0
    26fc:	bcdff0ef          	jal	ra,22c8 <i2c_read_once>
    2700:	c62a                	sw	a0,12(sp)
    2702:	8f9ff0ef          	jal	ra,1ffa <i2c_timeout_stop>
    2706:	4532                	lw	a0,12(sp)
    2708:	0141                	addi	sp,sp,16
    270a:	b01fd06f          	j	20a <__riscv_restore_4>

0000270e <ina226_init>:
    270e:	ae3fd2ef          	jal	t0,1f0 <__riscv_save_0>
    2712:	842a                	mv	s0,a0
    2714:	6785                	lui	a5,0x1
    2716:	2108                	lbu	a0,0(a0)
    2718:	1141                	addi	sp,sp,-16
    271a:	d0578793          	addi	a5,a5,-763 # d05 <I2C_Init+0x7d>
    271e:	867c                	sh	a5,12(sp)
    2720:	3e800693          	li	a3,1000
    2724:	47ed                	li	a5,27
    2726:	460d                	li	a2,3
    2728:	006c                	addi	a1,sp,12
    272a:	875c                	sb	a5,14(sp)
    272c:	3f15                	jal	2660 <i2c_util_write>
    272e:	ed11                	bnez	a0,274a <ina226_init+0x3c>
    2730:	6791                	lui	a5,0x4
    2732:	2008                	lbu	a0,0(s0)
    2734:	10078793          	addi	a5,a5,256 # 4100 <__adddf3+0x80>
    2738:	867c                	sh	a5,12(sp)
    273a:	3e800693          	li	a3,1000
    273e:	02700793          	li	a5,39
    2742:	460d                	li	a2,3
    2744:	006c                	addi	a1,sp,12
    2746:	875c                	sb	a5,14(sp)
    2748:	3f21                	jal	2660 <i2c_util_write>
    274a:	0141                	addi	sp,sp,16
    274c:	ac9fd06f          	j	214 <__riscv_restore_0>

00002750 <ina226_check_alert>:
    2750:	aa1fd2ef          	jal	t0,1f0 <__riscv_save_0>
    2754:	2108                	lbu	a0,0(a0)
    2756:	1141                	addi	sp,sp,-16
    2758:	842e                	mv	s0,a1
    275a:	3e800713          	li	a4,1000
    275e:	4689                	li	a3,2
    2760:	0070                	addi	a2,sp,12
    2762:	4599                	li	a1,6
    2764:	3f81                	jal	26b4 <i2c_util_read>
    2766:	e511                	bnez	a0,2772 <ina226_check_alert+0x22>
    2768:	861c                	lbu	a5,12(sp)
    276a:	8698                	lbu	a4,13(sp)
    276c:	07a2                	slli	a5,a5,0x8
    276e:	8fd9                	or	a5,a5,a4
    2770:	a01e                	sh	a5,0(s0)
    2772:	0141                	addi	sp,sp,16
    2774:	aa1fd06f          	j	214 <__riscv_restore_0>

00002778 <cjson_arena_alloc>:
    2778:	88018693          	addi	a3,gp,-1920 # 20000288 <cjson_pool_used>
    277c:	4298                	lw	a4,0(a3)
    277e:	00750793          	addi	a5,a0,7
    2782:	9be1                	andi	a5,a5,-8
    2784:	97ba                	add	a5,a5,a4
    2786:	6605                	lui	a2,0x1
    2788:	00f66963          	bltu	a2,a5,279a <cjson_arena_alloc+0x22>
    278c:	20000537          	lui	a0,0x20000
    2790:	4a850513          	addi	a0,a0,1192 # 200004a8 <cjson_pool>
    2794:	953a                	add	a0,a0,a4
    2796:	c29c                	sw	a5,0(a3)
    2798:	8082                	ret
    279a:	4501                	li	a0,0
    279c:	8082                	ret

0000279e <cjson_arena_free>:
    279e:	8082                	ret

000027a0 <protocol_init>:
    27a0:	a51fd2ef          	jal	t0,1f0 <__riscv_save_0>
    27a4:	6511                	lui	a0,0x4
    27a6:	7179                	addi	sp,sp,-48
    27a8:	4585                	li	a1,1
    27aa:	0531                	addi	a0,a0,12
    27ac:	ca02                	sw	zero,20(sp)
    27ae:	cc02                	sw	zero,24(sp)
    27b0:	ce02                	sw	zero,28(sp)
    27b2:	d002                	sw	zero,32(sp)
    27b4:	d202                	sw	zero,36(sp)
    27b6:	d402                	sw	zero,40(sp)
    27b8:	d602                	sw	zero,44(sp)
    27ba:	c202                	sw	zero,4(sp)
    27bc:	c402                	sw	zero,8(sp)
    27be:	827fe0ef          	jal	ra,fe4 <RCC_APB2PeriphClockCmd>
    27c2:	40011437          	lui	s0,0x40011
    27c6:	20000793          	li	a5,512
    27ca:	448d                	li	s1,3
    27cc:	80040513          	addi	a0,s0,-2048 # 40010800 <_eusrstack+0x20008800>
    27d0:	82fc                	sh	a5,20(sp)
    27d2:	084c                	addi	a1,sp,20
    27d4:	47e1                	li	a5,24
    27d6:	cc26                	sw	s1,24(sp)
    27d8:	ce3e                	sw	a5,28(sp)
    27da:	ba4fe0ef          	jal	ra,b7e <GPIO_Init>
    27de:	40000793          	li	a5,1024
    27e2:	80040513          	addi	a0,s0,-2048
    27e6:	82fc                	sh	a5,20(sp)
    27e8:	084c                	addi	a1,sp,20
    27ea:	4791                	li	a5,4
    27ec:	cc26                	sw	s1,24(sp)
    27ee:	ce3e                	sw	a5,28(sp)
    27f0:	b8efe0ef          	jal	ra,b7e <GPIO_Init>
    27f4:	67f1                	lui	a5,0x1c
    27f6:	40014437          	lui	s0,0x40014
    27fa:	20078793          	addi	a5,a5,512 # 1c200 <_data_lma+0x14f94>
    27fe:	80040513          	addi	a0,s0,-2048 # 40013800 <_eusrstack+0x2000b800>
    2802:	d03e                	sw	a5,32(sp)
    2804:	100c                	addi	a1,sp,32
    2806:	000c07b7          	lui	a5,0xc0
    280a:	d43e                	sw	a5,40(sp)
    280c:	d202                	sw	zero,36(sp)
    280e:	02011623          	sh	zero,44(sp)
    2812:	88dfe0ef          	jal	ra,109e <USART_Init>
    2816:	4605                	li	a2,1
    2818:	42400593          	li	a1,1060
    281c:	80040513          	addi	a0,s0,-2048
    2820:	923fe0ef          	jal	ra,1142 <USART_ITConfig>
    2824:	13500793          	li	a5,309
    2828:	827c                	sh	a5,4(sp)
    282a:	4785                	li	a5,1
    282c:	835c                	sb	a5,6(sp)
    282e:	0048                	addi	a0,sp,4
    2830:	4785                	li	a5,1
    2832:	c43e                	sw	a5,8(sp)
    2834:	e30fe0ef          	jal	ra,e64 <NVIC_Init>
    2838:	80040513          	addi	a0,s0,-2048
    283c:	4585                	li	a1,1
    283e:	000074b7          	lui	s1,0x7
    2842:	8ebfe0ef          	jal	ra,112c <USART_Cmd>
    2846:	bd848493          	addi	s1,s1,-1064 # 6bd8 <__malloc_unlock+0x480>
    284a:	80040413          	addi	s0,s0,-2048
    284e:	00048903          	lb	s2,0(s1)
    2852:	06091563          	bnez	s2,28bc <protocol_init+0x11c>
    2856:	000027b7          	lui	a5,0x2
    285a:	77878793          	addi	a5,a5,1912 # 2778 <cjson_arena_alloc>
    285e:	c63e                	sw	a5,12(sp)
    2860:	000027b7          	lui	a5,0x2
    2864:	79e78793          	addi	a5,a5,1950 # 279e <cjson_arena_free>
    2868:	0068                	addi	a0,sp,12
    286a:	c83e                	sw	a5,16(sp)
    286c:	e9bfe0ef          	jal	ra,1706 <cJSON_InitHooks>
    2870:	8e2fe0ef          	jal	ra,952 <DBGMCU_GetCHIPID>
    2874:	20000437          	lui	s0,0x20000
    2878:	00007637          	lui	a2,0x7
    287c:	86aa                	mv	a3,a0
    287e:	bfc60613          	addi	a2,a2,-1028 # 6bfc <__malloc_unlock+0x4a4>
    2882:	45a5                	li	a1,9
    2884:	02c40513          	addi	a0,s0,44 # 2000002c <local_chip_id_str>
    2888:	068010ef          	jal	ra,38f0 <snprintf>
    288c:	00007537          	lui	a0,0x7
    2890:	20000593          	li	a1,512
    2894:	c0450513          	addi	a0,a0,-1020 # 6c04 <__malloc_unlock+0x4ac>
    2898:	034010ef          	jal	ra,38cc <printf>
    289c:	20000637          	lui	a2,0x20000
    28a0:	00007537          	lui	a0,0x7
    28a4:	02c40693          	addi	a3,s0,44
    28a8:	4a860613          	addi	a2,a2,1192 # 200004a8 <cjson_pool>
    28ac:	6585                	lui	a1,0x1
    28ae:	c4c50513          	addi	a0,a0,-948 # 6c4c <__malloc_unlock+0x4f4>
    28b2:	01a010ef          	jal	ra,38cc <printf>
    28b6:	6145                	addi	sp,sp,48
    28b8:	95dfd06f          	j	214 <__riscv_restore_0>
    28bc:	04000593          	li	a1,64
    28c0:	8522                	mv	a0,s0
    28c2:	8d9fe0ef          	jal	ra,119a <USART_GetFlagStatus>
    28c6:	d97d                	beqz	a0,28bc <protocol_init+0x11c>
    28c8:	01091593          	slli	a1,s2,0x10
    28cc:	81c1                	srli	a1,a1,0x10
    28ce:	8522                	mv	a0,s0
    28d0:	8bbfe0ef          	jal	ra,118a <USART_SendData>
    28d4:	0485                	addi	s1,s1,1
    28d6:	bfa5                	j	284e <protocol_init+0xae>

000028d8 <DMA_INIT>:
    28d8:	919fd2ef          	jal	t0,1f0 <__riscv_save_0>
    28dc:	7139                	addi	sp,sp,-64
    28de:	02c00613          	li	a2,44
    28e2:	4581                	li	a1,0
    28e4:	0848                	addi	a0,sp,20
    28e6:	93bfd0ef          	jal	ra,220 <memset>
    28ea:	4585                	li	a1,1
    28ec:	4505                	li	a0,1
    28ee:	40020437          	lui	s0,0x40020
    28f2:	c602                	sw	zero,12(sp)
    28f4:	c802                	sw	zero,16(sp)
    28f6:	ed0fe0ef          	jal	ra,fc6 <RCC_AHBPeriphClockCmd>
    28fa:	05840513          	addi	a0,s0,88 # 40020058 <_eusrstack+0x20018058>
    28fe:	85efe0ef          	jal	ra,95c <DMA_DeInit>
    2902:	400144b7          	lui	s1,0x40014
    2906:	678d                	lui	a5,0x3
    2908:	dc3e                	sw	a5,56(sp)
    290a:	80448793          	addi	a5,s1,-2044 # 40013804 <_eusrstack+0x2000b804>
    290e:	ca3e                	sw	a5,20(sp)
    2910:	08000713          	li	a4,128
    2914:	99d18793          	addi	a5,gp,-1635 # 200003a5 <USART_DMA_CTRL+0x1>
    2918:	084c                	addi	a1,sp,20
    291a:	05840513          	addi	a0,s0,88
    291e:	d43a                	sw	a4,40(sp)
    2920:	d03a                	sw	a4,32(sp)
    2922:	cc3e                	sw	a5,24(sp)
    2924:	d202                	sw	zero,36(sp)
    2926:	d602                	sw	zero,44(sp)
    2928:	d802                	sw	zero,48(sp)
    292a:	da02                	sw	zero,52(sp)
    292c:	de02                	sw	zero,60(sp)
    292e:	ce02                	sw	zero,28(sp)
    2930:	998fe0ef          	jal	ra,ac8 <DMA_Init>
    2934:	4605                	li	a2,1
    2936:	4589                	li	a1,2
    2938:	05840513          	addi	a0,s0,88
    293c:	9d8fe0ef          	jal	ra,b14 <DMA_ITConfig>
    2940:	11f00793          	li	a5,287
    2944:	867c                	sh	a5,12(sp)
    2946:	4785                	li	a5,1
    2948:	875c                	sb	a5,14(sp)
    294a:	0068                	addi	a0,sp,12
    294c:	4785                	li	a5,1
    294e:	c83e                	sw	a5,16(sp)
    2950:	d14fe0ef          	jal	ra,e64 <NVIC_Init>
    2954:	05840513          	addi	a0,s0,88
    2958:	4585                	li	a1,1
    295a:	9a6fe0ef          	jal	ra,b00 <DMA_Cmd>
    295e:	4605                	li	a2,1
    2960:	04000593          	li	a1,64
    2964:	80048513          	addi	a0,s1,-2048
    2968:	811fe0ef          	jal	ra,1178 <USART_DMACmd>
    296c:	6121                	addi	sp,sp,64
    296e:	8a7fd06f          	j	214 <__riscv_restore_0>

00002972 <ring_buffer_push_huge>:
    2972:	865fd2ef          	jal	t0,1d6 <__riscv_save_4>
    2976:	20001a37          	lui	s4,0x20001
    297a:	6a8a0793          	addi	a5,s4,1704 # 200016a8 <ring_buffer>
    297e:	4047d703          	lhu	a4,1028(a5) # 3404 <printLongLongInt+0xb0>
    2982:	40000793          	li	a5,1024
    2986:	8aaa                	mv	s5,a0
    2988:	8f99                	sub	a5,a5,a4
    298a:	843e                	mv	s0,a5
    298c:	07c2                	slli	a5,a5,0x10
    298e:	83c1                	srli	a5,a5,0x10
    2990:	6a8a0913          	addi	s2,s4,1704
    2994:	00f5f363          	bgeu	a1,a5,299a <ring_buffer_push_huge+0x28>
    2998:	842e                	mv	s0,a1
    299a:	40095483          	lhu	s1,1024(s2)
    299e:	40000993          	li	s3,1024
    29a2:	0442                	slli	s0,s0,0x10
    29a4:	04c2                	slli	s1,s1,0x10
    29a6:	80c1                	srli	s1,s1,0x10
    29a8:	409989b3          	sub	s3,s3,s1
    29ac:	09c2                	slli	s3,s3,0x10
    29ae:	8041                	srli	s0,s0,0x10
    29b0:	0109d993          	srli	s3,s3,0x10
    29b4:	0289e963          	bltu	s3,s0,29e6 <ring_buffer_push_huge+0x74>
    29b8:	40095503          	lhu	a0,1024(s2)
    29bc:	8622                	mv	a2,s0
    29be:	85d6                	mv	a1,s5
    29c0:	954a                	add	a0,a0,s2
    29c2:	1a1030ef          	jal	ra,6362 <memcpy>
    29c6:	40095783          	lhu	a5,1024(s2)
    29ca:	97a2                	add	a5,a5,s0
    29cc:	07c2                	slli	a5,a5,0x10
    29ce:	83c1                	srli	a5,a5,0x10
    29d0:	40f91023          	sh	a5,1024(s2)
    29d4:	40495783          	lhu	a5,1028(s2)
    29d8:	943e                	add	s0,s0,a5
    29da:	0442                	slli	s0,s0,0x10
    29dc:	8041                	srli	s0,s0,0x10
    29de:	40891223          	sh	s0,1028(s2)
    29e2:	829fd06f          	j	20a <__riscv_restore_4>
    29e6:	40095503          	lhu	a0,1024(s2)
    29ea:	c0048493          	addi	s1,s1,-1024
    29ee:	94a2                	add	s1,s1,s0
    29f0:	864e                	mv	a2,s3
    29f2:	85d6                	mv	a1,s5
    29f4:	04c2                	slli	s1,s1,0x10
    29f6:	954a                	add	a0,a0,s2
    29f8:	16b030ef          	jal	ra,6362 <memcpy>
    29fc:	80c1                	srli	s1,s1,0x10
    29fe:	8626                	mv	a2,s1
    2a00:	013a85b3          	add	a1,s5,s3
    2a04:	6a8a0513          	addi	a0,s4,1704
    2a08:	15b030ef          	jal	ra,6362 <memcpy>
    2a0c:	40991023          	sh	s1,1024(s2)
    2a10:	b7d1                	j	29d4 <ring_buffer_push_huge+0x62>

00002a12 <ring_buffer_pop>:
    2a12:	200017b7          	lui	a5,0x20001
    2a16:	6a878713          	addi	a4,a5,1704 # 200016a8 <ring_buffer>
    2a1a:	40275683          	lhu	a3,1026(a4)
    2a1e:	6a878793          	addi	a5,a5,1704
    2a22:	96ba                	add	a3,a3,a4
    2a24:	2288                	lbu	a0,0(a3)
    2a26:	40275683          	lhu	a3,1026(a4)
    2a2a:	0685                	addi	a3,a3,1
    2a2c:	06c2                	slli	a3,a3,0x10
    2a2e:	82c1                	srli	a3,a3,0x10
    2a30:	40d71123          	sh	a3,1026(a4)
    2a34:	40275703          	lhu	a4,1026(a4)
    2a38:	3ff00693          	li	a3,1023
    2a3c:	00e6f463          	bgeu	a3,a4,2a44 <ring_buffer_pop+0x32>
    2a40:	40079123          	sh	zero,1026(a5)
    2a44:	4047d703          	lhu	a4,1028(a5)
    2a48:	177d                	addi	a4,a4,-1
    2a4a:	0742                	slli	a4,a4,0x10
    2a4c:	8341                	srli	a4,a4,0x10
    2a4e:	40e79223          	sh	a4,1028(a5)
    2a52:	8082                	ret

00002a54 <protocol_poll>:
    2a54:	f74fd2ef          	jal	t0,1c8 <__riscv_save_10>
    2a58:	20001937          	lui	s2,0x20001
    2a5c:	20001437          	lui	s0,0x20001
    2a60:	6a890913          	addi	s2,s2,1704 # 200016a8 <ring_buffer>
    2a64:	49a9                	li	s3,10
    2a66:	5a840413          	addi	s0,s0,1448 # 200015a8 <line_buf>
    2a6a:	4a35                	li	s4,13
    2a6c:	0fe00b13          	li	s6,254
    2a70:	40495783          	lhu	a5,1028(s2)
    2a74:	07c2                	slli	a5,a5,0x10
    2a76:	83c1                	srli	a5,a5,0x10
    2a78:	e781                	bnez	a5,2a80 <protocol_poll+0x2c>
    2a7a:	4501                	li	a0,0
    2a7c:	f84fd06f          	j	200 <__riscv_restore_10>
    2a80:	3f49                	jal	2a12 <ring_buffer_pop>
    2a82:	88418793          	addi	a5,gp,-1916 # 2000028c <line_pos>
    2a86:	2386                	lhu	s1,0(a5)
    2a88:	88418b93          	addi	s7,gp,-1916 # 2000028c <line_pos>
    2a8c:	01350463          	beq	a0,s3,2a94 <protocol_poll+0x40>
    2a90:	03451f63          	bne	a0,s4,2ace <protocol_poll+0x7a>
    2a94:	40495783          	lhu	a5,1028(s2)
    2a98:	07c2                	slli	a5,a5,0x10
    2a9a:	83c1                	srli	a5,a5,0x10
    2a9c:	cf99                	beqz	a5,2aba <protocol_poll+0x66>
    2a9e:	40295783          	lhu	a5,1026(s2)
    2aa2:	97ca                	add	a5,a5,s2
    2aa4:	239c                	lbu	a5,0(a5)
    2aa6:	01451663          	bne	a0,s4,2ab2 <protocol_poll+0x5e>
    2aaa:	01379863          	bne	a5,s3,2aba <protocol_poll+0x66>
    2aae:	3795                	jal	2a12 <ring_buffer_pop>
    2ab0:	a029                	j	2aba <protocol_poll+0x66>
    2ab2:	01351463          	bne	a0,s3,2aba <protocol_poll+0x66>
    2ab6:	ff478ce3          	beq	a5,s4,2aae <protocol_poll+0x5a>
    2aba:	94a2                	add	s1,s1,s0
    2abc:	00048023          	sb	zero,0(s1)
    2ac0:	00040783          	lb	a5,0(s0)
    2ac4:	000b9023          	sh	zero,0(s7)
    2ac8:	d7c5                	beqz	a5,2a70 <protocol_poll+0x1c>
    2aca:	8522                	mv	a0,s0
    2acc:	bf45                	j	2a7c <protocol_poll+0x28>
    2ace:	fa9b61e3          	bltu	s6,s1,2a70 <protocol_poll+0x1c>
    2ad2:	00148713          	addi	a4,s1,1
    2ad6:	94a2                	add	s1,s1,s0
    2ad8:	a39a                	sh	a4,0(a5)
    2ada:	a088                	sb	a0,0(s1)
    2adc:	bf51                	j	2a70 <protocol_poll+0x1c>

00002ade <protocol_send>:
    2ade:	f12fd2ef          	jal	t0,1f0 <__riscv_save_0>
    2ae2:	400144b7          	lui	s1,0x40014
    2ae6:	842a                	mv	s0,a0
    2ae8:	80048493          	addi	s1,s1,-2048 # 40013800 <_eusrstack+0x2000b800>
    2aec:	00040783          	lb	a5,0(s0)
    2af0:	e395                	bnez	a5,2b14 <protocol_send+0x36>
    2af2:	40014437          	lui	s0,0x40014
    2af6:	80040493          	addi	s1,s0,-2048 # 40013800 <_eusrstack+0x2000b800>
    2afa:	04000593          	li	a1,64
    2afe:	8526                	mv	a0,s1
    2b00:	e9afe0ef          	jal	ra,119a <USART_GetFlagStatus>
    2b04:	d97d                	beqz	a0,2afa <protocol_send+0x1c>
    2b06:	45a9                	li	a1,10
    2b08:	80040513          	addi	a0,s0,-2048
    2b0c:	e7efe0ef          	jal	ra,118a <USART_SendData>
    2b10:	f04fd06f          	j	214 <__riscv_restore_0>
    2b14:	04000593          	li	a1,64
    2b18:	8526                	mv	a0,s1
    2b1a:	e80fe0ef          	jal	ra,119a <USART_GetFlagStatus>
    2b1e:	d97d                	beqz	a0,2b14 <protocol_send+0x36>
    2b20:	00040583          	lb	a1,0(s0)
    2b24:	8526                	mv	a0,s1
    2b26:	0405                	addi	s0,s0,1
    2b28:	05c2                	slli	a1,a1,0x10
    2b2a:	81c1                	srli	a1,a1,0x10
    2b2c:	e5efe0ef          	jal	ra,118a <USART_SendData>
    2b30:	bf75                	j	2aec <protocol_send+0xe>

00002b32 <send_response_ok>:
    2b32:	ebefd2ef          	jal	t0,1f0 <__riscv_save_0>
    2b36:	20001437          	lui	s0,0x20001
    2b3a:	200006b7          	lui	a3,0x20000
    2b3e:	00007637          	lui	a2,0x7
    2b42:	87aa                	mv	a5,a0
    2b44:	0c800713          	li	a4,200
    2b48:	02c68693          	addi	a3,a3,44 # 2000002c <local_chip_id_str>
    2b4c:	e7c60613          	addi	a2,a2,-388 # 6e7c <__malloc_unlock+0x724>
    2b50:	10000593          	li	a1,256
    2b54:	4a840513          	addi	a0,s0,1192 # 200014a8 <frame_buf>
    2b58:	599000ef          	jal	ra,38f0 <snprintf>
    2b5c:	4a840513          	addi	a0,s0,1192
    2b60:	3fbd                	jal	2ade <protocol_send>
    2b62:	eb2fd06f          	j	214 <__riscv_restore_0>

00002b66 <send_error_ack>:
    2b66:	e8afd2ef          	jal	t0,1f0 <__riscv_save_0>
    2b6a:	88b2                	mv	a7,a2
    2b6c:	20001437          	lui	s0,0x20001
    2b70:	200006b7          	lui	a3,0x20000
    2b74:	00007637          	lui	a2,0x7
    2b78:	87aa                	mv	a5,a0
    2b7a:	882e                	mv	a6,a1
    2b7c:	0c800713          	li	a4,200
    2b80:	02c68693          	addi	a3,a3,44 # 2000002c <local_chip_id_str>
    2b84:	e3c60613          	addi	a2,a2,-452 # 6e3c <__malloc_unlock+0x6e4>
    2b88:	10000593          	li	a1,256
    2b8c:	4a840513          	addi	a0,s0,1192 # 200014a8 <frame_buf>
    2b90:	561000ef          	jal	ra,38f0 <snprintf>
    2b94:	157d                	addi	a0,a0,-1
    2b96:	0fe00793          	li	a5,254
    2b9a:	00a7e563          	bltu	a5,a0,2ba4 <send_error_ack+0x3e>
    2b9e:	4a840513          	addi	a0,s0,1192
    2ba2:	3f35                	jal	2ade <protocol_send>
    2ba4:	e70fd06f          	j	214 <__riscv_restore_0>

00002ba8 <protocol_process_command>:
    2ba8:	e2efd2ef          	jal	t0,1d6 <__riscv_save_4>
    2bac:	1141                	addi	sp,sp,-16
    2bae:	00010223          	sb	zero,4(sp)
    2bb2:	84aa                	mv	s1,a0
    2bb4:	34050263          	beqz	a0,2ef8 <protocol_process_command+0x350>
    2bb8:	00050703          	lb	a4,0(a0)
    2bbc:	03c00793          	li	a5,60
    2bc0:	32f71c63          	bne	a4,a5,2ef8 <protocol_process_command+0x350>
    2bc4:	4781                	li	a5,0
    2bc6:	02c00693          	li	a3,44
    2bca:	03e00513          	li	a0,62
    2bce:	4621                	li	a2,8
    2bd0:	00f48733          	add	a4,s1,a5
    2bd4:	00170703          	lb	a4,1(a4)
    2bd8:	32070963          	beqz	a4,2f0a <protocol_process_command+0x362>
    2bdc:	32d70763          	beq	a4,a3,2f0a <protocol_process_command+0x362>
    2be0:	32a70563          	beq	a4,a0,2f0a <protocol_process_command+0x362>
    2be4:	004c                	addi	a1,sp,4
    2be6:	95be                	add	a1,a1,a5
    2be8:	a198                	sb	a4,0(a1)
    2bea:	0785                	addi	a5,a5,1
    2bec:	fec792e3          	bne	a5,a2,2bd0 <protocol_process_command+0x28>
    2bf0:	00948783          	lb	a5,9(s1)
    2bf4:	00010623          	sb	zero,12(sp)
    2bf8:	30d79b63          	bne	a5,a3,2f0e <protocol_process_command+0x366>
    2bfc:	00a48793          	addi	a5,s1,10
    2c00:	00d48613          	addi	a2,s1,13
    2c04:	4401                	li	s0,0
    2c06:	4525                	li	a0,9
    2c08:	45a9                	li	a1,10
    2c0a:	00078683          	lb	a3,0(a5)
    2c0e:	fd068713          	addi	a4,a3,-48
    2c12:	0ff77713          	andi	a4,a4,255
    2c16:	2ee56e63          	bltu	a0,a4,2f12 <protocol_process_command+0x36a>
    2c1a:	02b40433          	mul	s0,s0,a1
    2c1e:	0785                	addi	a5,a5,1
    2c20:	fd040413          	addi	s0,s0,-48
    2c24:	9436                	add	s0,s0,a3
    2c26:	0442                	slli	s0,s0,0x10
    2c28:	8041                	srli	s0,s0,0x10
    2c2a:	fec790e3          	bne	a5,a2,2c0a <protocol_process_command+0x62>
    2c2e:	00d48703          	lb	a4,13(s1)
    2c32:	03e00793          	li	a5,62
    2c36:	2ef71063          	bne	a4,a5,2f16 <protocol_process_command+0x36e>
    2c3a:	f9c40793          	addi	a5,s0,-100
    2c3e:	07c2                	slli	a5,a5,0x10
    2c40:	83c1                	srli	a5,a5,0x10
    2c42:	06300713          	li	a4,99
    2c46:	00e48993          	addi	s3,s1,14
    2c4a:	00f76a63          	bltu	a4,a5,2c5e <protocol_process_command+0xb6>
    2c4e:	200005b7          	lui	a1,0x20000
    2c52:	02c58593          	addi	a1,a1,44 # 2000002c <local_chip_id_str>
    2c56:	0048                	addi	a0,sp,4
    2c58:	e70fd0ef          	jal	ra,2c8 <strcmp>
    2c5c:	e915                	bnez	a0,2c90 <protocol_process_command+0xe8>
    2c5e:	854e                	mv	a0,s3
    2c60:	ae9fe0ef          	jal	ra,1748 <cJSON_Parse>
    2c64:	8a2a                	mv	s4,a0
    2c66:	88018913          	addi	s2,gp,-1920 # 20000288 <cjson_pool_used>
    2c6a:	e515                	bnez	a0,2c96 <protocol_process_command+0xee>
    2c6c:	00007537          	lui	a0,0x7
    2c70:	85ce                	mv	a1,s3
    2c72:	c8850513          	addi	a0,a0,-888 # 6c88 <__malloc_unlock+0x530>
    2c76:	457000ef          	jal	ra,38cc <printf>
    2c7a:	00007637          	lui	a2,0x7
    2c7e:	ca860613          	addi	a2,a2,-856 # 6ca8 <__malloc_unlock+0x550>
    2c82:	06500593          	li	a1,101
    2c86:	8522                	mv	a0,s0
    2c88:	edfff0ef          	jal	ra,2b66 <send_error_ack>
    2c8c:	00092023          	sw	zero,0(s2)
    2c90:	0141                	addi	sp,sp,16
    2c92:	d78fd06f          	j	20a <__riscv_restore_4>
    2c96:	06600793          	li	a5,102
    2c9a:	1af40063          	beq	s0,a5,2e3a <protocol_process_command+0x292>
    2c9e:	0c800793          	li	a5,200
    2ca2:	22f40b63          	beq	s0,a5,2ed8 <protocol_process_command+0x330>
    2ca6:	06500793          	li	a5,101
    2caa:	22f41f63          	bne	s0,a5,2ee8 <protocol_process_command+0x340>
    2cae:	8481a683          	lw	a3,-1976(gp) # 20000250 <system_mode>
    2cb2:	470d                	li	a4,3
    2cb4:	89be                	mv	s3,a5
    2cb6:	00e69d63          	bne	a3,a4,2cd0 <protocol_process_command+0x128>
    2cba:	00007637          	lui	a2,0x7
    2cbe:	cb860613          	addi	a2,a2,-840 # 6cb8 <__malloc_unlock+0x560>
    2cc2:	12f00593          	li	a1,303
    2cc6:	06500513          	li	a0,101
    2cca:	e9dff0ef          	jal	ra,2b66 <send_error_ack>
    2cce:	a055                	j	2d72 <protocol_process_command+0x1ca>
    2cd0:	000075b7          	lui	a1,0x7
    2cd4:	cdc58593          	addi	a1,a1,-804 # 6cdc <__malloc_unlock+0x584>
    2cd8:	ab5fe0ef          	jal	ra,178c <cJSON_GetObjectItem>
    2cdc:	4481                	li	s1,0
    2cde:	c509                	beqz	a0,2ce8 <protocol_process_command+0x140>
    2ce0:	455c                	lw	a5,12(a0)
    2ce2:	8bc1                	andi	a5,a5,16
    2ce4:	c391                	beqz	a5,2ce8 <protocol_process_command+0x140>
    2ce6:	4904                	lw	s1,16(a0)
    2ce8:	000075b7          	lui	a1,0x7
    2cec:	ce058593          	addi	a1,a1,-800 # 6ce0 <__malloc_unlock+0x588>
    2cf0:	8552                	mv	a0,s4
    2cf2:	a9bfe0ef          	jal	ra,178c <cJSON_GetObjectItem>
    2cf6:	4401                	li	s0,0
    2cf8:	c509                	beqz	a0,2d02 <protocol_process_command+0x15a>
    2cfa:	455c                	lw	a5,12(a0)
    2cfc:	8bc1                	andi	a5,a5,16
    2cfe:	c391                	beqz	a5,2d02 <protocol_process_command+0x15a>
    2d00:	4900                	lw	s0,16(a0)
    2d02:	8481a783          	lw	a5,-1976(gp) # 20000250 <system_mode>
    2d06:	4709                	li	a4,2
    2d08:	06e79963          	bne	a5,a4,2d7a <protocol_process_command+0x1d2>
    2d0c:	e881                	bnez	s1,2d1c <protocol_process_command+0x174>
    2d0e:	00007637          	lui	a2,0x7
    2d12:	ce460613          	addi	a2,a2,-796 # 6ce4 <__malloc_unlock+0x58c>
    2d16:	0c900593          	li	a1,201
    2d1a:	b775                	j	2cc6 <protocol_process_command+0x11e>
    2d1c:	8526                	mv	a0,s1
    2d1e:	5da030ef          	jal	ra,62f8 <atoi>
    2d22:	3f6030ef          	jal	ra,6118 <__floatsisf>
    2d26:	000077b7          	lui	a5,0x7
    2d2a:	c7c7a583          	lw	a1,-900(a5) # 6c7c <__malloc_unlock+0x524>
    2d2e:	02a030ef          	jal	ra,5d58 <__divsf3>
    2d32:	00000593          	li	a1,0
    2d36:	842a                	mv	s0,a0
    2d38:	354030ef          	jal	ra,608c <__lesf2>
    2d3c:	00054b63          	bltz	a0,2d52 <protocol_process_command+0x1aa>
    2d40:	000077b7          	lui	a5,0x7
    2d44:	c807a583          	lw	a1,-896(a5) # 6c80 <__malloc_unlock+0x528>
    2d48:	8522                	mv	a0,s0
    2d4a:	2bc030ef          	jal	ra,6006 <__gesf2>
    2d4e:	00a05963          	blez	a0,2d60 <protocol_process_command+0x1b8>
    2d52:	00007637          	lui	a2,0x7
    2d56:	d0c60613          	addi	a2,a2,-756 # 6d0c <__malloc_unlock+0x5b4>
    2d5a:	0ca00593          	li	a1,202
    2d5e:	b7a5                	j	2cc6 <protocol_process_command+0x11e>
    2d60:	8881a423          	sw	s0,-1912(gp) # 20000290 <stored_cc_target>
    2d64:	8522                	mv	a0,s0
    2d66:	fb4fd0ef          	jal	ra,51a <engage_cc>
    2d6a:	06500513          	li	a0,101
    2d6e:	dc5ff0ef          	jal	ra,2b32 <send_response_ok>
    2d72:	8552                	mv	a0,s4
    2d74:	9a3fe0ef          	jal	ra,1716 <cJSON_Delete>
    2d78:	bf11                	j	2c8c <protocol_process_command+0xe4>
    2d7a:	4705                	li	a4,1
    2d7c:	04e79e63          	bne	a5,a4,2dd8 <protocol_process_command+0x230>
    2d80:	e411                	bnez	s0,2d8c <protocol_process_command+0x1e4>
    2d82:	00007637          	lui	a2,0x7
    2d86:	d2860613          	addi	a2,a2,-728 # 6d28 <__malloc_unlock+0x5d0>
    2d8a:	b771                	j	2d16 <protocol_process_command+0x16e>
    2d8c:	8522                	mv	a0,s0
    2d8e:	56a030ef          	jal	ra,62f8 <atoi>
    2d92:	386030ef          	jal	ra,6118 <__floatsisf>
    2d96:	000077b7          	lui	a5,0x7
    2d9a:	c7c7a583          	lw	a1,-900(a5) # 6c7c <__malloc_unlock+0x524>
    2d9e:	7bb020ef          	jal	ra,5d58 <__divsf3>
    2da2:	00000593          	li	a1,0
    2da6:	842a                	mv	s0,a0
    2da8:	2e4030ef          	jal	ra,608c <__lesf2>
    2dac:	00054b63          	bltz	a0,2dc2 <protocol_process_command+0x21a>
    2db0:	000077b7          	lui	a5,0x7
    2db4:	c847a583          	lw	a1,-892(a5) # 6c84 <__malloc_unlock+0x52c>
    2db8:	8522                	mv	a0,s0
    2dba:	24c030ef          	jal	ra,6006 <__gesf2>
    2dbe:	00a05763          	blez	a0,2dcc <protocol_process_command+0x224>
    2dc2:	00007637          	lui	a2,0x7
    2dc6:	d5060613          	addi	a2,a2,-688 # 6d50 <__malloc_unlock+0x5f8>
    2dca:	bf41                	j	2d5a <protocol_process_command+0x1b2>
    2dcc:	8881a623          	sw	s0,-1908(gp) # 20000294 <stored_cv_target>
    2dd0:	8522                	mv	a0,s0
    2dd2:	f20fd0ef          	jal	ra,4f2 <engage_cv>
    2dd6:	bf51                	j	2d6a <protocol_process_command+0x1c2>
    2dd8:	88818993          	addi	s3,gp,-1912 # 20000290 <stored_cc_target>
    2ddc:	cc91                	beqz	s1,2df8 <protocol_process_command+0x250>
    2dde:	8526                	mv	a0,s1
    2de0:	518030ef          	jal	ra,62f8 <atoi>
    2de4:	334030ef          	jal	ra,6118 <__floatsisf>
    2de8:	000077b7          	lui	a5,0x7
    2dec:	c7c7a583          	lw	a1,-900(a5) # 6c7c <__malloc_unlock+0x524>
    2df0:	769020ef          	jal	ra,5d58 <__divsf3>
    2df4:	00a9a023          	sw	a0,0(s3)
    2df8:	cc11                	beqz	s0,2e14 <protocol_process_command+0x26c>
    2dfa:	8522                	mv	a0,s0
    2dfc:	4fc030ef          	jal	ra,62f8 <atoi>
    2e00:	318030ef          	jal	ra,6118 <__floatsisf>
    2e04:	000077b7          	lui	a5,0x7
    2e08:	c7c7a583          	lw	a1,-900(a5) # 6c7c <__malloc_unlock+0x524>
    2e0c:	74d020ef          	jal	ra,5d58 <__divsf3>
    2e10:	88a1a623          	sw	a0,-1908(gp) # 20000294 <stored_cv_target>
    2e14:	0009a403          	lw	s0,0(s3)
    2e18:	00000593          	li	a1,0
    2e1c:	8522                	mv	a0,s0
    2e1e:	1e8030ef          	jal	ra,6006 <__gesf2>
    2e22:	f4a041e3          	bgtz	a0,2d64 <protocol_process_command+0x1bc>
    2e26:	88c1a403          	lw	s0,-1908(gp) # 20000294 <stored_cv_target>
    2e2a:	00000593          	li	a1,0
    2e2e:	8522                	mv	a0,s0
    2e30:	1d6030ef          	jal	ra,6006 <__gesf2>
    2e34:	f2a05be3          	blez	a0,2d6a <protocol_process_command+0x1c2>
    2e38:	bf61                	j	2dd0 <protocol_process_command+0x228>
    2e3a:	8481a703          	lw	a4,-1976(gp) # 20000250 <system_mode>
    2e3e:	478d                	li	a5,3
    2e40:	00f71b63          	bne	a4,a5,2e56 <protocol_process_command+0x2ae>
    2e44:	00007637          	lui	a2,0x7
    2e48:	cb860613          	addi	a2,a2,-840 # 6cb8 <__malloc_unlock+0x560>
    2e4c:	12f00593          	li	a1,303
    2e50:	06600513          	li	a0,102
    2e54:	bd9d                	j	2cca <protocol_process_command+0x122>
    2e56:	000075b7          	lui	a1,0x7
    2e5a:	d8458593          	addi	a1,a1,-636 # 6d84 <__malloc_unlock+0x62c>
    2e5e:	92ffe0ef          	jal	ra,178c <cJSON_GetObjectItem>
    2e62:	c501                	beqz	a0,2e6a <protocol_process_command+0x2c2>
    2e64:	455c                	lw	a5,12(a0)
    2e66:	8bc1                	andi	a5,a5,16
    2e68:	eb81                	bnez	a5,2e78 <protocol_process_command+0x2d0>
    2e6a:	00007637          	lui	a2,0x7
    2e6e:	d6c60613          	addi	a2,a2,-660 # 6d6c <__malloc_unlock+0x614>
    2e72:	0c900593          	li	a1,201
    2e76:	bfe9                	j	2e50 <protocol_process_command+0x2a8>
    2e78:	4908                	lw	a0,16(a0)
    2e7a:	47e030ef          	jal	ra,62f8 <atoi>
    2e7e:	47b1                	li	a5,12
    2e80:	04f50063          	beq	a0,a5,2ec0 <protocol_process_command+0x318>
    2e84:	00a7cc63          	blt	a5,a0,2e9c <protocol_process_command+0x2f4>
    2e88:	47ad                	li	a5,11
    2e8a:	02f50463          	beq	a0,a5,2eb2 <protocol_process_command+0x30a>
    2e8e:	00007637          	lui	a2,0x7
    2e92:	dd060613          	addi	a2,a2,-560 # 6dd0 <__malloc_unlock+0x678>
    2e96:	0cb00593          	li	a1,203
    2e9a:	bf5d                	j	2e50 <protocol_process_command+0x2a8>
    2e9c:	47d1                	li	a5,20
    2e9e:	02f50663          	beq	a0,a5,2eca <protocol_process_command+0x322>
    2ea2:	47d5                	li	a5,21
    2ea4:	fef515e3          	bne	a0,a5,2e8e <protocol_process_command+0x2e6>
    2ea8:	00007637          	lui	a2,0x7
    2eac:	db060613          	addi	a2,a2,-592 # 6db0 <__malloc_unlock+0x658>
    2eb0:	a00d                	j	2ed2 <protocol_process_command+0x32a>
    2eb2:	8881a503          	lw	a0,-1912(gp) # 20000290 <stored_cc_target>
    2eb6:	e64fd0ef          	jal	ra,51a <engage_cc>
    2eba:	06600513          	li	a0,102
    2ebe:	bd45                	j	2d6e <protocol_process_command+0x1c6>
    2ec0:	88c1a503          	lw	a0,-1908(gp) # 20000294 <stored_cv_target>
    2ec4:	e2efd0ef          	jal	ra,4f2 <engage_cv>
    2ec8:	bfcd                	j	2eba <protocol_process_command+0x312>
    2eca:	00007637          	lui	a2,0x7
    2ece:	d8c60613          	addi	a2,a2,-628 # 6d8c <__malloc_unlock+0x634>
    2ed2:	0ce00593          	li	a1,206
    2ed6:	bfad                	j	2e50 <protocol_process_command+0x2a8>
    2ed8:	00007537          	lui	a0,0x7
    2edc:	85a6                	mv	a1,s1
    2ede:	df450513          	addi	a0,a0,-524 # 6df4 <__malloc_unlock+0x69c>
    2ee2:	1eb000ef          	jal	ra,38cc <printf>
    2ee6:	b571                	j	2d72 <protocol_process_command+0x1ca>
    2ee8:	00007637          	lui	a2,0x7
    2eec:	e1060613          	addi	a2,a2,-496 # 6e10 <__malloc_unlock+0x6b8>
    2ef0:	0cc00593          	li	a1,204
    2ef4:	8522                	mv	a0,s0
    2ef6:	bbd1                	j	2cca <protocol_process_command+0x122>
    2ef8:	55fd                	li	a1,-1
    2efa:	00007537          	lui	a0,0x7
    2efe:	8626                	mv	a2,s1
    2f00:	e2050513          	addi	a0,a0,-480 # 6e20 <__malloc_unlock+0x6c8>
    2f04:	1c9000ef          	jal	ra,38cc <printf>
    2f08:	b361                	j	2c90 <protocol_process_command+0xe8>
    2f0a:	55f9                	li	a1,-2
    2f0c:	b7fd                	j	2efa <protocol_process_command+0x352>
    2f0e:	55f5                	li	a1,-3
    2f10:	b7ed                	j	2efa <protocol_process_command+0x352>
    2f12:	55f1                	li	a1,-4
    2f14:	b7dd                	j	2efa <protocol_process_command+0x352>
    2f16:	55ed                	li	a1,-5
    2f18:	b7cd                	j	2efa <protocol_process_command+0x352>

00002f1a <cdc_send_telemetry>:
    2f1a:	ad6fd2ef          	jal	t0,1f0 <__riscv_save_0>
    2f1e:	8481a783          	lw	a5,-1976(gp) # 20000250 <system_mode>
    2f22:	4705                	li	a4,1
    2f24:	1101                	addi	sp,sp,-32
    2f26:	06e79563          	bne	a5,a4,2f90 <cdc_send_telemetry+0x76>
    2f2a:	8341a503          	lw	a0,-1996(gp) # 2000023c <cv_target_voltage>
    2f2e:	00007737          	lui	a4,0x7
    2f32:	b8470713          	addi	a4,a4,-1148 # 6b84 <__malloc_unlock+0x42c>
    2f36:	87c18793          	addi	a5,gp,-1924 # 20000284 <cdc_seq.6703>
    2f3a:	2396                	lhu	a3,0(a5)
    2f3c:	ce3a                	sw	a4,28(sp)
    2f3e:	20001437          	lui	s0,0x20001
    2f42:	00168613          	addi	a2,a3,1
    2f46:	a392                	sh	a2,0(a5)
    2f48:	cc36                	sw	a3,24(sp)
    2f4a:	294030ef          	jal	ra,61de <__extendsfdf2>
    2f4e:	4772                	lw	a4,28(sp)
    2f50:	46e2                	lw	a3,24(sp)
    2f52:	00007637          	lui	a2,0x7
    2f56:	882a                	mv	a6,a0
    2f58:	88ae                	mv	a7,a1
    2f5a:	c402                	sw	zero,8(sp)
    2f5c:	c202                	sw	zero,4(sp)
    2f5e:	c002                	sw	zero,0(sp)
    2f60:	b9c60613          	addi	a2,a2,-1124 # 6b9c <__malloc_unlock+0x444>
    2f64:	10000593          	li	a1,256
    2f68:	4a840513          	addi	a0,s0,1192 # 200014a8 <frame_buf>
    2f6c:	185000ef          	jal	ra,38f0 <snprintf>
    2f70:	157d                	addi	a0,a0,-1
    2f72:	0fe00793          	li	a5,254
    2f76:	00a7ea63          	bltu	a5,a0,2f8a <cdc_send_telemetry+0x70>
    2f7a:	00007537          	lui	a0,0x7
    2f7e:	4a840593          	addi	a1,s0,1192
    2f82:	82c50513          	addi	a0,a0,-2004 # 682c <__malloc_unlock+0xd4>
    2f86:	147000ef          	jal	ra,38cc <printf>
    2f8a:	6105                	addi	sp,sp,32
    2f8c:	a88fd06f          	j	214 <__riscv_restore_0>
    2f90:	4709                	li	a4,2
    2f92:	00e79963          	bne	a5,a4,2fa4 <cdc_send_telemetry+0x8a>
    2f96:	00007737          	lui	a4,0x7
    2f9a:	8301a503          	lw	a0,-2000(gp) # 20000238 <cc_target_current>
    2f9e:	b8870713          	addi	a4,a4,-1144 # 6b88 <__malloc_unlock+0x430>
    2fa2:	bf51                	j	2f36 <cdc_send_telemetry+0x1c>
    2fa4:	470d                	li	a4,3
    2fa6:	00000513          	li	a0,0
    2faa:	00e78763          	beq	a5,a4,2fb8 <cdc_send_telemetry+0x9e>
    2fae:	00007737          	lui	a4,0x7
    2fb2:	b9470713          	addi	a4,a4,-1132 # 6b94 <__malloc_unlock+0x43c>
    2fb6:	b741                	j	2f36 <cdc_send_telemetry+0x1c>
    2fb8:	00007737          	lui	a4,0x7
    2fbc:	b8c70713          	addi	a4,a4,-1140 # 6b8c <__malloc_unlock+0x434>
    2fc0:	bf9d                	j	2f36 <cdc_send_telemetry+0x1c>

00002fc2 <usb_cdc_init>:
    2fc2:	a2efd2ef          	jal	t0,1f0 <__riscv_save_0>
    2fc6:	85dfe0ef          	jal	ra,1822 <USBFS_RCC_Init>
    2fca:	4505                	li	a0,1
    2fcc:	909fe0ef          	jal	ra,18d4 <USBFS_Device_Init>
    2fd0:	00007537          	lui	a0,0x7
    2fd4:	ea050513          	addi	a0,a0,-352 # 6ea0 <__malloc_unlock+0x748>
    2fd8:	143000ef          	jal	ra,391a <puts>
    2fdc:	a38fd06f          	j	214 <__riscv_restore_0>

00002fe0 <Delay_Init>:
    2fe0:	200007b7          	lui	a5,0x20000
    2fe4:	2087a783          	lw	a5,520(a5) # 20000208 <SystemCoreClock>
    2fe8:	007a1737          	lui	a4,0x7a1
    2fec:	20070713          	addi	a4,a4,512 # 7a1200 <_data_lma+0x799f94>
    2ff0:	02e7d7b3          	divu	a5,a5,a4
    2ff4:	0ff7f793          	andi	a5,a5,255
    2ff8:	88f18923          	sb	a5,-1902(gp) # 2000029a <p_us>
    2ffc:	3e800713          	li	a4,1000
    3000:	02e787b3          	mul	a5,a5,a4
    3004:	88f19823          	sh	a5,-1904(gp) # 20000298 <p_ms>
    3008:	8082                	ret

0000300a <Delay_Us>:
    300a:	e000f7b7          	lui	a5,0xe000f
    300e:	43d8                	lw	a4,4(a5)
    3010:	4681                	li	a3,0
    3012:	9b79                	andi	a4,a4,-2
    3014:	c3d8                	sw	a4,4(a5)
    3016:	8921c703          	lbu	a4,-1902(gp) # 2000029a <p_us>
    301a:	02a70633          	mul	a2,a4,a0
    301e:	cb90                	sw	a2,16(a5)
    3020:	cbd4                	sw	a3,20(a5)
    3022:	4398                	lw	a4,0(a5)
    3024:	01076713          	ori	a4,a4,16
    3028:	c398                	sw	a4,0(a5)
    302a:	4398                	lw	a4,0(a5)
    302c:	02176713          	ori	a4,a4,33
    3030:	c398                	sw	a4,0(a5)
    3032:	43d8                	lw	a4,4(a5)
    3034:	8b05                	andi	a4,a4,1
    3036:	df75                	beqz	a4,3032 <Delay_Us+0x28>
    3038:	4398                	lw	a4,0(a5)
    303a:	9b79                	andi	a4,a4,-2
    303c:	c398                	sw	a4,0(a5)
    303e:	8082                	ret

00003040 <Delay_Ms>:
    3040:	e000f7b7          	lui	a5,0xe000f
    3044:	43d8                	lw	a4,4(a5)
    3046:	4681                	li	a3,0
    3048:	9b79                	andi	a4,a4,-2
    304a:	c3d8                	sw	a4,4(a5)
    304c:	8901d703          	lhu	a4,-1904(gp) # 20000298 <p_ms>
    3050:	02a70633          	mul	a2,a4,a0
    3054:	cb90                	sw	a2,16(a5)
    3056:	cbd4                	sw	a3,20(a5)
    3058:	4398                	lw	a4,0(a5)
    305a:	01076713          	ori	a4,a4,16
    305e:	c398                	sw	a4,0(a5)
    3060:	4398                	lw	a4,0(a5)
    3062:	02176713          	ori	a4,a4,33
    3066:	c398                	sw	a4,0(a5)
    3068:	43d8                	lw	a4,4(a5)
    306a:	8b05                	andi	a4,a4,1
    306c:	df75                	beqz	a4,3068 <Delay_Ms+0x28>
    306e:	4398                	lw	a4,0(a5)
    3070:	9b79                	andi	a4,a4,-2
    3072:	c398                	sw	a4,0(a5)
    3074:	8082                	ret

00003076 <USART_Printf_Init>:
    3076:	97afd2ef          	jal	t0,1f0 <__riscv_save_0>
    307a:	842a                	mv	s0,a0
    307c:	6511                	lui	a0,0x4
    307e:	1101                	addi	sp,sp,-32
    3080:	4585                	li	a1,1
    3082:	0511                	addi	a0,a0,4
    3084:	f61fd0ef          	jal	ra,fe4 <RCC_APB2PeriphClockCmd>
    3088:	20000793          	li	a5,512
    308c:	827c                	sh	a5,4(sp)
    308e:	40011537          	lui	a0,0x40011
    3092:	478d                	li	a5,3
    3094:	c43e                	sw	a5,8(sp)
    3096:	004c                	addi	a1,sp,4
    3098:	47e1                	li	a5,24
    309a:	80050513          	addi	a0,a0,-2048 # 40010800 <_eusrstack+0x20008800>
    309e:	c63e                	sw	a5,12(sp)
    30a0:	adffd0ef          	jal	ra,b7e <GPIO_Init>
    30a4:	c822                	sw	s0,16(sp)
    30a6:	40014437          	lui	s0,0x40014
    30aa:	000807b7          	lui	a5,0x80
    30ae:	080c                	addi	a1,sp,16
    30b0:	80040513          	addi	a0,s0,-2048 # 40013800 <_eusrstack+0x2000b800>
    30b4:	cc3e                	sw	a5,24(sp)
    30b6:	ca02                	sw	zero,20(sp)
    30b8:	00011e23          	sh	zero,28(sp)
    30bc:	fe3fd0ef          	jal	ra,109e <USART_Init>
    30c0:	4585                	li	a1,1
    30c2:	80040513          	addi	a0,s0,-2048
    30c6:	866fe0ef          	jal	ra,112c <USART_Cmd>
    30ca:	6105                	addi	sp,sp,32
    30cc:	948fd06f          	j	214 <__riscv_restore_0>

000030d0 <_write>:
    30d0:	906fd2ef          	jal	t0,1d6 <__riscv_save_4>
    30d4:	400144b7          	lui	s1,0x40014
    30d8:	89ae                	mv	s3,a1
    30da:	8932                	mv	s2,a2
    30dc:	4401                	li	s0,0
    30de:	80048493          	addi	s1,s1,-2048 # 40013800 <_eusrstack+0x2000b800>
    30e2:	01244563          	blt	s0,s2,30ec <_write+0x1c>
    30e6:	854a                	mv	a0,s2
    30e8:	922fd06f          	j	20a <__riscv_restore_4>
    30ec:	04000593          	li	a1,64
    30f0:	8526                	mv	a0,s1
    30f2:	8a8fe0ef          	jal	ra,119a <USART_GetFlagStatus>
    30f6:	d97d                	beqz	a0,30ec <_write+0x1c>
    30f8:	008987b3          	add	a5,s3,s0
    30fc:	00078583          	lb	a1,0(a5) # 80000 <_data_lma+0x78d94>
    3100:	8526                	mv	a0,s1
    3102:	0405                	addi	s0,s0,1
    3104:	05c2                	slli	a1,a1,0x10
    3106:	81c1                	srli	a1,a1,0x10
    3108:	882fe0ef          	jal	ra,118a <USART_SendData>
    310c:	bfd9                	j	30e2 <_write+0x12>

0000310e <_sbrk>:
    310e:	81818713          	addi	a4,gp,-2024 # 20000220 <curbrk.5524>
    3112:	431c                	lw	a5,0(a4)
    3114:	200026b7          	lui	a3,0x20002
    3118:	ab468693          	addi	a3,a3,-1356 # 20001ab4 <_ebss>
    311c:	953e                	add	a0,a0,a5
    311e:	00d56b63          	bltu	a0,a3,3134 <_sbrk+0x26>
    3122:	200086b7          	lui	a3,0x20008
    3126:	80068693          	addi	a3,a3,-2048 # 20007800 <_heap_end>
    312a:	00a6e563          	bltu	a3,a0,3134 <_sbrk+0x26>
    312e:	c308                	sw	a0,0(a4)
    3130:	853e                	mv	a0,a5
    3132:	8082                	ret
    3134:	57fd                	li	a5,-1
    3136:	bfed                	j	3130 <_sbrk+0x22>

00003138 <printchar>:
    3138:	1101                	addi	sp,sp,-32
    313a:	ce06                	sw	ra,28(sp)
    313c:	c62e                	sw	a1,12(sp)
    313e:	cd0d                	beqz	a0,3178 <printchar+0x40>
    3140:	4118                	lw	a4,0(a0)
    3142:	87aa                	mv	a5,a0
    3144:	c305                	beqz	a4,3164 <printchar+0x2c>
    3146:	4158                	lw	a4,4(a0)
    3148:	557d                	li	a0,-1
    314a:	cb11                	beqz	a4,315e <printchar+0x26>
    314c:	4685                	li	a3,1
    314e:	00d71b63          	bne	a4,a3,3164 <printchar+0x2c>
    3152:	4798                	lw	a4,8(a5)
    3154:	00070023          	sb	zero,0(a4)
    3158:	0007a223          	sw	zero,4(a5)
    315c:	4505                	li	a0,1
    315e:	40f2                	lw	ra,28(sp)
    3160:	6105                	addi	sp,sp,32
    3162:	8082                	ret
    3164:	4798                	lw	a4,8(a5)
    3166:	46b2                	lw	a3,12(sp)
    3168:	a314                	sb	a3,0(a4)
    316a:	4798                	lw	a4,8(a5)
    316c:	0705                	addi	a4,a4,1
    316e:	c798                	sw	a4,8(a5)
    3170:	43d8                	lw	a4,4(a5)
    3172:	177d                	addi	a4,a4,-1
    3174:	c3d8                	sw	a4,4(a5)
    3176:	b7dd                	j	315c <printchar+0x24>
    3178:	4605                	li	a2,1
    317a:	006c                	addi	a1,sp,12
    317c:	f55ff0ef          	jal	ra,30d0 <_write>
    3180:	bff1                	j	315c <printchar+0x24>

00003182 <prints>:
    3182:	7179                	addi	sp,sp,-48
    3184:	d422                	sw	s0,40(sp)
    3186:	d226                	sw	s1,36(sp)
    3188:	ce4e                	sw	s3,28(sp)
    318a:	cc52                	sw	s4,24(sp)
    318c:	ca56                	sw	s5,20(sp)
    318e:	d606                	sw	ra,44(sp)
    3190:	d04a                	sw	s2,32(sp)
    3192:	c85a                	sw	s6,16(sp)
    3194:	8a2a                	mv	s4,a0
    3196:	8aae                	mv	s5,a1
    3198:	8432                	mv	s0,a2
    319a:	4481                	li	s1,0
    319c:	02000993          	li	s3,32
    31a0:	02064463          	bltz	a2,31c8 <prints+0x46>
    31a4:	009a87b3          	add	a5,s5,s1
    31a8:	00078783          	lb	a5,0(a5)
    31ac:	e39d                	bnez	a5,31d2 <prints+0x50>
    31ae:	0284d663          	bge	s1,s0,31da <prints+0x58>
    31b2:	02e4d263          	bge	s1,a4,31d6 <prints+0x54>
    31b6:	8c19                	sub	s0,s0,a4
    31b8:	0026f793          	andi	a5,a3,2
    31bc:	02000993          	li	s3,32
    31c0:	c781                	beqz	a5,31c8 <prints+0x46>
    31c2:	e319                	bnez	a4,31c8 <prints+0x46>
    31c4:	03000993          	li	s3,48
    31c8:	8a85                	andi	a3,a3,1
    31ca:	4901                	li	s2,0
    31cc:	ea85                	bnez	a3,31fc <prints+0x7a>
    31ce:	8922                	mv	s2,s0
    31d0:	a831                	j	31ec <prints+0x6a>
    31d2:	0485                	addi	s1,s1,1
    31d4:	bfc1                	j	31a4 <prints+0x22>
    31d6:	8c05                	sub	s0,s0,s1
    31d8:	b7c5                	j	31b8 <prints+0x36>
    31da:	4401                	li	s0,0
    31dc:	bff1                	j	31b8 <prints+0x36>
    31de:	85ce                	mv	a1,s3
    31e0:	8552                	mv	a0,s4
    31e2:	c63a                	sw	a4,12(sp)
    31e4:	f55ff0ef          	jal	ra,3138 <printchar>
    31e8:	4732                	lw	a4,12(sp)
    31ea:	197d                	addi	s2,s2,-1
    31ec:	ff2049e3          	bgtz	s2,31de <prints+0x5c>
    31f0:	8922                	mv	s2,s0
    31f2:	00045363          	bgez	s0,31f8 <prints+0x76>
    31f6:	4901                	li	s2,0
    31f8:	41240433          	sub	s0,s0,s2
    31fc:	02e4cb63          	blt	s1,a4,3232 <prints+0xb0>
    3200:	84ca                	mv	s1,s2
    3202:	412487b3          	sub	a5,s1,s2
    3206:	97d6                	add	a5,a5,s5
    3208:	00078583          	lb	a1,0(a5)
    320c:	e1a1                	bnez	a1,324c <prints+0xca>
    320e:	8922                	mv	s2,s0
    3210:	05204363          	bgtz	s2,3256 <prints+0xd4>
    3214:	00045363          	bgez	s0,321a <prints+0x98>
    3218:	4401                	li	s0,0
    321a:	00940533          	add	a0,s0,s1
    321e:	50b2                	lw	ra,44(sp)
    3220:	5422                	lw	s0,40(sp)
    3222:	5492                	lw	s1,36(sp)
    3224:	5902                	lw	s2,32(sp)
    3226:	49f2                	lw	s3,28(sp)
    3228:	4a62                	lw	s4,24(sp)
    322a:	4ad2                	lw	s5,20(sp)
    322c:	4b42                	lw	s6,16(sp)
    322e:	6145                	addi	sp,sp,48
    3230:	8082                	ret
    3232:	409704b3          	sub	s1,a4,s1
    3236:	8b26                	mv	s6,s1
    3238:	03000593          	li	a1,48
    323c:	8552                	mv	a0,s4
    323e:	1b7d                	addi	s6,s6,-1
    3240:	ef9ff0ef          	jal	ra,3138 <printchar>
    3244:	fe0b1ae3          	bnez	s6,3238 <prints+0xb6>
    3248:	9926                	add	s2,s2,s1
    324a:	bf5d                	j	3200 <prints+0x7e>
    324c:	8552                	mv	a0,s4
    324e:	eebff0ef          	jal	ra,3138 <printchar>
    3252:	0485                	addi	s1,s1,1
    3254:	b77d                	j	3202 <prints+0x80>
    3256:	85ce                	mv	a1,s3
    3258:	8552                	mv	a0,s4
    325a:	edfff0ef          	jal	ra,3138 <printchar>
    325e:	197d                	addi	s2,s2,-1
    3260:	bf45                	j	3210 <prints+0x8e>

00003262 <printInt>:
    3262:	715d                	addi	sp,sp,-80
    3264:	c2a6                	sw	s1,68(sp)
    3266:	dc52                	sw	s4,56(sp)
    3268:	c686                	sw	ra,76(sp)
    326a:	c4a2                	sw	s0,72(sp)
    326c:	c0ca                	sw	s2,64(sp)
    326e:	de4e                	sw	s3,60(sp)
    3270:	da56                	sw	s5,52(sp)
    3272:	84ba                	mv	s1,a4
    3274:	8a3e                	mv	s4,a5
    3276:	e19d                	bnez	a1,329c <printInt+0x3a>
    3278:	03000793          	li	a5,48
    327c:	4701                	li	a4,0
    327e:	86d2                	mv	a3,s4
    3280:	8626                	mv	a2,s1
    3282:	082c                	addi	a1,sp,24
    3284:	84fc                	sh	a5,24(sp)
    3286:	efdff0ef          	jal	ra,3182 <prints>
    328a:	40b6                	lw	ra,76(sp)
    328c:	4426                	lw	s0,72(sp)
    328e:	4496                	lw	s1,68(sp)
    3290:	4906                	lw	s2,64(sp)
    3292:	59f2                	lw	s3,60(sp)
    3294:	5a62                	lw	s4,56(sp)
    3296:	5ad2                	lw	s5,52(sp)
    3298:	6161                	addi	sp,sp,80
    329a:	8082                	ret
    329c:	892a                	mv	s2,a0
    329e:	8436                	mv	s0,a3
    32a0:	8ac6                	mv	s5,a7
    32a2:	ca91                	beqz	a3,32b6 <printInt+0x54>
    32a4:	47a9                	li	a5,10
    32a6:	4401                	li	s0,0
    32a8:	00f61763          	bne	a2,a5,32b6 <printInt+0x54>
    32ac:	0005d563          	bgez	a1,32b6 <printInt+0x54>
    32b0:	40b005b3          	neg	a1,a1
    32b4:	4405                	li	s0,1
    32b6:	020107a3          	sb	zero,47(sp)
    32ba:	02f10793          	addi	a5,sp,47
    32be:	46a5                	li	a3,9
    32c0:	fc680513          	addi	a0,a6,-58
    32c4:	02c5f733          	remu	a4,a1,a2
    32c8:	00e6d363          	bge	a3,a4,32ce <printInt+0x6c>
    32cc:	972a                	add	a4,a4,a0
    32ce:	03070713          	addi	a4,a4,48
    32d2:	fee78fa3          	sb	a4,-1(a5)
    32d6:	fff78993          	addi	s3,a5,-1
    32da:	02c5d733          	divu	a4,a1,a2
    32de:	04c5fb63          	bgeu	a1,a2,3334 <printInt+0xd2>
    32e2:	cc09                	beqz	s0,32fc <printInt+0x9a>
    32e4:	c8b9                	beqz	s1,333a <printInt+0xd8>
    32e6:	002a7713          	andi	a4,s4,2
    32ea:	cb21                	beqz	a4,333a <printInt+0xd8>
    32ec:	02d00593          	li	a1,45
    32f0:	854a                	mv	a0,s2
    32f2:	c642                	sw	a6,12(sp)
    32f4:	e45ff0ef          	jal	ra,3138 <printchar>
    32f8:	4832                	lw	a6,12(sp)
    32fa:	14fd                	addi	s1,s1,-1
    32fc:	004a7793          	andi	a5,s4,4
    3300:	c38d                	beqz	a5,3322 <printInt+0xc0>
    3302:	06100793          	li	a5,97
    3306:	03000593          	li	a1,48
    330a:	854a                	mv	a0,s2
    330c:	02f81f63          	bne	a6,a5,334a <printInt+0xe8>
    3310:	e29ff0ef          	jal	ra,3138 <printchar>
    3314:	07800593          	li	a1,120
    3318:	854a                	mv	a0,s2
    331a:	e1fff0ef          	jal	ra,3138 <printchar>
    331e:	0409                	addi	s0,s0,2
    3320:	14f9                	addi	s1,s1,-2
    3322:	8756                	mv	a4,s5
    3324:	86d2                	mv	a3,s4
    3326:	8626                	mv	a2,s1
    3328:	85ce                	mv	a1,s3
    332a:	854a                	mv	a0,s2
    332c:	e57ff0ef          	jal	ra,3182 <prints>
    3330:	9522                	add	a0,a0,s0
    3332:	bfa1                	j	328a <printInt+0x28>
    3334:	85ba                	mv	a1,a4
    3336:	87ce                	mv	a5,s3
    3338:	b771                	j	32c4 <printInt+0x62>
    333a:	02d00713          	li	a4,45
    333e:	fee98fa3          	sb	a4,-1(s3)
    3342:	4401                	li	s0,0
    3344:	ffe78993          	addi	s3,a5,-2
    3348:	bf55                	j	32fc <printInt+0x9a>
    334a:	defff0ef          	jal	ra,3138 <printchar>
    334e:	05800593          	li	a1,88
    3352:	b7d9                	j	3318 <printInt+0xb6>

00003354 <printLongLongInt>:
    3354:	711d                	addi	sp,sp,-96
    3356:	c8ca                	sw	s2,80(sp)
    3358:	c6ce                	sw	s3,76(sp)
    335a:	c2d6                	sw	s5,68(sp)
    335c:	c0da                	sw	s6,64(sp)
    335e:	893a                	mv	s2,a4
    3360:	ce86                	sw	ra,92(sp)
    3362:	cca2                	sw	s0,88(sp)
    3364:	caa6                	sw	s1,84(sp)
    3366:	c4d2                	sw	s4,72(sp)
    3368:	de5e                	sw	s7,60(sp)
    336a:	dc62                	sw	s8,56(sp)
    336c:	da66                	sw	s9,52(sp)
    336e:	d86a                	sw	s10,48(sp)
    3370:	d66e                	sw	s11,44(sp)
    3372:	00c5e733          	or	a4,a1,a2
    3376:	89be                	mv	s3,a5
    3378:	8aaa                	mv	s5,a0
    337a:	8b42                	mv	s6,a6
    337c:	06014783          	lbu	a5,96(sp)
    3380:	e331                	bnez	a4,33c4 <printLongLongInt+0x70>
    3382:	cf8d                	beqz	a5,33bc <printLongLongInt+0x68>
    3384:	678d                	lui	a5,0x3
    3386:	02d78793          	addi	a5,a5,45 # 302d <Delay_Us+0x23>
    338a:	847c                	sh	a5,8(sp)
    338c:	00010523          	sb	zero,10(sp)
    3390:	4701                	li	a4,0
    3392:	86da                	mv	a3,s6
    3394:	864e                	mv	a2,s3
    3396:	002c                	addi	a1,sp,8
    3398:	8556                	mv	a0,s5
    339a:	de9ff0ef          	jal	ra,3182 <prints>
    339e:	40f6                	lw	ra,92(sp)
    33a0:	4466                	lw	s0,88(sp)
    33a2:	44d6                	lw	s1,84(sp)
    33a4:	4946                	lw	s2,80(sp)
    33a6:	49b6                	lw	s3,76(sp)
    33a8:	4a26                	lw	s4,72(sp)
    33aa:	4a96                	lw	s5,68(sp)
    33ac:	4b06                	lw	s6,64(sp)
    33ae:	5bf2                	lw	s7,60(sp)
    33b0:	5c62                	lw	s8,56(sp)
    33b2:	5cd2                	lw	s9,52(sp)
    33b4:	5d42                	lw	s10,48(sp)
    33b6:	5db2                	lw	s11,44(sp)
    33b8:	6125                	addi	sp,sp,96
    33ba:	8082                	ret
    33bc:	03000793          	li	a5,48
    33c0:	847c                	sh	a5,8(sp)
    33c2:	b7f9                	j	3390 <printLongLongInt+0x3c>
    33c4:	8a36                	mv	s4,a3
    33c6:	84ae                	mv	s1,a1
    33c8:	8432                	mv	s0,a2
    33ca:	02090063          	beqz	s2,33ea <printLongLongInt+0x96>
    33ce:	47a9                	li	a5,10
    33d0:	4901                	li	s2,0
    33d2:	00f69c63          	bne	a3,a5,33ea <printLongLongInt+0x96>
    33d6:	00065a63          	bgez	a2,33ea <printLongLongInt+0x96>
    33da:	40b004b3          	neg	s1,a1
    33de:	009037b3          	snez	a5,s1
    33e2:	40c00433          	neg	s0,a2
    33e6:	8c1d                	sub	s0,s0,a5
    33e8:	4905                	li	s2,1
    33ea:	00010fa3          	sb	zero,31(sp)
    33ee:	01f10d13          	addi	s10,sp,31
    33f2:	41fa5d93          	srai	s11,s4,0x1f
    33f6:	4ca5                	li	s9,9
    33f8:	fc688c13          	addi	s8,a7,-58
    33fc:	8652                	mv	a2,s4
    33fe:	86ee                	mv	a3,s11
    3400:	8526                	mv	a0,s1
    3402:	85a2                	mv	a1,s0
    3404:	0f3000ef          	jal	ra,3cf6 <__umoddi3>
    3408:	00acd363          	bge	s9,a0,340e <printLongLongInt+0xba>
    340c:	9562                	add	a0,a0,s8
    340e:	03050513          	addi	a0,a0,48
    3412:	fead0fa3          	sb	a0,-1(s10)
    3416:	8652                	mv	a2,s4
    3418:	86ee                	mv	a3,s11
    341a:	8526                	mv	a0,s1
    341c:	85a2                	mv	a1,s0
    341e:	fffd0b93          	addi	s7,s10,-1
    3422:	2389                	jal	3964 <__udivdi3>
    3424:	01b46663          	bltu	s0,s11,3430 <printLongLongInt+0xdc>
    3428:	028d9a63          	bne	s11,s0,345c <printLongLongInt+0x108>
    342c:	0344f863          	bgeu	s1,s4,345c <printLongLongInt+0x108>
    3430:	00090d63          	beqz	s2,344a <printLongLongInt+0xf6>
    3434:	02098863          	beqz	s3,3464 <printLongLongInt+0x110>
    3438:	002b7793          	andi	a5,s6,2
    343c:	c785                	beqz	a5,3464 <printLongLongInt+0x110>
    343e:	02d00593          	li	a1,45
    3442:	8556                	mv	a0,s5
    3444:	cf5ff0ef          	jal	ra,3138 <printchar>
    3448:	19fd                	addi	s3,s3,-1
    344a:	4701                	li	a4,0
    344c:	86da                	mv	a3,s6
    344e:	864e                	mv	a2,s3
    3450:	85de                	mv	a1,s7
    3452:	8556                	mv	a0,s5
    3454:	d2fff0ef          	jal	ra,3182 <prints>
    3458:	954a                	add	a0,a0,s2
    345a:	b791                	j	339e <printLongLongInt+0x4a>
    345c:	84aa                	mv	s1,a0
    345e:	842e                	mv	s0,a1
    3460:	8d5e                	mv	s10,s7
    3462:	bf69                	j	33fc <printLongLongInt+0xa8>
    3464:	02d00793          	li	a5,45
    3468:	fefb8fa3          	sb	a5,-1(s7)
    346c:	4901                	li	s2,0
    346e:	ffed0b93          	addi	s7,s10,-2
    3472:	bfe1                	j	344a <printLongLongInt+0xf6>

00003474 <printDouble>:
    3474:	715d                	addi	sp,sp,-80
    3476:	c2a6                	sw	s1,68(sp)
    3478:	c0ca                	sw	s2,64(sp)
    347a:	84aa                	mv	s1,a0
    347c:	892e                	mv	s2,a1
    347e:	852e                	mv	a0,a1
    3480:	85b2                	mv	a1,a2
    3482:	c686                	sw	ra,76(sp)
    3484:	ce3a                	sw	a4,28(sp)
    3486:	cc42                	sw	a6,24(sp)
    3488:	c4a2                	sw	s0,72(sp)
    348a:	de4e                	sw	s3,60(sp)
    348c:	dc52                	sw	s4,56(sp)
    348e:	89b2                	mv	s3,a2
    3490:	8a36                	mv	s4,a3
    3492:	da56                	sw	s5,52(sp)
    3494:	d85a                	sw	s6,48(sp)
    3496:	8abe                	mv	s5,a5
    3498:	d65e                	sw	s7,44(sp)
    349a:	d462                	sw	s8,40(sp)
    349c:	d266                	sw	s9,36(sp)
    349e:	8c46                	mv	s8,a7
    34a0:	d06a                	sw	s10,32(sp)
    34a2:	648020ef          	jal	ra,5aea <__fixdfdi>
    34a6:	8b2a                	mv	s6,a0
    34a8:	8bae                	mv	s7,a1
    34aa:	4601                	li	a2,0
    34ac:	4681                	li	a3,0
    34ae:	85ce                	mv	a1,s3
    34b0:	854a                	mv	a0,s2
    34b2:	0b3010ef          	jal	ra,4d64 <__ledf2>
    34b6:	4772                	lw	a4,28(sp)
    34b8:	4862                	lw	a6,24(sp)
    34ba:	817d                	srli	a0,a0,0x1f
    34bc:	87ba                	mv	a5,a4
    34be:	c02a                	sw	a0,0(sp)
    34c0:	4705                	li	a4,1
    34c2:	88e2                	mv	a7,s8
    34c4:	86d2                	mv	a3,s4
    34c6:	85da                	mv	a1,s6
    34c8:	865e                	mv	a2,s7
    34ca:	8526                	mv	a0,s1
    34cc:	e89ff0ef          	jal	ra,3354 <printLongLongInt>
    34d0:	8d2a                	mv	s10,a0
    34d2:	02e00593          	li	a1,46
    34d6:	8526                	mv	a0,s1
    34d8:	c61ff0ef          	jal	ra,3138 <printchar>
    34dc:	0d05                	addi	s10,s10,1
    34de:	4781                	li	a5,0
    34e0:	4c85                	li	s9,1
    34e2:	4401                	li	s0,0
    34e4:	4729                	li	a4,10
    34e6:	0757ce63          	blt	a5,s5,3562 <printDouble+0xee>
    34ea:	855a                	mv	a0,s6
    34ec:	85de                	mv	a1,s7
    34ee:	6b8020ef          	jal	ra,5ba6 <__floatdidf>
    34f2:	862a                	mv	a2,a0
    34f4:	86ae                	mv	a3,a1
    34f6:	854a                	mv	a0,s2
    34f8:	85ce                	mv	a1,s3
    34fa:	5d9010ef          	jal	ra,52d2 <__subdf3>
    34fe:	892a                	mv	s2,a0
    3500:	89ae                	mv	s3,a1
    3502:	8566                	mv	a0,s9
    3504:	85a2                	mv	a1,s0
    3506:	6a0020ef          	jal	ra,5ba6 <__floatdidf>
    350a:	862a                	mv	a2,a0
    350c:	86ae                	mv	a3,a1
    350e:	854a                	mv	a0,s2
    3510:	85ce                	mv	a1,s3
    3512:	109010ef          	jal	ra,4e1a <__muldf3>
    3516:	5d4020ef          	jal	ra,5aea <__fixdfdi>
    351a:	41f5d613          	srai	a2,a1,0x1f
    351e:	8d31                	xor	a0,a0,a2
    3520:	00b647b3          	xor	a5,a2,a1
    3524:	40c505b3          	sub	a1,a0,a2
    3528:	00b53533          	sltu	a0,a0,a1
    352c:	40c78633          	sub	a2,a5,a2
    3530:	c002                	sw	zero,0(sp)
    3532:	88e2                	mv	a7,s8
    3534:	87d6                	mv	a5,s5
    3536:	86d2                	mv	a3,s4
    3538:	8e09                	sub	a2,a2,a0
    353a:	4809                	li	a6,2
    353c:	8526                	mv	a0,s1
    353e:	4705                	li	a4,1
    3540:	e15ff0ef          	jal	ra,3354 <printLongLongInt>
    3544:	40b6                	lw	ra,76(sp)
    3546:	4426                	lw	s0,72(sp)
    3548:	956a                	add	a0,a0,s10
    354a:	4496                	lw	s1,68(sp)
    354c:	4906                	lw	s2,64(sp)
    354e:	59f2                	lw	s3,60(sp)
    3550:	5a62                	lw	s4,56(sp)
    3552:	5ad2                	lw	s5,52(sp)
    3554:	5b42                	lw	s6,48(sp)
    3556:	5bb2                	lw	s7,44(sp)
    3558:	5c22                	lw	s8,40(sp)
    355a:	5c92                	lw	s9,36(sp)
    355c:	5d02                	lw	s10,32(sp)
    355e:	6161                	addi	sp,sp,80
    3560:	8082                	ret
    3562:	028706b3          	mul	a3,a4,s0
    3566:	0785                	addi	a5,a5,1
    3568:	03973433          	mulhu	s0,a4,s9
    356c:	03970cb3          	mul	s9,a4,s9
    3570:	9436                	add	s0,s0,a3
    3572:	bf95                	j	34e6 <printDouble+0x72>

00003574 <print>:
    3574:	715d                	addi	sp,sp,-80
    3576:	d85a                	sw	s6,48(sp)
    3578:	00007b37          	lui	s6,0x7
    357c:	c4a2                	sw	s0,72(sp)
    357e:	c2a6                	sw	s1,68(sp)
    3580:	c0ca                	sw	s2,64(sp)
    3582:	de4e                	sw	s3,60(sp)
    3584:	dc52                	sw	s4,56(sp)
    3586:	da56                	sw	s5,52(sp)
    3588:	d65e                	sw	s7,44(sp)
    358a:	d462                	sw	s8,40(sp)
    358c:	c686                	sw	ra,76(sp)
    358e:	d266                	sw	s9,36(sp)
    3590:	89aa                	mv	s3,a0
    3592:	892e                	mv	s2,a1
    3594:	8432                	mv	s0,a2
    3596:	4a01                	li	s4,0
    3598:	4481                	li	s1,0
    359a:	02500b93          	li	s7,37
    359e:	02b00a93          	li	s5,43
    35a2:	4c29                	li	s8,10
    35a4:	f50b0b13          	addi	s6,s6,-176 # 6f50 <MySerNumInfo+0x18>
    35a8:	00090583          	lb	a1,0(s2)
    35ac:	e58d                	bnez	a1,35d6 <print+0x62>
    35ae:	00098663          	beqz	s3,35ba <print+0x46>
    35b2:	4581                	li	a1,0
    35b4:	854e                	mv	a0,s3
    35b6:	b83ff0ef          	jal	ra,3138 <printchar>
    35ba:	40b6                	lw	ra,76(sp)
    35bc:	4426                	lw	s0,72(sp)
    35be:	8526                	mv	a0,s1
    35c0:	4906                	lw	s2,64(sp)
    35c2:	4496                	lw	s1,68(sp)
    35c4:	59f2                	lw	s3,60(sp)
    35c6:	5a62                	lw	s4,56(sp)
    35c8:	5ad2                	lw	s5,52(sp)
    35ca:	5b42                	lw	s6,48(sp)
    35cc:	5bb2                	lw	s7,44(sp)
    35ce:	5c22                	lw	s8,40(sp)
    35d0:	5c92                	lw	s9,36(sp)
    35d2:	6161                	addi	sp,sp,80
    35d4:	8082                	ret
    35d6:	01758863          	beq	a1,s7,35e6 <print+0x72>
    35da:	854e                	mv	a0,s3
    35dc:	b5dff0ef          	jal	ra,3138 <printchar>
    35e0:	0485                	addi	s1,s1,1
    35e2:	0905                	addi	s2,s2,1
    35e4:	b7d1                	j	35a8 <print+0x34>
    35e6:	00190783          	lb	a5,1(s2)
    35ea:	00190c93          	addi	s9,s2,1
    35ee:	01779a63          	bne	a5,s7,3602 <print+0x8e>
    35f2:	02500593          	li	a1,37
    35f6:	854e                	mv	a0,s3
    35f8:	b41ff0ef          	jal	ra,3138 <printchar>
    35fc:	0485                	addi	s1,s1,1
    35fe:	8966                	mv	s2,s9
    3600:	b7cd                	j	35e2 <print+0x6e>
    3602:	d7d5                	beqz	a5,35ae <print+0x3a>
    3604:	05578763          	beq	a5,s5,3652 <print+0xde>
    3608:	00fac863          	blt	s5,a5,3618 <print+0xa4>
    360c:	02300713          	li	a4,35
    3610:	04e78463          	beq	a5,a4,3658 <print+0xe4>
    3614:	4781                	li	a5,0
    3616:	a005                	j	3636 <print+0xc2>
    3618:	02d00713          	li	a4,45
    361c:	00e78a63          	beq	a5,a4,3630 <print+0xbc>
    3620:	03000713          	li	a4,48
    3624:	fee798e3          	bne	a5,a4,3614 <print+0xa0>
    3628:	00290c93          	addi	s9,s2,2
    362c:	4789                	li	a5,2
    362e:	a021                	j	3636 <print+0xc2>
    3630:	00290c93          	addi	s9,s2,2
    3634:	4785                	li	a5,1
    3636:	000c8703          	lb	a4,0(s9)
    363a:	05570363          	beq	a4,s5,3680 <print+0x10c>
    363e:	02eac163          	blt	s5,a4,3660 <print+0xec>
    3642:	02300693          	li	a3,35
    3646:	02d70b63          	beq	a4,a3,367c <print+0x108>
    364a:	8966                	mv	s2,s9
    364c:	4501                	li	a0,0
    364e:	45a5                	li	a1,9
    3650:	a835                	j	368c <print+0x118>
    3652:	00290c93          	addi	s9,s2,2
    3656:	bf7d                	j	3614 <print+0xa0>
    3658:	00290c93          	addi	s9,s2,2
    365c:	4791                	li	a5,4
    365e:	bfe1                	j	3636 <print+0xc2>
    3660:	02d00693          	li	a3,45
    3664:	00d70963          	beq	a4,a3,3676 <print+0x102>
    3668:	03000693          	li	a3,48
    366c:	fcd71fe3          	bne	a4,a3,364a <print+0xd6>
    3670:	0027e793          	ori	a5,a5,2
    3674:	a031                	j	3680 <print+0x10c>
    3676:	0c85                	addi	s9,s9,1
    3678:	4785                	li	a5,1
    367a:	bfc1                	j	364a <print+0xd6>
    367c:	0047e793          	ori	a5,a5,4
    3680:	0c85                	addi	s9,s9,1
    3682:	b7e1                	j	364a <print+0xd6>
    3684:	03850533          	mul	a0,a0,s8
    3688:	0905                	addi	s2,s2,1
    368a:	9536                	add	a0,a0,a3
    368c:	00090703          	lb	a4,0(s2)
    3690:	fd070693          	addi	a3,a4,-48
    3694:	0ff6f613          	andi	a2,a3,255
    3698:	fec5f6e3          	bgeu	a1,a2,3684 <print+0x110>
    369c:	02e00613          	li	a2,46
    36a0:	4699                	li	a3,6
    36a2:	00c71e63          	bne	a4,a2,36be <print+0x14a>
    36a6:	0905                	addi	s2,s2,1
    36a8:	4681                	li	a3,0
    36aa:	4625                	li	a2,9
    36ac:	00090703          	lb	a4,0(s2)
    36b0:	fd070713          	addi	a4,a4,-48
    36b4:	0ff77593          	andi	a1,a4,255
    36b8:	02b67563          	bgeu	a2,a1,36e2 <print+0x16e>
    36bc:	8a36                	mv	s4,a3
    36be:	00090703          	lb	a4,0(s2)
    36c2:	06a00613          	li	a2,106
    36c6:	0ac70963          	beq	a4,a2,3778 <print+0x204>
    36ca:	02e64163          	blt	a2,a4,36ec <print+0x178>
    36ce:	04c00613          	li	a2,76
    36d2:	0ac70363          	beq	a4,a2,3778 <print+0x204>
    36d6:	06800613          	li	a2,104
    36da:	08c70863          	beq	a4,a2,376a <print+0x1f6>
    36de:	4601                	li	a2,0
    36e0:	a81d                	j	3716 <print+0x1a2>
    36e2:	038686b3          	mul	a3,a3,s8
    36e6:	0905                	addi	s2,s2,1
    36e8:	96ba                	add	a3,a3,a4
    36ea:	b7c9                	j	36ac <print+0x138>
    36ec:	07400613          	li	a2,116
    36f0:	08c70463          	beq	a4,a2,3778 <print+0x204>
    36f4:	07a00613          	li	a2,122
    36f8:	08c70063          	beq	a4,a2,3778 <print+0x204>
    36fc:	06c00593          	li	a1,108
    3700:	4601                	li	a2,0
    3702:	00b71a63          	bne	a4,a1,3716 <print+0x1a2>
    3706:	00190583          	lb	a1,1(s2)
    370a:	460d                	li	a2,3
    370c:	00e59463          	bne	a1,a4,3714 <print+0x1a0>
    3710:	0905                	addi	s2,s2,1
    3712:	4611                	li	a2,4
    3714:	0905                	addi	s2,s2,1
    3716:	00090703          	lb	a4,0(s2)
    371a:	06000593          	li	a1,96
    371e:	06100813          	li	a6,97
    3722:	00e5c463          	blt	a1,a4,372a <print+0x1b6>
    3726:	04100813          	li	a6,65
    372a:	06700593          	li	a1,103
    372e:	06e5c263          	blt	a1,a4,3792 <print+0x21e>
    3732:	06500593          	li	a1,101
    3736:	16b75963          	bge	a4,a1,38a8 <print+0x334>
    373a:	04700593          	li	a1,71
    373e:	02e5cf63          	blt	a1,a4,377c <print+0x208>
    3742:	04500613          	li	a2,69
    3746:	16c75163          	bge	a4,a2,38a8 <print+0x334>
    374a:	04300693          	li	a3,67
    374e:	e8d71ae3          	bne	a4,a3,35e2 <print+0x6e>
    3752:	4018                	lw	a4,0(s0)
    3754:	00440c93          	addi	s9,s0,4
    3758:	00010ea3          	sb	zero,29(sp)
    375c:	00e10e23          	sb	a4,28(sp)
    3760:	86be                	mv	a3,a5
    3762:	4701                	li	a4,0
    3764:	862a                	mv	a2,a0
    3766:	086c                	addi	a1,sp,28
    3768:	a071                	j	37f4 <print+0x280>
    376a:	00190583          	lb	a1,1(s2)
    376e:	4601                	li	a2,0
    3770:	fae593e3          	bne	a1,a4,3716 <print+0x1a2>
    3774:	0909                	addi	s2,s2,2
    3776:	b745                	j	3716 <print+0x1a2>
    3778:	0905                	addi	s2,s2,1
    377a:	b795                	j	36de <print+0x16a>
    377c:	06300693          	li	a3,99
    3780:	fcd709e3          	beq	a4,a3,3752 <print+0x1de>
    3784:	06e6ce63          	blt	a3,a4,3800 <print+0x28c>
    3788:	05800693          	li	a3,88
    378c:	02d70363          	beq	a4,a3,37b2 <print+0x23e>
    3790:	bd89                	j	35e2 <print+0x6e>
    3792:	07300693          	li	a3,115
    3796:	04d70663          	beq	a4,a3,37e2 <print+0x26e>
    379a:	02e6cd63          	blt	a3,a4,37d4 <print+0x260>
    379e:	06f00693          	li	a3,111
    37a2:	0cd70b63          	beq	a4,a3,3878 <print+0x304>
    37a6:	07000693          	li	a3,112
    37aa:	0047e793          	ori	a5,a5,4
    37ae:	e2d71ae3          	bne	a4,a3,35e2 <print+0x6e>
    37b2:	4711                	li	a4,4
    37b4:	0ae61b63          	bne	a2,a4,386a <print+0x2f6>
    37b8:	041d                	addi	s0,s0,7
    37ba:	ff847713          	andi	a4,s0,-8
    37be:	430c                	lw	a1,0(a4)
    37c0:	4350                	lw	a2,4(a4)
    37c2:	00870413          	addi	s0,a4,8
    37c6:	88c2                	mv	a7,a6
    37c8:	c002                	sw	zero,0(sp)
    37ca:	883e                	mv	a6,a5
    37cc:	4701                	li	a4,0
    37ce:	87aa                	mv	a5,a0
    37d0:	46c1                	li	a3,16
    37d2:	a0b9                	j	3820 <print+0x2ac>
    37d4:	07500693          	li	a3,117
    37d8:	06d70363          	beq	a4,a3,383e <print+0x2ca>
    37dc:	07800693          	li	a3,120
    37e0:	b775                	j	378c <print+0x218>
    37e2:	4018                	lw	a4,0(s0)
    37e4:	00440c93          	addi	s9,s0,4
    37e8:	85da                	mv	a1,s6
    37ea:	c311                	beqz	a4,37ee <print+0x27a>
    37ec:	85ba                	mv	a1,a4
    37ee:	8752                	mv	a4,s4
    37f0:	86be                	mv	a3,a5
    37f2:	862a                	mv	a2,a0
    37f4:	854e                	mv	a0,s3
    37f6:	98dff0ef          	jal	ra,3182 <prints>
    37fa:	94aa                	add	s1,s1,a0
    37fc:	8466                	mv	s0,s9
    37fe:	b3d5                	j	35e2 <print+0x6e>
    3800:	4711                	li	a4,4
    3802:	02e61463          	bne	a2,a4,382a <print+0x2b6>
    3806:	041d                	addi	s0,s0,7
    3808:	ff847713          	andi	a4,s0,-8
    380c:	430c                	lw	a1,0(a4)
    380e:	4350                	lw	a2,4(a4)
    3810:	00870413          	addi	s0,a4,8
    3814:	88c2                	mv	a7,a6
    3816:	c002                	sw	zero,0(sp)
    3818:	883e                	mv	a6,a5
    381a:	4705                	li	a4,1
    381c:	87aa                	mv	a5,a0
    381e:	46a9                	li	a3,10
    3820:	854e                	mv	a0,s3
    3822:	b33ff0ef          	jal	ra,3354 <printLongLongInt>
    3826:	94aa                	add	s1,s1,a0
    3828:	bb6d                	j	35e2 <print+0x6e>
    382a:	400c                	lw	a1,0(s0)
    382c:	88d2                	mv	a7,s4
    382e:	0411                	addi	s0,s0,4
    3830:	872a                	mv	a4,a0
    3832:	4685                	li	a3,1
    3834:	4629                	li	a2,10
    3836:	854e                	mv	a0,s3
    3838:	a2bff0ef          	jal	ra,3262 <printInt>
    383c:	b7ed                	j	3826 <print+0x2b2>
    383e:	4711                	li	a4,4
    3840:	00e61f63          	bne	a2,a4,385e <print+0x2ea>
    3844:	041d                	addi	s0,s0,7
    3846:	ff847713          	andi	a4,s0,-8
    384a:	430c                	lw	a1,0(a4)
    384c:	4350                	lw	a2,4(a4)
    384e:	00870413          	addi	s0,a4,8
    3852:	88c2                	mv	a7,a6
    3854:	c002                	sw	zero,0(sp)
    3856:	883e                	mv	a6,a5
    3858:	4701                	li	a4,0
    385a:	87aa                	mv	a5,a0
    385c:	b7c9                	j	381e <print+0x2aa>
    385e:	400c                	lw	a1,0(s0)
    3860:	88d2                	mv	a7,s4
    3862:	0411                	addi	s0,s0,4
    3864:	872a                	mv	a4,a0
    3866:	4681                	li	a3,0
    3868:	b7f1                	j	3834 <print+0x2c0>
    386a:	400c                	lw	a1,0(s0)
    386c:	88d2                	mv	a7,s4
    386e:	0411                	addi	s0,s0,4
    3870:	872a                	mv	a4,a0
    3872:	4681                	li	a3,0
    3874:	4641                	li	a2,16
    3876:	b7c1                	j	3836 <print+0x2c2>
    3878:	4711                	li	a4,4
    387a:	02e61063          	bne	a2,a4,389a <print+0x326>
    387e:	041d                	addi	s0,s0,7
    3880:	ff847713          	andi	a4,s0,-8
    3884:	430c                	lw	a1,0(a4)
    3886:	4350                	lw	a2,4(a4)
    3888:	00870413          	addi	s0,a4,8
    388c:	88c2                	mv	a7,a6
    388e:	c002                	sw	zero,0(sp)
    3890:	883e                	mv	a6,a5
    3892:	4701                	li	a4,0
    3894:	87aa                	mv	a5,a0
    3896:	46a1                	li	a3,8
    3898:	b761                	j	3820 <print+0x2ac>
    389a:	400c                	lw	a1,0(s0)
    389c:	88d2                	mv	a7,s4
    389e:	0411                	addi	s0,s0,4
    38a0:	872a                	mv	a4,a0
    38a2:	4681                	li	a3,0
    38a4:	4621                	li	a2,8
    38a6:	bf41                	j	3836 <print+0x2c2>
    38a8:	041d                	addi	s0,s0,7
    38aa:	ff847613          	andi	a2,s0,-8
    38ae:	00860413          	addi	s0,a2,8
    38b2:	420c                	lw	a1,0(a2)
    38b4:	4250                	lw	a2,4(a2)
    38b6:	40d50733          	sub	a4,a0,a3
    38ba:	88c2                	mv	a7,a6
    38bc:	177d                	addi	a4,a4,-1
    38be:	883e                	mv	a6,a5
    38c0:	854e                	mv	a0,s3
    38c2:	87b6                	mv	a5,a3
    38c4:	46a9                	li	a3,10
    38c6:	bafff0ef          	jal	ra,3474 <printDouble>
    38ca:	bfb1                	j	3826 <print+0x2b2>

000038cc <printf>:
    38cc:	7139                	addi	sp,sp,-64
    38ce:	d22e                	sw	a1,36(sp)
    38d0:	d432                	sw	a2,40(sp)
    38d2:	85aa                	mv	a1,a0
    38d4:	1050                	addi	a2,sp,36
    38d6:	4501                	li	a0,0
    38d8:	ce06                	sw	ra,28(sp)
    38da:	d636                	sw	a3,44(sp)
    38dc:	d83a                	sw	a4,48(sp)
    38de:	da3e                	sw	a5,52(sp)
    38e0:	dc42                	sw	a6,56(sp)
    38e2:	de46                	sw	a7,60(sp)
    38e4:	c632                	sw	a2,12(sp)
    38e6:	c8fff0ef          	jal	ra,3574 <print>
    38ea:	40f2                	lw	ra,28(sp)
    38ec:	6121                	addi	sp,sp,64
    38ee:	8082                	ret

000038f0 <snprintf>:
    38f0:	7139                	addi	sp,sp,-64
    38f2:	8332                	mv	t1,a2
    38f4:	da3e                	sw	a5,52(sp)
    38f6:	c42e                	sw	a1,8(sp)
    38f8:	c62a                	sw	a0,12(sp)
    38fa:	1070                	addi	a2,sp,44
    38fc:	4785                	li	a5,1
    38fe:	0048                	addi	a0,sp,4
    3900:	859a                	mv	a1,t1
    3902:	ce06                	sw	ra,28(sp)
    3904:	d636                	sw	a3,44(sp)
    3906:	d83a                	sw	a4,48(sp)
    3908:	dc42                	sw	a6,56(sp)
    390a:	de46                	sw	a7,60(sp)
    390c:	c23e                	sw	a5,4(sp)
    390e:	c032                	sw	a2,0(sp)
    3910:	c65ff0ef          	jal	ra,3574 <print>
    3914:	40f2                	lw	ra,28(sp)
    3916:	6121                	addi	sp,sp,64
    3918:	8082                	ret

0000391a <puts>:
    391a:	1101                	addi	sp,sp,-32
    391c:	cc22                	sw	s0,24(sp)
    391e:	ca26                	sw	s1,20(sp)
    3920:	ce06                	sw	ra,28(sp)
    3922:	211c                	lbu	a5,0(a0)
    3924:	84aa                	mv	s1,a0
    3926:	4401                	li	s0,0
    3928:	87dc                	sb	a5,15(sp)
    392a:	00f10783          	lb	a5,15(sp)
    392e:	0405                	addi	s0,s0,1
    3930:	ef99                	bnez	a5,394e <puts+0x34>
    3932:	47a9                	li	a5,10
    3934:	00f10593          	addi	a1,sp,15
    3938:	4605                	li	a2,1
    393a:	4501                	li	a0,0
    393c:	87dc                	sb	a5,15(sp)
    393e:	f92ff0ef          	jal	ra,30d0 <_write>
    3942:	8522                	mv	a0,s0
    3944:	40f2                	lw	ra,28(sp)
    3946:	4462                	lw	s0,24(sp)
    3948:	44d2                	lw	s1,20(sp)
    394a:	6105                	addi	sp,sp,32
    394c:	8082                	ret
    394e:	4605                	li	a2,1
    3950:	00f10593          	addi	a1,sp,15
    3954:	4501                	li	a0,0
    3956:	f7aff0ef          	jal	ra,30d0 <_write>
    395a:	008487b3          	add	a5,s1,s0
    395e:	239c                	lbu	a5,0(a5)
    3960:	87dc                	sb	a5,15(sp)
    3962:	b7e1                	j	392a <puts+0x10>

00003964 <__udivdi3>:
    3964:	87b6                	mv	a5,a3
    3966:	88b2                	mv	a7,a2
    3968:	832a                	mv	t1,a0
    396a:	882e                	mv	a6,a1
    396c:	14069b63          	bnez	a3,3ac2 <__udivdi3+0x15e>
    3970:	0ac5f863          	bgeu	a1,a2,3a20 <__udivdi3+0xbc>
    3974:	6741                	lui	a4,0x10
    3976:	1ae66b63          	bltu	a2,a4,3b2c <__udivdi3+0x1c8>
    397a:	010007b7          	lui	a5,0x1000
    397e:	34f66063          	bltu	a2,a5,3cbe <__udivdi3+0x35a>
    3982:	01865693          	srli	a3,a2,0x18
    3986:	47e1                	li	a5,24
    3988:	00003717          	auipc	a4,0x3
    398c:	6d070713          	addi	a4,a4,1744 # 7058 <__clz_tab>
    3990:	9736                	add	a4,a4,a3
    3992:	2318                	lbu	a4,0(a4)
    3994:	97ba                	add	a5,a5,a4
    3996:	02000713          	li	a4,32
    399a:	8f1d                	sub	a4,a4,a5
    399c:	cb19                	beqz	a4,39b2 <__udivdi3+0x4e>
    399e:	00e59833          	sll	a6,a1,a4
    39a2:	00f557b3          	srl	a5,a0,a5
    39a6:	00e618b3          	sll	a7,a2,a4
    39aa:	0107e833          	or	a6,a5,a6
    39ae:	00e51333          	sll	t1,a0,a4
    39b2:	0108d613          	srli	a2,a7,0x10
    39b6:	02c85533          	divu	a0,a6,a2
    39ba:	01089693          	slli	a3,a7,0x10
    39be:	82c1                	srli	a3,a3,0x10
    39c0:	01035793          	srli	a5,t1,0x10
    39c4:	02c87733          	remu	a4,a6,a2
    39c8:	02a685b3          	mul	a1,a3,a0
    39cc:	0742                	slli	a4,a4,0x10
    39ce:	00f76833          	or	a6,a4,a5
    39d2:	00b87a63          	bgeu	a6,a1,39e6 <__udivdi3+0x82>
    39d6:	9846                	add	a6,a6,a7
    39d8:	fff50793          	addi	a5,a0,-1
    39dc:	01186463          	bltu	a6,a7,39e4 <__udivdi3+0x80>
    39e0:	30b86563          	bltu	a6,a1,3cea <__udivdi3+0x386>
    39e4:	853e                	mv	a0,a5
    39e6:	40b80833          	sub	a6,a6,a1
    39ea:	02c85733          	divu	a4,a6,a2
    39ee:	0342                	slli	t1,t1,0x10
    39f0:	01035313          	srli	t1,t1,0x10
    39f4:	02c87833          	remu	a6,a6,a2
    39f8:	02e686b3          	mul	a3,a3,a4
    39fc:	0842                	slli	a6,a6,0x10
    39fe:	00686833          	or	a6,a6,t1
    3a02:	00d87b63          	bgeu	a6,a3,3a18 <__udivdi3+0xb4>
    3a06:	9846                	add	a6,a6,a7
    3a08:	fff70793          	addi	a5,a4,-1
    3a0c:	01186563          	bltu	a6,a7,3a16 <__udivdi3+0xb2>
    3a10:	1779                	addi	a4,a4,-2
    3a12:	00d86363          	bltu	a6,a3,3a18 <__udivdi3+0xb4>
    3a16:	873e                	mv	a4,a5
    3a18:	0542                	slli	a0,a0,0x10
    3a1a:	8d59                	or	a0,a0,a4
    3a1c:	4581                	li	a1,0
    3a1e:	8082                	ret
    3a20:	e601                	bnez	a2,3a28 <__udivdi3+0xc4>
    3a22:	4705                	li	a4,1
    3a24:	02c758b3          	divu	a7,a4,a2
    3a28:	6741                	lui	a4,0x10
    3a2a:	0ee8e863          	bltu	a7,a4,3b1a <__udivdi3+0x1b6>
    3a2e:	010007b7          	lui	a5,0x1000
    3a32:	28f8ea63          	bltu	a7,a5,3cc6 <__udivdi3+0x362>
    3a36:	0188d693          	srli	a3,a7,0x18
    3a3a:	47e1                	li	a5,24
    3a3c:	00003717          	auipc	a4,0x3
    3a40:	61c70713          	addi	a4,a4,1564 # 7058 <__clz_tab>
    3a44:	9736                	add	a4,a4,a3
    3a46:	2314                	lbu	a3,0(a4)
    3a48:	96be                	add	a3,a3,a5
    3a4a:	02000793          	li	a5,32
    3a4e:	8f95                	sub	a5,a5,a3
    3a50:	e7fd                	bnez	a5,3b3e <__udivdi3+0x1da>
    3a52:	01089e93          	slli	t4,a7,0x10
    3a56:	41158733          	sub	a4,a1,a7
    3a5a:	0108df13          	srli	t5,a7,0x10
    3a5e:	010ede93          	srli	t4,t4,0x10
    3a62:	4585                	li	a1,1
    3a64:	01035793          	srli	a5,t1,0x10
    3a68:	03e75533          	divu	a0,a4,t5
    3a6c:	03e77733          	remu	a4,a4,t5
    3a70:	03d506b3          	mul	a3,a0,t4
    3a74:	0742                	slli	a4,a4,0x10
    3a76:	8fd9                	or	a5,a5,a4
    3a78:	00d7fa63          	bgeu	a5,a3,3a8c <__udivdi3+0x128>
    3a7c:	97c6                	add	a5,a5,a7
    3a7e:	fff50713          	addi	a4,a0,-1
    3a82:	0117e463          	bltu	a5,a7,3a8a <__udivdi3+0x126>
    3a86:	26d7e563          	bltu	a5,a3,3cf0 <__udivdi3+0x38c>
    3a8a:	853a                	mv	a0,a4
    3a8c:	8f95                	sub	a5,a5,a3
    3a8e:	03e7d733          	divu	a4,a5,t5
    3a92:	0342                	slli	t1,t1,0x10
    3a94:	01035313          	srli	t1,t1,0x10
    3a98:	03e7f7b3          	remu	a5,a5,t5
    3a9c:	03d70eb3          	mul	t4,a4,t4
    3aa0:	07c2                	slli	a5,a5,0x10
    3aa2:	0067e7b3          	or	a5,a5,t1
    3aa6:	01d7fb63          	bgeu	a5,t4,3abc <__udivdi3+0x158>
    3aaa:	97c6                	add	a5,a5,a7
    3aac:	fff70693          	addi	a3,a4,-1
    3ab0:	0117e563          	bltu	a5,a7,3aba <__udivdi3+0x156>
    3ab4:	1779                	addi	a4,a4,-2
    3ab6:	01d7e363          	bltu	a5,t4,3abc <__udivdi3+0x158>
    3aba:	8736                	mv	a4,a3
    3abc:	0542                	slli	a0,a0,0x10
    3abe:	8d59                	or	a0,a0,a4
    3ac0:	8082                	ret
    3ac2:	04d5e163          	bltu	a1,a3,3b04 <__udivdi3+0x1a0>
    3ac6:	67c1                	lui	a5,0x10
    3ac8:	04f6e163          	bltu	a3,a5,3b0a <__udivdi3+0x1a6>
    3acc:	010007b7          	lui	a5,0x1000
    3ad0:	1ef6e363          	bltu	a3,a5,3cb6 <__udivdi3+0x352>
    3ad4:	0186d713          	srli	a4,a3,0x18
    3ad8:	4861                	li	a6,24
    3ada:	00003797          	auipc	a5,0x3
    3ade:	57e78793          	addi	a5,a5,1406 # 7058 <__clz_tab>
    3ae2:	97ba                	add	a5,a5,a4
    3ae4:	2398                	lbu	a4,0(a5)
    3ae6:	02000e13          	li	t3,32
    3aea:	9742                	add	a4,a4,a6
    3aec:	40ee0e33          	sub	t3,t3,a4
    3af0:	0c0e1a63          	bnez	t3,3bc4 <__udivdi3+0x260>
    3af4:	1cb6ed63          	bltu	a3,a1,3cce <__udivdi3+0x36a>
    3af8:	00c53533          	sltu	a0,a0,a2
    3afc:	00154513          	xori	a0,a0,1
    3b00:	4581                	li	a1,0
    3b02:	8082                	ret
    3b04:	4581                	li	a1,0
    3b06:	4501                	li	a0,0
    3b08:	8082                	ret
    3b0a:	0ff00793          	li	a5,255
    3b0e:	1cd7f363          	bgeu	a5,a3,3cd4 <__udivdi3+0x370>
    3b12:	0086d713          	srli	a4,a3,0x8
    3b16:	4821                	li	a6,8
    3b18:	b7c9                	j	3ada <__udivdi3+0x176>
    3b1a:	0ff00713          	li	a4,255
    3b1e:	86c6                	mv	a3,a7
    3b20:	f1177ee3          	bgeu	a4,a7,3a3c <__udivdi3+0xd8>
    3b24:	0088d693          	srli	a3,a7,0x8
    3b28:	47a1                	li	a5,8
    3b2a:	bf09                	j	3a3c <__udivdi3+0xd8>
    3b2c:	0ff00713          	li	a4,255
    3b30:	86b2                	mv	a3,a2
    3b32:	e4c77be3          	bgeu	a4,a2,3988 <__udivdi3+0x24>
    3b36:	00865693          	srli	a3,a2,0x8
    3b3a:	47a1                	li	a5,8
    3b3c:	b5b1                	j	3988 <__udivdi3+0x24>
    3b3e:	00f898b3          	sll	a7,a7,a5
    3b42:	00d5d633          	srl	a2,a1,a3
    3b46:	0108df13          	srli	t5,a7,0x10
    3b4a:	03e65e33          	divu	t3,a2,t5
    3b4e:	00f59733          	sll	a4,a1,a5
    3b52:	00d556b3          	srl	a3,a0,a3
    3b56:	8f55                	or	a4,a4,a3
    3b58:	01089e93          	slli	t4,a7,0x10
    3b5c:	010ede93          	srli	t4,t4,0x10
    3b60:	00f51333          	sll	t1,a0,a5
    3b64:	01075593          	srli	a1,a4,0x10
    3b68:	03e676b3          	remu	a3,a2,t5
    3b6c:	03ce87b3          	mul	a5,t4,t3
    3b70:	06c2                	slli	a3,a3,0x10
    3b72:	8ecd                	or	a3,a3,a1
    3b74:	00f6fb63          	bgeu	a3,a5,3b8a <__udivdi3+0x226>
    3b78:	96c6                	add	a3,a3,a7
    3b7a:	fffe0613          	addi	a2,t3,-1
    3b7e:	1716e463          	bltu	a3,a7,3ce6 <__udivdi3+0x382>
    3b82:	16f6f263          	bgeu	a3,a5,3ce6 <__udivdi3+0x382>
    3b86:	1e79                	addi	t3,t3,-2
    3b88:	96c6                	add	a3,a3,a7
    3b8a:	8e9d                	sub	a3,a3,a5
    3b8c:	03e6d633          	divu	a2,a3,t5
    3b90:	01071793          	slli	a5,a4,0x10
    3b94:	83c1                	srli	a5,a5,0x10
    3b96:	03e6f6b3          	remu	a3,a3,t5
    3b9a:	02ce8533          	mul	a0,t4,a2
    3b9e:	01069713          	slli	a4,a3,0x10
    3ba2:	8f5d                	or	a4,a4,a5
    3ba4:	00a77b63          	bgeu	a4,a0,3bba <__udivdi3+0x256>
    3ba8:	9746                	add	a4,a4,a7
    3baa:	fff60793          	addi	a5,a2,-1
    3bae:	13176863          	bltu	a4,a7,3cde <__udivdi3+0x37a>
    3bb2:	12a77663          	bgeu	a4,a0,3cde <__udivdi3+0x37a>
    3bb6:	1679                	addi	a2,a2,-2
    3bb8:	9746                	add	a4,a4,a7
    3bba:	010e1593          	slli	a1,t3,0x10
    3bbe:	8f09                	sub	a4,a4,a0
    3bc0:	8dd1                	or	a1,a1,a2
    3bc2:	b54d                	j	3a64 <__udivdi3+0x100>
    3bc4:	00e657b3          	srl	a5,a2,a4
    3bc8:	01c696b3          	sll	a3,a3,t3
    3bcc:	8edd                	or	a3,a3,a5
    3bce:	00e5d333          	srl	t1,a1,a4
    3bd2:	0106df13          	srli	t5,a3,0x10
    3bd6:	03e357b3          	divu	a5,t1,t5
    3bda:	01069e93          	slli	t4,a3,0x10
    3bde:	010ede93          	srli	t4,t4,0x10
    3be2:	01c59833          	sll	a6,a1,t3
    3be6:	00e55733          	srl	a4,a0,a4
    3bea:	01076833          	or	a6,a4,a6
    3bee:	01085893          	srli	a7,a6,0x10
    3bf2:	01c61633          	sll	a2,a2,t3
    3bf6:	03e37333          	remu	t1,t1,t5
    3bfa:	02fe85b3          	mul	a1,t4,a5
    3bfe:	0342                	slli	t1,t1,0x10
    3c00:	011368b3          	or	a7,t1,a7
    3c04:	00b8fb63          	bgeu	a7,a1,3c1a <__udivdi3+0x2b6>
    3c08:	98b6                	add	a7,a7,a3
    3c0a:	fff78713          	addi	a4,a5,-1
    3c0e:	0cd8ea63          	bltu	a7,a3,3ce2 <__udivdi3+0x37e>
    3c12:	0cb8f863          	bgeu	a7,a1,3ce2 <__udivdi3+0x37e>
    3c16:	17f9                	addi	a5,a5,-2
    3c18:	98b6                	add	a7,a7,a3
    3c1a:	40b888b3          	sub	a7,a7,a1
    3c1e:	03e8d733          	divu	a4,a7,t5
    3c22:	0842                	slli	a6,a6,0x10
    3c24:	01085813          	srli	a6,a6,0x10
    3c28:	03e8f8b3          	remu	a7,a7,t5
    3c2c:	02ee8333          	mul	t1,t4,a4
    3c30:	08c2                	slli	a7,a7,0x10
    3c32:	0108e5b3          	or	a1,a7,a6
    3c36:	0065fb63          	bgeu	a1,t1,3c4c <__udivdi3+0x2e8>
    3c3a:	95b6                	add	a1,a1,a3
    3c3c:	fff70813          	addi	a6,a4,-1
    3c40:	08d5ed63          	bltu	a1,a3,3cda <__udivdi3+0x376>
    3c44:	0865fb63          	bgeu	a1,t1,3cda <__udivdi3+0x376>
    3c48:	1779                	addi	a4,a4,-2
    3c4a:	95b6                	add	a1,a1,a3
    3c4c:	07c2                	slli	a5,a5,0x10
    3c4e:	6f41                	lui	t5,0x10
    3c50:	8fd9                	or	a5,a5,a4
    3c52:	ffff0713          	addi	a4,t5,-1 # ffff <_data_lma+0x8d93>
    3c56:	00e7f6b3          	and	a3,a5,a4
    3c5a:	0107d893          	srli	a7,a5,0x10
    3c5e:	8f71                	and	a4,a4,a2
    3c60:	8241                	srli	a2,a2,0x10
    3c62:	02e68eb3          	mul	t4,a3,a4
    3c66:	406585b3          	sub	a1,a1,t1
    3c6a:	02c686b3          	mul	a3,a3,a2
    3c6e:	010ed813          	srli	a6,t4,0x10
    3c72:	02e88733          	mul	a4,a7,a4
    3c76:	96ba                	add	a3,a3,a4
    3c78:	96c2                	add	a3,a3,a6
    3c7a:	02c88633          	mul	a2,a7,a2
    3c7e:	00e6f363          	bgeu	a3,a4,3c84 <__udivdi3+0x320>
    3c82:	967a                	add	a2,a2,t5
    3c84:	0106d893          	srli	a7,a3,0x10
    3c88:	9646                	add	a2,a2,a7
    3c8a:	02c5e263          	bltu	a1,a2,3cae <__udivdi3+0x34a>
    3c8e:	00c58563          	beq	a1,a2,3c98 <__udivdi3+0x334>
    3c92:	853e                	mv	a0,a5
    3c94:	4581                	li	a1,0
    3c96:	8082                	ret
    3c98:	6741                	lui	a4,0x10
    3c9a:	177d                	addi	a4,a4,-1
    3c9c:	8ef9                	and	a3,a3,a4
    3c9e:	06c2                	slli	a3,a3,0x10
    3ca0:	00eefeb3          	and	t4,t4,a4
    3ca4:	01c51533          	sll	a0,a0,t3
    3ca8:	96f6                	add	a3,a3,t4
    3caa:	fed574e3          	bgeu	a0,a3,3c92 <__udivdi3+0x32e>
    3cae:	fff78513          	addi	a0,a5,-1
    3cb2:	4581                	li	a1,0
    3cb4:	8082                	ret
    3cb6:	0106d713          	srli	a4,a3,0x10
    3cba:	4841                	li	a6,16
    3cbc:	bd39                	j	3ada <__udivdi3+0x176>
    3cbe:	01065693          	srli	a3,a2,0x10
    3cc2:	47c1                	li	a5,16
    3cc4:	b1d1                	j	3988 <__udivdi3+0x24>
    3cc6:	0108d693          	srli	a3,a7,0x10
    3cca:	47c1                	li	a5,16
    3ccc:	bb85                	j	3a3c <__udivdi3+0xd8>
    3cce:	4581                	li	a1,0
    3cd0:	4505                	li	a0,1
    3cd2:	8082                	ret
    3cd4:	8736                	mv	a4,a3
    3cd6:	4801                	li	a6,0
    3cd8:	b509                	j	3ada <__udivdi3+0x176>
    3cda:	8742                	mv	a4,a6
    3cdc:	bf85                	j	3c4c <__udivdi3+0x2e8>
    3cde:	863e                	mv	a2,a5
    3ce0:	bde9                	j	3bba <__udivdi3+0x256>
    3ce2:	87ba                	mv	a5,a4
    3ce4:	bf1d                	j	3c1a <__udivdi3+0x2b6>
    3ce6:	8e32                	mv	t3,a2
    3ce8:	b54d                	j	3b8a <__udivdi3+0x226>
    3cea:	1579                	addi	a0,a0,-2
    3cec:	9846                	add	a6,a6,a7
    3cee:	b9e5                	j	39e6 <__udivdi3+0x82>
    3cf0:	1579                	addi	a0,a0,-2
    3cf2:	97c6                	add	a5,a5,a7
    3cf4:	bb61                	j	3a8c <__udivdi3+0x128>

00003cf6 <__umoddi3>:
    3cf6:	87b6                	mv	a5,a3
    3cf8:	8832                	mv	a6,a2
    3cfa:	832a                	mv	t1,a0
    3cfc:	872e                	mv	a4,a1
    3cfe:	8e2e                	mv	t3,a1
    3d00:	14069163          	bnez	a3,3e42 <__umoddi3+0x14c>
    3d04:	0ac5f063          	bgeu	a1,a2,3da4 <__umoddi3+0xae>
    3d08:	6741                	lui	a4,0x10
    3d0a:	1ae67663          	bgeu	a2,a4,3eb6 <__umoddi3+0x1c0>
    3d0e:	0ff00713          	li	a4,255
    3d12:	86b2                	mv	a3,a2
    3d14:	00c77563          	bgeu	a4,a2,3d1e <__umoddi3+0x28>
    3d18:	00865693          	srli	a3,a2,0x8
    3d1c:	47a1                	li	a5,8
    3d1e:	00003717          	auipc	a4,0x3
    3d22:	33a70713          	addi	a4,a4,826 # 7058 <__clz_tab>
    3d26:	9736                	add	a4,a4,a3
    3d28:	2318                	lbu	a4,0(a4)
    3d2a:	02000893          	li	a7,32
    3d2e:	97ba                	add	a5,a5,a4
    3d30:	40f888b3          	sub	a7,a7,a5
    3d34:	00088c63          	beqz	a7,3d4c <__umoddi3+0x56>
    3d38:	011595b3          	sll	a1,a1,a7
    3d3c:	00f557b3          	srl	a5,a0,a5
    3d40:	01161833          	sll	a6,a2,a7
    3d44:	00b7ee33          	or	t3,a5,a1
    3d48:	01151333          	sll	t1,a0,a7
    3d4c:	01085613          	srli	a2,a6,0x10
    3d50:	02ce57b3          	divu	a5,t3,a2
    3d54:	01081513          	slli	a0,a6,0x10
    3d58:	8141                	srli	a0,a0,0x10
    3d5a:	01035693          	srli	a3,t1,0x10
    3d5e:	02ce7e33          	remu	t3,t3,a2
    3d62:	02f507b3          	mul	a5,a0,a5
    3d66:	0e42                	slli	t3,t3,0x10
    3d68:	00de6733          	or	a4,t3,a3
    3d6c:	00f77863          	bgeu	a4,a5,3d7c <__umoddi3+0x86>
    3d70:	9742                	add	a4,a4,a6
    3d72:	01076563          	bltu	a4,a6,3d7c <__umoddi3+0x86>
    3d76:	00f77363          	bgeu	a4,a5,3d7c <__umoddi3+0x86>
    3d7a:	9742                	add	a4,a4,a6
    3d7c:	8f1d                	sub	a4,a4,a5
    3d7e:	02c756b3          	divu	a3,a4,a2
    3d82:	01031793          	slli	a5,t1,0x10
    3d86:	83c1                	srli	a5,a5,0x10
    3d88:	02c77733          	remu	a4,a4,a2
    3d8c:	02d50533          	mul	a0,a0,a3
    3d90:	0742                	slli	a4,a4,0x10
    3d92:	8fd9                	or	a5,a5,a4
    3d94:	08a7eb63          	bltu	a5,a0,3e2a <__umoddi3+0x134>
    3d98:	40a78533          	sub	a0,a5,a0
    3d9c:	01155533          	srl	a0,a0,a7
    3da0:	4581                	li	a1,0
    3da2:	8082                	ret
    3da4:	e601                	bnez	a2,3dac <__umoddi3+0xb6>
    3da6:	4705                	li	a4,1
    3da8:	02c75833          	divu	a6,a4,a2
    3dac:	6741                	lui	a4,0x10
    3dae:	0ee86b63          	bltu	a6,a4,3ea4 <__umoddi3+0x1ae>
    3db2:	010007b7          	lui	a5,0x1000
    3db6:	2af86463          	bltu	a6,a5,405e <__umoddi3+0x368>
    3dba:	01885693          	srli	a3,a6,0x18
    3dbe:	47e1                	li	a5,24
    3dc0:	00003717          	auipc	a4,0x3
    3dc4:	29870713          	addi	a4,a4,664 # 7058 <__clz_tab>
    3dc8:	9736                	add	a4,a4,a3
    3dca:	2318                	lbu	a4,0(a4)
    3dcc:	02000893          	li	a7,32
    3dd0:	97ba                	add	a5,a5,a4
    3dd2:	40f888b3          	sub	a7,a7,a5
    3dd6:	1e089a63          	bnez	a7,3fca <__umoddi3+0x2d4>
    3dda:	01081e13          	slli	t3,a6,0x10
    3dde:	410585b3          	sub	a1,a1,a6
    3de2:	01085613          	srli	a2,a6,0x10
    3de6:	010e5e13          	srli	t3,t3,0x10
    3dea:	01035713          	srli	a4,t1,0x10
    3dee:	02c5d6b3          	divu	a3,a1,a2
    3df2:	02c5f5b3          	remu	a1,a1,a2
    3df6:	03c686b3          	mul	a3,a3,t3
    3dfa:	05c2                	slli	a1,a1,0x10
    3dfc:	8f4d                	or	a4,a4,a1
    3dfe:	00d77763          	bgeu	a4,a3,3e0c <__umoddi3+0x116>
    3e02:	9742                	add	a4,a4,a6
    3e04:	01076463          	bltu	a4,a6,3e0c <__umoddi3+0x116>
    3e08:	26d76a63          	bltu	a4,a3,407c <__umoddi3+0x386>
    3e0c:	8f15                	sub	a4,a4,a3
    3e0e:	02c75533          	divu	a0,a4,a2
    3e12:	0342                	slli	t1,t1,0x10
    3e14:	01035313          	srli	t1,t1,0x10
    3e18:	02c77733          	remu	a4,a4,a2
    3e1c:	03c50533          	mul	a0,a0,t3
    3e20:	0742                	slli	a4,a4,0x10
    3e22:	006767b3          	or	a5,a4,t1
    3e26:	00a7f863          	bgeu	a5,a0,3e36 <__umoddi3+0x140>
    3e2a:	97c2                	add	a5,a5,a6
    3e2c:	0107e563          	bltu	a5,a6,3e36 <__umoddi3+0x140>
    3e30:	00a7f363          	bgeu	a5,a0,3e36 <__umoddi3+0x140>
    3e34:	97c2                	add	a5,a5,a6
    3e36:	40a78533          	sub	a0,a5,a0
    3e3a:	01155533          	srl	a0,a0,a7
    3e3e:	4581                	li	a1,0
    3e40:	8082                	ret
    3e42:	882a                	mv	a6,a0
    3e44:	f4d5efe3          	bltu	a1,a3,3da2 <__umoddi3+0xac>
    3e48:	67c1                	lui	a5,0x10
    3e4a:	04f6e563          	bltu	a3,a5,3e94 <__umoddi3+0x19e>
    3e4e:	010007b7          	lui	a5,0x1000
    3e52:	20f6e263          	bltu	a3,a5,4056 <__umoddi3+0x360>
    3e56:	0186d313          	srli	t1,a3,0x18
    3e5a:	48e1                	li	a7,24
    3e5c:	00003797          	auipc	a5,0x3
    3e60:	1fc78793          	addi	a5,a5,508 # 7058 <__clz_tab>
    3e64:	979a                	add	a5,a5,t1
    3e66:	0007ce03          	lbu	t3,0(a5)
    3e6a:	02000313          	li	t1,32
    3e6e:	9e46                	add	t3,t3,a7
    3e70:	41c30333          	sub	t1,t1,t3
    3e74:	04031963          	bnez	t1,3ec6 <__umoddi3+0x1d0>
    3e78:	00b6e463          	bltu	a3,a1,3e80 <__umoddi3+0x18a>
    3e7c:	00c56963          	bltu	a0,a2,3e8e <__umoddi3+0x198>
    3e80:	40c50833          	sub	a6,a0,a2
    3e84:	8d95                	sub	a1,a1,a3
    3e86:	01053733          	sltu	a4,a0,a6
    3e8a:	40e58733          	sub	a4,a1,a4
    3e8e:	8542                	mv	a0,a6
    3e90:	85ba                	mv	a1,a4
    3e92:	8082                	ret
    3e94:	0ff00793          	li	a5,255
    3e98:	1cd7fb63          	bgeu	a5,a3,406e <__umoddi3+0x378>
    3e9c:	0086d313          	srli	t1,a3,0x8
    3ea0:	48a1                	li	a7,8
    3ea2:	bf6d                	j	3e5c <__umoddi3+0x166>
    3ea4:	0ff00713          	li	a4,255
    3ea8:	86c2                	mv	a3,a6
    3eaa:	f1077be3          	bgeu	a4,a6,3dc0 <__umoddi3+0xca>
    3eae:	00885693          	srli	a3,a6,0x8
    3eb2:	47a1                	li	a5,8
    3eb4:	b731                	j	3dc0 <__umoddi3+0xca>
    3eb6:	010007b7          	lui	a5,0x1000
    3eba:	1af66663          	bltu	a2,a5,4066 <__umoddi3+0x370>
    3ebe:	01865693          	srli	a3,a2,0x18
    3ec2:	47e1                	li	a5,24
    3ec4:	bda9                	j	3d1e <__umoddi3+0x28>
    3ec6:	01c657b3          	srl	a5,a2,t3
    3eca:	006696b3          	sll	a3,a3,t1
    3ece:	8edd                	or	a3,a3,a5
    3ed0:	01c5d8b3          	srl	a7,a1,t3
    3ed4:	0106d713          	srli	a4,a3,0x10
    3ed8:	02e8deb3          	divu	t4,a7,a4
    3edc:	01069f13          	slli	t5,a3,0x10
    3ee0:	01c557b3          	srl	a5,a0,t3
    3ee4:	010f5f13          	srli	t5,t5,0x10
    3ee8:	006595b3          	sll	a1,a1,t1
    3eec:	8ddd                	or	a1,a1,a5
    3eee:	0105d813          	srli	a6,a1,0x10
    3ef2:	00661633          	sll	a2,a2,t1
    3ef6:	00651533          	sll	a0,a0,t1
    3efa:	02e8f8b3          	remu	a7,a7,a4
    3efe:	03df07b3          	mul	a5,t5,t4
    3f02:	08c2                	slli	a7,a7,0x10
    3f04:	0108e833          	or	a6,a7,a6
    3f08:	00f87b63          	bgeu	a6,a5,3f1e <__umoddi3+0x228>
    3f0c:	9836                	add	a6,a6,a3
    3f0e:	fffe8893          	addi	a7,t4,-1
    3f12:	16d86363          	bltu	a6,a3,4078 <__umoddi3+0x382>
    3f16:	16f87163          	bgeu	a6,a5,4078 <__umoddi3+0x382>
    3f1a:	1ef9                	addi	t4,t4,-2
    3f1c:	9836                	add	a6,a6,a3
    3f1e:	40f80833          	sub	a6,a6,a5
    3f22:	02e857b3          	divu	a5,a6,a4
    3f26:	05c2                	slli	a1,a1,0x10
    3f28:	81c1                	srli	a1,a1,0x10
    3f2a:	02e87833          	remu	a6,a6,a4
    3f2e:	02ff0f33          	mul	t5,t5,a5
    3f32:	01081713          	slli	a4,a6,0x10
    3f36:	8f4d                	or	a4,a4,a1
    3f38:	01e77b63          	bgeu	a4,t5,3f4e <__umoddi3+0x258>
    3f3c:	9736                	add	a4,a4,a3
    3f3e:	fff78593          	addi	a1,a5,-1 # ffffff <_data_lma+0xff8d93>
    3f42:	12d76963          	bltu	a4,a3,4074 <__umoddi3+0x37e>
    3f46:	13e77763          	bgeu	a4,t5,4074 <__umoddi3+0x37e>
    3f4a:	17f9                	addi	a5,a5,-2
    3f4c:	9736                	add	a4,a4,a3
    3f4e:	0ec2                	slli	t4,t4,0x10
    3f50:	62c1                	lui	t0,0x10
    3f52:	00feeeb3          	or	t4,t4,a5
    3f56:	fff28813          	addi	a6,t0,-1 # ffff <_data_lma+0x8d93>
    3f5a:	010ef8b3          	and	a7,t4,a6
    3f5e:	01065593          	srli	a1,a2,0x10
    3f62:	010ede93          	srli	t4,t4,0x10
    3f66:	01067833          	and	a6,a2,a6
    3f6a:	03088fb3          	mul	t6,a7,a6
    3f6e:	41e70733          	sub	a4,a4,t5
    3f72:	030e8833          	mul	a6,t4,a6
    3f76:	010fd793          	srli	a5,t6,0x10
    3f7a:	02b888b3          	mul	a7,a7,a1
    3f7e:	98c2                	add	a7,a7,a6
    3f80:	97c6                	add	a5,a5,a7
    3f82:	02be8eb3          	mul	t4,t4,a1
    3f86:	0107f363          	bgeu	a5,a6,3f8c <__umoddi3+0x296>
    3f8a:	9e96                	add	t4,t4,t0
    3f8c:	6841                	lui	a6,0x10
    3f8e:	187d                	addi	a6,a6,-1
    3f90:	0107d593          	srli	a1,a5,0x10
    3f94:	0107f7b3          	and	a5,a5,a6
    3f98:	07c2                	slli	a5,a5,0x10
    3f9a:	010fffb3          	and	t6,t6,a6
    3f9e:	95f6                	add	a1,a1,t4
    3fa0:	97fe                	add	a5,a5,t6
    3fa2:	0ab76263          	bltu	a4,a1,4046 <__umoddi3+0x350>
    3fa6:	08b70e63          	beq	a4,a1,4042 <__umoddi3+0x34c>
    3faa:	40f507b3          	sub	a5,a0,a5
    3fae:	00f53533          	sltu	a0,a0,a5
    3fb2:	40b705b3          	sub	a1,a4,a1
    3fb6:	8d89                	sub	a1,a1,a0
    3fb8:	01c59e33          	sll	t3,a1,t3
    3fbc:	0067d533          	srl	a0,a5,t1
    3fc0:	00ae6533          	or	a0,t3,a0
    3fc4:	0065d5b3          	srl	a1,a1,t1
    3fc8:	8082                	ret
    3fca:	01181833          	sll	a6,a6,a7
    3fce:	00f5d733          	srl	a4,a1,a5
    3fd2:	01085613          	srli	a2,a6,0x10
    3fd6:	02c756b3          	divu	a3,a4,a2
    3fda:	01081e13          	slli	t3,a6,0x10
    3fde:	00f557b3          	srl	a5,a0,a5
    3fe2:	010e5e13          	srli	t3,t3,0x10
    3fe6:	011595b3          	sll	a1,a1,a7
    3fea:	8ddd                	or	a1,a1,a5
    3fec:	0105de93          	srli	t4,a1,0x10
    3ff0:	01151333          	sll	t1,a0,a7
    3ff4:	02c77733          	remu	a4,a4,a2
    3ff8:	02de07b3          	mul	a5,t3,a3
    3ffc:	01071693          	slli	a3,a4,0x10
    4000:	01d6e6b3          	or	a3,a3,t4
    4004:	00f6f863          	bgeu	a3,a5,4014 <__umoddi3+0x31e>
    4008:	96c2                	add	a3,a3,a6
    400a:	0106e563          	bltu	a3,a6,4014 <__umoddi3+0x31e>
    400e:	00f6f363          	bgeu	a3,a5,4014 <__umoddi3+0x31e>
    4012:	96c2                	add	a3,a3,a6
    4014:	8e9d                	sub	a3,a3,a5
    4016:	02c6d733          	divu	a4,a3,a2
    401a:	01059793          	slli	a5,a1,0x10
    401e:	83c1                	srli	a5,a5,0x10
    4020:	02c6f6b3          	remu	a3,a3,a2
    4024:	02ee0733          	mul	a4,t3,a4
    4028:	01069593          	slli	a1,a3,0x10
    402c:	8ddd                	or	a1,a1,a5
    402e:	00e5f863          	bgeu	a1,a4,403e <__umoddi3+0x348>
    4032:	95c2                	add	a1,a1,a6
    4034:	0105e563          	bltu	a1,a6,403e <__umoddi3+0x348>
    4038:	00e5f363          	bgeu	a1,a4,403e <__umoddi3+0x348>
    403c:	95c2                	add	a1,a1,a6
    403e:	8d99                	sub	a1,a1,a4
    4040:	b36d                	j	3dea <__umoddi3+0xf4>
    4042:	f6f574e3          	bgeu	a0,a5,3faa <__umoddi3+0x2b4>
    4046:	40c78633          	sub	a2,a5,a2
    404a:	00c7b7b3          	sltu	a5,a5,a2
    404e:	97b6                	add	a5,a5,a3
    4050:	8d9d                	sub	a1,a1,a5
    4052:	87b2                	mv	a5,a2
    4054:	bf99                	j	3faa <__umoddi3+0x2b4>
    4056:	0106d313          	srli	t1,a3,0x10
    405a:	48c1                	li	a7,16
    405c:	b501                	j	3e5c <__umoddi3+0x166>
    405e:	01085693          	srli	a3,a6,0x10
    4062:	47c1                	li	a5,16
    4064:	bbb1                	j	3dc0 <__umoddi3+0xca>
    4066:	01065693          	srli	a3,a2,0x10
    406a:	47c1                	li	a5,16
    406c:	b94d                	j	3d1e <__umoddi3+0x28>
    406e:	8336                	mv	t1,a3
    4070:	4881                	li	a7,0
    4072:	b3ed                	j	3e5c <__umoddi3+0x166>
    4074:	87ae                	mv	a5,a1
    4076:	bde1                	j	3f4e <__umoddi3+0x258>
    4078:	8ec6                	mv	t4,a7
    407a:	b555                	j	3f1e <__umoddi3+0x228>
    407c:	9742                	add	a4,a4,a6
    407e:	b379                	j	3e0c <__umoddi3+0x116>

00004080 <__adddf3>:
    4080:	00100837          	lui	a6,0x100
    4084:	1101                	addi	sp,sp,-32
    4086:	187d                	addi	a6,a6,-1
    4088:	00b87733          	and	a4,a6,a1
    408c:	ca26                	sw	s1,20(sp)
    408e:	00d87833          	and	a6,a6,a3
    4092:	0145d493          	srli	s1,a1,0x14
    4096:	0146d313          	srli	t1,a3,0x14
    409a:	00371e13          	slli	t3,a4,0x3
    409e:	c64e                	sw	s3,12(sp)
    40a0:	01d55713          	srli	a4,a0,0x1d
    40a4:	080e                	slli	a6,a6,0x3
    40a6:	01d65793          	srli	a5,a2,0x1d
    40aa:	7ff4f493          	andi	s1,s1,2047
    40ae:	7ff37313          	andi	t1,t1,2047
    40b2:	ce06                	sw	ra,28(sp)
    40b4:	cc22                	sw	s0,24(sp)
    40b6:	c84a                	sw	s2,16(sp)
    40b8:	01f5d993          	srli	s3,a1,0x1f
    40bc:	01f6de93          	srli	t4,a3,0x1f
    40c0:	01c76733          	or	a4,a4,t3
    40c4:	00351f13          	slli	t5,a0,0x3
    40c8:	0107e833          	or	a6,a5,a6
    40cc:	00361f93          	slli	t6,a2,0x3
    40d0:	40648e33          	sub	t3,s1,t1
    40d4:	19d98063          	beq	s3,t4,4254 <__adddf3+0x1d4>
    40d8:	13c05663          	blez	t3,4204 <__adddf3+0x184>
    40dc:	1c030463          	beqz	t1,42a4 <__adddf3+0x224>
    40e0:	008006b7          	lui	a3,0x800
    40e4:	7ff00793          	li	a5,2047
    40e8:	00d86833          	or	a6,a6,a3
    40ec:	36f48f63          	beq	s1,a5,446a <__adddf3+0x3ea>
    40f0:	03800793          	li	a5,56
    40f4:	35c7c063          	blt	a5,t3,4434 <__adddf3+0x3b4>
    40f8:	47fd                	li	a5,31
    40fa:	47c7cd63          	blt	a5,t3,4574 <__adddf3+0x4f4>
    40fe:	02000513          	li	a0,32
    4102:	41c50533          	sub	a0,a0,t3
    4106:	01cfd7b3          	srl	a5,t6,t3
    410a:	00a816b3          	sll	a3,a6,a0
    410e:	00af9933          	sll	s2,t6,a0
    4112:	8edd                	or	a3,a3,a5
    4114:	01203933          	snez	s2,s2
    4118:	01c857b3          	srl	a5,a6,t3
    411c:	0126e933          	or	s2,a3,s2
    4120:	8f1d                	sub	a4,a4,a5
    4122:	412f0933          	sub	s2,t5,s2
    4126:	012f37b3          	sltu	a5,t5,s2
    412a:	40f70633          	sub	a2,a4,a5
    412e:	00861793          	slli	a5,a2,0x8
    4132:	2407d463          	bgez	a5,437a <__adddf3+0x2fa>
    4136:	00800737          	lui	a4,0x800
    413a:	177d                	addi	a4,a4,-1
    413c:	00e67433          	and	s0,a2,a4
    4140:	2c040c63          	beqz	s0,4418 <__adddf3+0x398>
    4144:	8522                	mv	a0,s0
    4146:	144020ef          	jal	ra,628a <__clzsi2>
    414a:	ff850713          	addi	a4,a0,-8
    414e:	02000793          	li	a5,32
    4152:	8f99                	sub	a5,a5,a4
    4154:	00f957b3          	srl	a5,s2,a5
    4158:	00e41633          	sll	a2,s0,a4
    415c:	8fd1                	or	a5,a5,a2
    415e:	00e91933          	sll	s2,s2,a4
    4162:	2a974163          	blt	a4,s1,4404 <__adddf3+0x384>
    4166:	40970533          	sub	a0,a4,s1
    416a:	00150613          	addi	a2,a0,1
    416e:	477d                	li	a4,31
    4170:	38c74d63          	blt	a4,a2,450a <__adddf3+0x48a>
    4174:	02000713          	li	a4,32
    4178:	8f11                	sub	a4,a4,a2
    417a:	00c956b3          	srl	a3,s2,a2
    417e:	00e91933          	sll	s2,s2,a4
    4182:	00e79733          	sll	a4,a5,a4
    4186:	8f55                	or	a4,a4,a3
    4188:	01203933          	snez	s2,s2
    418c:	01276933          	or	s2,a4,s2
    4190:	00c7d633          	srl	a2,a5,a2
    4194:	4481                	li	s1,0
    4196:	00797793          	andi	a5,s2,7
    419a:	cf81                	beqz	a5,41b2 <__adddf3+0x132>
    419c:	00f97713          	andi	a4,s2,15
    41a0:	4791                	li	a5,4
    41a2:	00f70863          	beq	a4,a5,41b2 <__adddf3+0x132>
    41a6:	00490713          	addi	a4,s2,4
    41aa:	01273933          	sltu	s2,a4,s2
    41ae:	964a                	add	a2,a2,s2
    41b0:	893a                	mv	s2,a4
    41b2:	00861793          	slli	a5,a2,0x8
    41b6:	1c07d663          	bgez	a5,4382 <__adddf3+0x302>
    41ba:	00148513          	addi	a0,s1,1
    41be:	7ff00793          	li	a5,2047
    41c2:	85ce                	mv	a1,s3
    41c4:	20f50463          	beq	a0,a5,43cc <__adddf3+0x34c>
    41c8:	ff8007b7          	lui	a5,0xff800
    41cc:	17fd                	addi	a5,a5,-1
    41ce:	8ff1                	and	a5,a5,a2
    41d0:	01d79893          	slli	a7,a5,0x1d
    41d4:	00395913          	srli	s2,s2,0x3
    41d8:	07a6                	slli	a5,a5,0x9
    41da:	0128e8b3          	or	a7,a7,s2
    41de:	83b1                	srli	a5,a5,0xc
    41e0:	7ff57513          	andi	a0,a0,2047
    41e4:	00c79693          	slli	a3,a5,0xc
    41e8:	0552                	slli	a0,a0,0x14
    41ea:	40f2                	lw	ra,28(sp)
    41ec:	4462                	lw	s0,24(sp)
    41ee:	82b1                	srli	a3,a3,0xc
    41f0:	05fe                	slli	a1,a1,0x1f
    41f2:	8ec9                	or	a3,a3,a0
    41f4:	8ecd                	or	a3,a3,a1
    41f6:	44d2                	lw	s1,20(sp)
    41f8:	4942                	lw	s2,16(sp)
    41fa:	49b2                	lw	s3,12(sp)
    41fc:	8546                	mv	a0,a7
    41fe:	85b6                	mv	a1,a3
    4200:	6105                	addi	sp,sp,32
    4202:	8082                	ret
    4204:	0a0e1e63          	bnez	t3,42c0 <__adddf3+0x240>
    4208:	00148313          	addi	t1,s1,1
    420c:	7fe37313          	andi	t1,t1,2046
    4210:	22031763          	bnez	t1,443e <__adddf3+0x3be>
    4214:	01e767b3          	or	a5,a4,t5
    4218:	01f868b3          	or	a7,a6,t6
    421c:	1a049d63          	bnez	s1,43d6 <__adddf3+0x356>
    4220:	40078763          	beqz	a5,462e <__adddf3+0x5ae>
    4224:	44088663          	beqz	a7,4670 <__adddf3+0x5f0>
    4228:	41ff0933          	sub	s2,t5,t6
    422c:	410707b3          	sub	a5,a4,a6
    4230:	012f3633          	sltu	a2,t5,s2
    4234:	40c78633          	sub	a2,a5,a2
    4238:	00861793          	slli	a5,a2,0x8
    423c:	4c07d663          	bgez	a5,4708 <__adddf3+0x688>
    4240:	41ef8933          	sub	s2,t6,t5
    4244:	40e807b3          	sub	a5,a6,a4
    4248:	012fb633          	sltu	a2,t6,s2
    424c:	40c78633          	sub	a2,a5,a2
    4250:	89f6                	mv	s3,t4
    4252:	b791                	j	4196 <__adddf3+0x116>
    4254:	0fc05063          	blez	t3,4334 <__adddf3+0x2b4>
    4258:	0c030063          	beqz	t1,4318 <__adddf3+0x298>
    425c:	008006b7          	lui	a3,0x800
    4260:	7ff00793          	li	a5,2047
    4264:	00d86833          	or	a6,a6,a3
    4268:	3af48a63          	beq	s1,a5,461c <__adddf3+0x59c>
    426c:	03800793          	li	a5,56
    4270:	13c7cb63          	blt	a5,t3,43a6 <__adddf3+0x326>
    4274:	47fd                	li	a5,31
    4276:	35c7df63          	bge	a5,t3,45d4 <__adddf3+0x554>
    427a:	fe0e0913          	addi	s2,t3,-32
    427e:	02000793          	li	a5,32
    4282:	012856b3          	srl	a3,a6,s2
    4286:	00fe0a63          	beq	t3,a5,429a <__adddf3+0x21a>
    428a:	04000913          	li	s2,64
    428e:	41c90933          	sub	s2,s2,t3
    4292:	01281933          	sll	s2,a6,s2
    4296:	012fefb3          	or	t6,t6,s2
    429a:	01f03933          	snez	s2,t6
    429e:	00d96933          	or	s2,s2,a3
    42a2:	a231                	j	43ae <__adddf3+0x32e>
    42a4:	01f867b3          	or	a5,a6,t6
    42a8:	1c078a63          	beqz	a5,447c <__adddf3+0x3fc>
    42ac:	fffe0793          	addi	a5,t3,-1
    42b0:	38078c63          	beqz	a5,4648 <__adddf3+0x5c8>
    42b4:	7ff00693          	li	a3,2047
    42b8:	1ade0963          	beq	t3,a3,446a <__adddf3+0x3ea>
    42bc:	8e3e                	mv	t3,a5
    42be:	bd0d                	j	40f0 <__adddf3+0x70>
    42c0:	409305b3          	sub	a1,t1,s1
    42c4:	22049163          	bnez	s1,44e6 <__adddf3+0x466>
    42c8:	01e767b3          	or	a5,a4,t5
    42cc:	32078763          	beqz	a5,45fa <__adddf3+0x57a>
    42d0:	fff58793          	addi	a5,a1,-1
    42d4:	44078163          	beqz	a5,4716 <__adddf3+0x696>
    42d8:	7ff00693          	li	a3,2047
    42dc:	20d58c63          	beq	a1,a3,44f4 <__adddf3+0x474>
    42e0:	85be                	mv	a1,a5
    42e2:	03800793          	li	a5,56
    42e6:	2ab7cc63          	blt	a5,a1,459e <__adddf3+0x51e>
    42ea:	47fd                	li	a5,31
    42ec:	3cb7cf63          	blt	a5,a1,46ca <__adddf3+0x64a>
    42f0:	02000793          	li	a5,32
    42f4:	8f8d                	sub	a5,a5,a1
    42f6:	00f71933          	sll	s2,a4,a5
    42fa:	00bf56b3          	srl	a3,t5,a1
    42fe:	00ff17b3          	sll	a5,t5,a5
    4302:	00d96933          	or	s2,s2,a3
    4306:	00f037b3          	snez	a5,a5
    430a:	00b75733          	srl	a4,a4,a1
    430e:	00f96933          	or	s2,s2,a5
    4312:	40e80833          	sub	a6,a6,a4
    4316:	ac41                	j	45a6 <__adddf3+0x526>
    4318:	01f867b3          	or	a5,a6,t6
    431c:	34078063          	beqz	a5,465c <__adddf3+0x5dc>
    4320:	fffe0793          	addi	a5,t3,-1
    4324:	20078a63          	beqz	a5,4538 <__adddf3+0x4b8>
    4328:	7ff00693          	li	a3,2047
    432c:	2ede0863          	beq	t3,a3,461c <__adddf3+0x59c>
    4330:	8e3e                	mv	t3,a5
    4332:	bf2d                	j	426c <__adddf3+0x1ec>
    4334:	140e1e63          	bnez	t3,4490 <__adddf3+0x410>
    4338:	00148693          	addi	a3,s1,1
    433c:	7fe6f793          	andi	a5,a3,2046
    4340:	34079163          	bnez	a5,4682 <__adddf3+0x602>
    4344:	01e767b3          	or	a5,a4,t5
    4348:	2c049563          	bnez	s1,4612 <__adddf3+0x592>
    434c:	3e078063          	beqz	a5,472c <__adddf3+0x6ac>
    4350:	01f867b3          	or	a5,a6,t6
    4354:	30078e63          	beqz	a5,4670 <__adddf3+0x5f0>
    4358:	01ff0933          	add	s2,t5,t6
    435c:	010707b3          	add	a5,a4,a6
    4360:	01e93f33          	sltu	t5,s2,t5
    4364:	01e78633          	add	a2,a5,t5
    4368:	00861793          	slli	a5,a2,0x8
    436c:	0007d763          	bgez	a5,437a <__adddf3+0x2fa>
    4370:	ff8007b7          	lui	a5,0xff800
    4374:	17fd                	addi	a5,a5,-1
    4376:	8e7d                	and	a2,a2,a5
    4378:	4485                	li	s1,1
    437a:	00797793          	andi	a5,s2,7
    437e:	e0079fe3          	bnez	a5,419c <__adddf3+0x11c>
    4382:	01d61793          	slli	a5,a2,0x1d
    4386:	00395893          	srli	a7,s2,0x3
    438a:	00f8e8b3          	or	a7,a7,a5
    438e:	00365793          	srli	a5,a2,0x3
    4392:	7ff00713          	li	a4,2047
    4396:	04e48d63          	beq	s1,a4,43f0 <__adddf3+0x370>
    439a:	07b2                	slli	a5,a5,0xc
    439c:	83b1                	srli	a5,a5,0xc
    439e:	7ff4f513          	andi	a0,s1,2047
    43a2:	85ce                	mv	a1,s3
    43a4:	b581                	j	41e4 <__adddf3+0x164>
    43a6:	01f86933          	or	s2,a6,t6
    43aa:	01203933          	snez	s2,s2
    43ae:	997a                	add	s2,s2,t5
    43b0:	01e937b3          	sltu	a5,s2,t5
    43b4:	00e78633          	add	a2,a5,a4
    43b8:	00861793          	slli	a5,a2,0x8
    43bc:	fa07dfe3          	bgez	a5,437a <__adddf3+0x2fa>
    43c0:	0485                	addi	s1,s1,1
    43c2:	7ff00793          	li	a5,2047
    43c6:	18f49663          	bne	s1,a5,4552 <__adddf3+0x4d2>
    43ca:	85ce                	mv	a1,s3
    43cc:	7ff00513          	li	a0,2047
    43d0:	4781                	li	a5,0
    43d2:	4881                	li	a7,0
    43d4:	bd01                	j	41e4 <__adddf3+0x164>
    43d6:	ebc1                	bnez	a5,4466 <__adddf3+0x3e6>
    43d8:	3a088463          	beqz	a7,4780 <__adddf3+0x700>
    43dc:	00361693          	slli	a3,a2,0x3
    43e0:	01d81793          	slli	a5,a6,0x1d
    43e4:	828d                	srli	a3,a3,0x3
    43e6:	00d7e8b3          	or	a7,a5,a3
    43ea:	89f6                	mv	s3,t4
    43ec:	00385793          	srli	a5,a6,0x3
    43f0:	00f8e7b3          	or	a5,a7,a5
    43f4:	dbf9                	beqz	a5,43ca <__adddf3+0x34a>
    43f6:	4581                	li	a1,0
    43f8:	7ff00513          	li	a0,2047
    43fc:	000807b7          	lui	a5,0x80
    4400:	4881                	li	a7,0
    4402:	b3cd                	j	41e4 <__adddf3+0x164>
    4404:	ff800637          	lui	a2,0xff800
    4408:	167d                	addi	a2,a2,-1
    440a:	8e7d                	and	a2,a2,a5
    440c:	00797793          	andi	a5,s2,7
    4410:	8c99                	sub	s1,s1,a4
    4412:	d80795e3          	bnez	a5,419c <__adddf3+0x11c>
    4416:	b7b5                	j	4382 <__adddf3+0x302>
    4418:	854a                	mv	a0,s2
    441a:	671010ef          	jal	ra,628a <__clzsi2>
    441e:	01850713          	addi	a4,a0,24
    4422:	47fd                	li	a5,31
    4424:	d2e7d5e3          	bge	a5,a4,414e <__adddf3+0xce>
    4428:	ff850613          	addi	a2,a0,-8
    442c:	00c917b3          	sll	a5,s2,a2
    4430:	4901                	li	s2,0
    4432:	bb05                	j	4162 <__adddf3+0xe2>
    4434:	01f86933          	or	s2,a6,t6
    4438:	01203933          	snez	s2,s2
    443c:	b1dd                	j	4122 <__adddf3+0xa2>
    443e:	41ff0933          	sub	s2,t5,t6
    4442:	41070633          	sub	a2,a4,a6
    4446:	012f3433          	sltu	s0,t5,s2
    444a:	40860433          	sub	s0,a2,s0
    444e:	00841793          	slli	a5,s0,0x8
    4452:	2407cd63          	bltz	a5,46ac <__adddf3+0x62c>
    4456:	008968b3          	or	a7,s2,s0
    445a:	ce0893e3          	bnez	a7,4140 <__adddf3+0xc0>
    445e:	4781                	li	a5,0
    4460:	4981                	li	s3,0
    4462:	4481                	li	s1,0
    4464:	bf1d                	j	439a <__adddf3+0x31a>
    4466:	f80898e3          	bnez	a7,43f6 <__adddf3+0x376>
    446a:	050e                	slli	a0,a0,0x3
    446c:	01d71793          	slli	a5,a4,0x1d
    4470:	810d                	srli	a0,a0,0x3
    4472:	00a7e8b3          	or	a7,a5,a0
    4476:	00375793          	srli	a5,a4,0x3
    447a:	bf9d                	j	43f0 <__adddf3+0x370>
    447c:	050e                	slli	a0,a0,0x3
    447e:	01d71793          	slli	a5,a4,0x1d
    4482:	810d                	srli	a0,a0,0x3
    4484:	00a7e8b3          	or	a7,a5,a0
    4488:	84f2                	mv	s1,t3
    448a:	00375793          	srli	a5,a4,0x3
    448e:	b711                	j	4392 <__adddf3+0x312>
    4490:	40930533          	sub	a0,t1,s1
    4494:	12048263          	beqz	s1,45b8 <__adddf3+0x538>
    4498:	008006b7          	lui	a3,0x800
    449c:	7ff00793          	li	a5,2047
    44a0:	8f55                	or	a4,a4,a3
    44a2:	2ef30d63          	beq	t1,a5,479c <__adddf3+0x71c>
    44a6:	03800793          	li	a5,56
    44aa:	20a7cb63          	blt	a5,a0,46c0 <__adddf3+0x640>
    44ae:	47fd                	li	a5,31
    44b0:	2aa7c363          	blt	a5,a0,4756 <__adddf3+0x6d6>
    44b4:	02000793          	li	a5,32
    44b8:	8f89                	sub	a5,a5,a0
    44ba:	00f71933          	sll	s2,a4,a5
    44be:	00af56b3          	srl	a3,t5,a0
    44c2:	00ff17b3          	sll	a5,t5,a5
    44c6:	00d96933          	or	s2,s2,a3
    44ca:	00f037b3          	snez	a5,a5
    44ce:	00a75733          	srl	a4,a4,a0
    44d2:	00f96933          	or	s2,s2,a5
    44d6:	983a                	add	a6,a6,a4
    44d8:	997e                	add	s2,s2,t6
    44da:	01f937b3          	sltu	a5,s2,t6
    44de:	01078633          	add	a2,a5,a6
    44e2:	849a                	mv	s1,t1
    44e4:	bdd1                	j	43b8 <__adddf3+0x338>
    44e6:	008006b7          	lui	a3,0x800
    44ea:	7ff00793          	li	a5,2047
    44ee:	8f55                	or	a4,a4,a3
    44f0:	def319e3          	bne	t1,a5,42e2 <__adddf3+0x262>
    44f4:	00361793          	slli	a5,a2,0x3
    44f8:	838d                	srli	a5,a5,0x3
    44fa:	01d81893          	slli	a7,a6,0x1d
    44fe:	0117e8b3          	or	a7,a5,a7
    4502:	89f6                	mv	s3,t4
    4504:	00385793          	srli	a5,a6,0x3
    4508:	b5e5                	j	43f0 <__adddf3+0x370>
    450a:	fe150713          	addi	a4,a0,-31
    450e:	02000693          	li	a3,32
    4512:	00e7d733          	srl	a4,a5,a4
    4516:	00d60a63          	beq	a2,a3,452a <__adddf3+0x4aa>
    451a:	04000693          	li	a3,64
    451e:	40c68633          	sub	a2,a3,a2
    4522:	00c79633          	sll	a2,a5,a2
    4526:	00c96933          	or	s2,s2,a2
    452a:	01203933          	snez	s2,s2
    452e:	00e96933          	or	s2,s2,a4
    4532:	4601                	li	a2,0
    4534:	4481                	li	s1,0
    4536:	b591                	j	437a <__adddf3+0x2fa>
    4538:	01ff0933          	add	s2,t5,t6
    453c:	010707b3          	add	a5,a4,a6
    4540:	01e93633          	sltu	a2,s2,t5
    4544:	963e                	add	a2,a2,a5
    4546:	00861793          	slli	a5,a2,0x8
    454a:	4485                	li	s1,1
    454c:	e207d7e3          	bgez	a5,437a <__adddf3+0x2fa>
    4550:	4489                	li	s1,2
    4552:	ff8007b7          	lui	a5,0xff800
    4556:	17fd                	addi	a5,a5,-1
    4558:	8ff1                	and	a5,a5,a2
    455a:	00195713          	srli	a4,s2,0x1
    455e:	00197913          	andi	s2,s2,1
    4562:	01276933          	or	s2,a4,s2
    4566:	01f79893          	slli	a7,a5,0x1f
    456a:	0128e933          	or	s2,a7,s2
    456e:	0017d613          	srli	a2,a5,0x1
    4572:	b115                	j	4196 <__adddf3+0x116>
    4574:	fe0e0913          	addi	s2,t3,-32
    4578:	02000793          	li	a5,32
    457c:	012856b3          	srl	a3,a6,s2
    4580:	00fe0a63          	beq	t3,a5,4594 <__adddf3+0x514>
    4584:	04000913          	li	s2,64
    4588:	41c90933          	sub	s2,s2,t3
    458c:	01281933          	sll	s2,a6,s2
    4590:	012fefb3          	or	t6,t6,s2
    4594:	01f03933          	snez	s2,t6
    4598:	00d96933          	or	s2,s2,a3
    459c:	b659                	j	4122 <__adddf3+0xa2>
    459e:	01e76933          	or	s2,a4,t5
    45a2:	01203933          	snez	s2,s2
    45a6:	412f8933          	sub	s2,t6,s2
    45aa:	012fb7b3          	sltu	a5,t6,s2
    45ae:	40f80633          	sub	a2,a6,a5
    45b2:	849a                	mv	s1,t1
    45b4:	89f6                	mv	s3,t4
    45b6:	bea5                	j	412e <__adddf3+0xae>
    45b8:	01e767b3          	or	a5,a4,t5
    45bc:	18078263          	beqz	a5,4740 <__adddf3+0x6c0>
    45c0:	fff50793          	addi	a5,a0,-1
    45c4:	1c078463          	beqz	a5,478c <__adddf3+0x70c>
    45c8:	7ff00693          	li	a3,2047
    45cc:	12d50463          	beq	a0,a3,46f4 <__adddf3+0x674>
    45d0:	853e                	mv	a0,a5
    45d2:	bdd1                	j	44a6 <__adddf3+0x426>
    45d4:	02000793          	li	a5,32
    45d8:	41c787b3          	sub	a5,a5,t3
    45dc:	00f816b3          	sll	a3,a6,a5
    45e0:	00ff9933          	sll	s2,t6,a5
    45e4:	01cfd633          	srl	a2,t6,t3
    45e8:	8ed1                	or	a3,a3,a2
    45ea:	01203933          	snez	s2,s2
    45ee:	01c857b3          	srl	a5,a6,t3
    45f2:	0126e933          	or	s2,a3,s2
    45f6:	973e                	add	a4,a4,a5
    45f8:	bb5d                	j	43ae <__adddf3+0x32e>
    45fa:	00361793          	slli	a5,a2,0x3
    45fe:	838d                	srli	a5,a5,0x3
    4600:	01d81893          	slli	a7,a6,0x1d
    4604:	0117e8b3          	or	a7,a5,a7
    4608:	84ae                	mv	s1,a1
    460a:	00385793          	srli	a5,a6,0x3
    460e:	89f6                	mv	s3,t4
    4610:	b349                	j	4392 <__adddf3+0x312>
    4612:	c3ed                	beqz	a5,46f4 <__adddf3+0x674>
    4614:	01f86933          	or	s2,a6,t6
    4618:	dc091fe3          	bnez	s2,43f6 <__adddf3+0x376>
    461c:	050e                	slli	a0,a0,0x3
    461e:	01d71793          	slli	a5,a4,0x1d
    4622:	810d                	srli	a0,a0,0x3
    4624:	00f568b3          	or	a7,a0,a5
    4628:	00375793          	srli	a5,a4,0x3
    462c:	b3d1                	j	43f0 <__adddf3+0x370>
    462e:	0e088163          	beqz	a7,4710 <__adddf3+0x690>
    4632:	00361693          	slli	a3,a2,0x3
    4636:	01d81793          	slli	a5,a6,0x1d
    463a:	828d                	srli	a3,a3,0x3
    463c:	00d7e8b3          	or	a7,a5,a3
    4640:	89f6                	mv	s3,t4
    4642:	00385793          	srli	a5,a6,0x3
    4646:	bb91                	j	439a <__adddf3+0x31a>
    4648:	41ff0933          	sub	s2,t5,t6
    464c:	410707b3          	sub	a5,a4,a6
    4650:	012f3f33          	sltu	t5,t5,s2
    4654:	41e78633          	sub	a2,a5,t5
    4658:	4485                	li	s1,1
    465a:	bcd1                	j	412e <__adddf3+0xae>
    465c:	050e                	slli	a0,a0,0x3
    465e:	01d71793          	slli	a5,a4,0x1d
    4662:	810d                	srli	a0,a0,0x3
    4664:	00f568b3          	or	a7,a0,a5
    4668:	84f2                	mv	s1,t3
    466a:	00375793          	srli	a5,a4,0x3
    466e:	b315                	j	4392 <__adddf3+0x312>
    4670:	050e                	slli	a0,a0,0x3
    4672:	01d71793          	slli	a5,a4,0x1d
    4676:	810d                	srli	a0,a0,0x3
    4678:	00a7e8b3          	or	a7,a5,a0
    467c:	00375793          	srli	a5,a4,0x3
    4680:	bb29                	j	439a <__adddf3+0x31a>
    4682:	7ff00793          	li	a5,2047
    4686:	d4f682e3          	beq	a3,a5,43ca <__adddf3+0x34a>
    468a:	01ff0933          	add	s2,t5,t6
    468e:	01e93633          	sltu	a2,s2,t5
    4692:	010707b3          	add	a5,a4,a6
    4696:	97b2                	add	a5,a5,a2
    4698:	01f79893          	slli	a7,a5,0x1f
    469c:	00195913          	srli	s2,s2,0x1
    46a0:	0128e933          	or	s2,a7,s2
    46a4:	0017d613          	srli	a2,a5,0x1
    46a8:	84b6                	mv	s1,a3
    46aa:	b9c1                	j	437a <__adddf3+0x2fa>
    46ac:	41ef8933          	sub	s2,t6,t5
    46b0:	40e80733          	sub	a4,a6,a4
    46b4:	012fb633          	sltu	a2,t6,s2
    46b8:	40c70433          	sub	s0,a4,a2
    46bc:	89f6                	mv	s3,t4
    46be:	b449                	j	4140 <__adddf3+0xc0>
    46c0:	01e76933          	or	s2,a4,t5
    46c4:	01203933          	snez	s2,s2
    46c8:	bd01                	j	44d8 <__adddf3+0x458>
    46ca:	fe058793          	addi	a5,a1,-32
    46ce:	02000693          	li	a3,32
    46d2:	00f757b3          	srl	a5,a4,a5
    46d6:	00d58a63          	beq	a1,a3,46ea <__adddf3+0x66a>
    46da:	04000693          	li	a3,64
    46de:	40b685b3          	sub	a1,a3,a1
    46e2:	00b71733          	sll	a4,a4,a1
    46e6:	00ef6f33          	or	t5,t5,a4
    46ea:	01e03933          	snez	s2,t5
    46ee:	00f96933          	or	s2,s2,a5
    46f2:	bd55                	j	45a6 <__adddf3+0x526>
    46f4:	00361793          	slli	a5,a2,0x3
    46f8:	838d                	srli	a5,a5,0x3
    46fa:	01d81893          	slli	a7,a6,0x1d
    46fe:	0117e8b3          	or	a7,a5,a7
    4702:	00385793          	srli	a5,a6,0x3
    4706:	b1ed                	j	43f0 <__adddf3+0x370>
    4708:	00c968b3          	or	a7,s2,a2
    470c:	c60897e3          	bnez	a7,437a <__adddf3+0x2fa>
    4710:	4781                	li	a5,0
    4712:	4981                	li	s3,0
    4714:	b159                	j	439a <__adddf3+0x31a>
    4716:	41ef8933          	sub	s2,t6,t5
    471a:	40e807b3          	sub	a5,a6,a4
    471e:	012fb633          	sltu	a2,t6,s2
    4722:	40c78633          	sub	a2,a5,a2
    4726:	89f6                	mv	s3,t4
    4728:	4485                	li	s1,1
    472a:	b411                	j	412e <__adddf3+0xae>
    472c:	00361693          	slli	a3,a2,0x3
    4730:	01d81793          	slli	a5,a6,0x1d
    4734:	828d                	srli	a3,a3,0x3
    4736:	00d7e8b3          	or	a7,a5,a3
    473a:	00385793          	srli	a5,a6,0x3
    473e:	b9b1                	j	439a <__adddf3+0x31a>
    4740:	00361693          	slli	a3,a2,0x3
    4744:	01d81793          	slli	a5,a6,0x1d
    4748:	828d                	srli	a3,a3,0x3
    474a:	00d7e8b3          	or	a7,a5,a3
    474e:	84aa                	mv	s1,a0
    4750:	00385793          	srli	a5,a6,0x3
    4754:	b93d                	j	4392 <__adddf3+0x312>
    4756:	fe050793          	addi	a5,a0,-32
    475a:	02000693          	li	a3,32
    475e:	00f757b3          	srl	a5,a4,a5
    4762:	00d50a63          	beq	a0,a3,4776 <__adddf3+0x6f6>
    4766:	04000693          	li	a3,64
    476a:	40a68533          	sub	a0,a3,a0
    476e:	00a71733          	sll	a4,a4,a0
    4772:	00ef6f33          	or	t5,t5,a4
    4776:	01e03933          	snez	s2,t5
    477a:	00f96933          	or	s2,s2,a5
    477e:	bba9                	j	44d8 <__adddf3+0x458>
    4780:	4581                	li	a1,0
    4782:	7ff00513          	li	a0,2047
    4786:	000807b7          	lui	a5,0x80
    478a:	bca9                	j	41e4 <__adddf3+0x164>
    478c:	01ff0933          	add	s2,t5,t6
    4790:	010707b3          	add	a5,a4,a6
    4794:	01f93633          	sltu	a2,s2,t6
    4798:	963e                	add	a2,a2,a5
    479a:	b375                	j	4546 <__adddf3+0x4c6>
    479c:	00361693          	slli	a3,a2,0x3
    47a0:	01d81793          	slli	a5,a6,0x1d
    47a4:	828d                	srli	a3,a3,0x3
    47a6:	00d7e8b3          	or	a7,a5,a3
    47aa:	00385793          	srli	a5,a6,0x3
    47ae:	b189                	j	43f0 <__adddf3+0x370>

000047b0 <__divdf3>:
    47b0:	7139                	addi	sp,sp,-64
    47b2:	0145d793          	srli	a5,a1,0x14
    47b6:	dc22                	sw	s0,56(sp)
    47b8:	d84a                	sw	s2,48(sp)
    47ba:	d256                	sw	s5,36(sp)
    47bc:	892a                	mv	s2,a0
    47be:	00c59413          	slli	s0,a1,0xc
    47c2:	de06                	sw	ra,60(sp)
    47c4:	da26                	sw	s1,52(sp)
    47c6:	d64e                	sw	s3,44(sp)
    47c8:	d452                	sw	s4,40(sp)
    47ca:	d05a                	sw	s6,32(sp)
    47cc:	ce5e                	sw	s7,28(sp)
    47ce:	7ff7f513          	andi	a0,a5,2047
    47d2:	8031                	srli	s0,s0,0xc
    47d4:	01f5da93          	srli	s5,a1,0x1f
    47d8:	10050b63          	beqz	a0,48ee <__divdf3+0x13e>
    47dc:	7ff00793          	li	a5,2047
    47e0:	14f50b63          	beq	a0,a5,4936 <__divdf3+0x186>
    47e4:	01d95a13          	srli	s4,s2,0x1d
    47e8:	040e                	slli	s0,s0,0x3
    47ea:	008a6433          	or	s0,s4,s0
    47ee:	00800a37          	lui	s4,0x800
    47f2:	01446a33          	or	s4,s0,s4
    47f6:	00391b13          	slli	s6,s2,0x3
    47fa:	c0150493          	addi	s1,a0,-1023
    47fe:	4401                	li	s0,0
    4800:	4b81                	li	s7,0
    4802:	0146d813          	srli	a6,a3,0x14
    4806:	00c69913          	slli	s2,a3,0xc
    480a:	7ff87813          	andi	a6,a6,2047
    480e:	88b2                	mv	a7,a2
    4810:	00c95913          	srli	s2,s2,0xc
    4814:	01f6d993          	srli	s3,a3,0x1f
    4818:	08080e63          	beqz	a6,48b4 <__divdf3+0x104>
    481c:	7ff00793          	li	a5,2047
    4820:	04f80063          	beq	a6,a5,4860 <__divdf3+0xb0>
    4824:	01d65713          	srli	a4,a2,0x1d
    4828:	090e                	slli	s2,s2,0x3
    482a:	01276933          	or	s2,a4,s2
    482e:	c0180813          	addi	a6,a6,-1023 # ffc01 <_data_lma+0xf8995>
    4832:	008007b7          	lui	a5,0x800
    4836:	00f96733          	or	a4,s2,a5
    483a:	00361893          	slli	a7,a2,0x3
    483e:	410484b3          	sub	s1,s1,a6
    4842:	4581                	li	a1,0
    4844:	47bd                	li	a5,15
    4846:	013ac833          	xor	a6,s5,s3
    484a:	1a87e463          	bltu	a5,s0,49f2 <__divdf3+0x242>
    484e:	00002797          	auipc	a5,0x2
    4852:	70a78793          	addi	a5,a5,1802 # 6f58 <MySerNumInfo+0x20>
    4856:	040a                	slli	s0,s0,0x2
    4858:	943e                	add	s0,s0,a5
    485a:	4010                	lw	a2,0(s0)
    485c:	963e                	add	a2,a2,a5
    485e:	8602                	jr	a2
    4860:	00c96733          	or	a4,s2,a2
    4864:	80148493          	addi	s1,s1,-2047
    4868:	10071263          	bnez	a4,496c <__divdf3+0x1bc>
    486c:	00246413          	ori	s0,s0,2
    4870:	4881                	li	a7,0
    4872:	4589                	li	a1,2
    4874:	bfc1                	j	4844 <__divdf3+0x94>
    4876:	7ff00613          	li	a2,2047
    487a:	4781                	li	a5,0
    487c:	4701                	li	a4,0
    487e:	07b2                	slli	a5,a5,0xc
    4880:	50f2                	lw	ra,60(sp)
    4882:	5462                	lw	s0,56(sp)
    4884:	0652                	slli	a2,a2,0x14
    4886:	83b1                	srli	a5,a5,0xc
    4888:	087e                	slli	a6,a6,0x1f
    488a:	8fd1                	or	a5,a5,a2
    488c:	0107e7b3          	or	a5,a5,a6
    4890:	54d2                	lw	s1,52(sp)
    4892:	5942                	lw	s2,48(sp)
    4894:	59b2                	lw	s3,44(sp)
    4896:	5a22                	lw	s4,40(sp)
    4898:	5a92                	lw	s5,36(sp)
    489a:	5b02                	lw	s6,32(sp)
    489c:	4bf2                	lw	s7,28(sp)
    489e:	853a                	mv	a0,a4
    48a0:	85be                	mv	a1,a5
    48a2:	6121                	addi	sp,sp,64
    48a4:	8082                	ret
    48a6:	4801                	li	a6,0
    48a8:	7ff00613          	li	a2,2047
    48ac:	000807b7          	lui	a5,0x80
    48b0:	4701                	li	a4,0
    48b2:	b7f1                	j	487e <__divdf3+0xce>
    48b4:	00c96733          	or	a4,s2,a2
    48b8:	c74d                	beqz	a4,4962 <__divdf3+0x1b2>
    48ba:	30090863          	beqz	s2,4bca <__divdf3+0x41a>
    48be:	854a                	mv	a0,s2
    48c0:	c432                	sw	a2,8(sp)
    48c2:	1c9010ef          	jal	ra,628a <__clzsi2>
    48c6:	4622                	lw	a2,8(sp)
    48c8:	ff550713          	addi	a4,a0,-11
    48cc:	47f5                	li	a5,29
    48ce:	ff850693          	addi	a3,a0,-8
    48d2:	8f99                	sub	a5,a5,a4
    48d4:	00d91933          	sll	s2,s2,a3
    48d8:	00f657b3          	srl	a5,a2,a5
    48dc:	0127e733          	or	a4,a5,s2
    48e0:	00d618b3          	sll	a7,a2,a3
    48e4:	9526                	add	a0,a0,s1
    48e6:	3f350493          	addi	s1,a0,1011
    48ea:	4581                	li	a1,0
    48ec:	bfa1                	j	4844 <__divdf3+0x94>
    48ee:	01246a33          	or	s4,s0,s2
    48f2:	060a0363          	beqz	s4,4958 <__divdf3+0x1a8>
    48f6:	c636                	sw	a3,12(sp)
    48f8:	c432                	sw	a2,8(sp)
    48fa:	2a040663          	beqz	s0,4ba6 <__divdf3+0x3f6>
    48fe:	8522                	mv	a0,s0
    4900:	18b010ef          	jal	ra,628a <__clzsi2>
    4904:	4622                	lw	a2,8(sp)
    4906:	46b2                	lw	a3,12(sp)
    4908:	84aa                	mv	s1,a0
    490a:	ff550713          	addi	a4,a0,-11
    490e:	4a75                	li	s4,29
    4910:	ff848b13          	addi	s6,s1,-8
    4914:	40ea0a33          	sub	s4,s4,a4
    4918:	01641433          	sll	s0,s0,s6
    491c:	01495a33          	srl	s4,s2,s4
    4920:	008a6a33          	or	s4,s4,s0
    4924:	01691b33          	sll	s6,s2,s6
    4928:	c0d00513          	li	a0,-1011
    492c:	409504b3          	sub	s1,a0,s1
    4930:	4401                	li	s0,0
    4932:	4b81                	li	s7,0
    4934:	b5f9                	j	4802 <__divdf3+0x52>
    4936:	01246a33          	or	s4,s0,s2
    493a:	000a1863          	bnez	s4,494a <__divdf3+0x19a>
    493e:	4421                	li	s0,8
    4940:	4b01                	li	s6,0
    4942:	7ff00493          	li	s1,2047
    4946:	4b89                	li	s7,2
    4948:	bd6d                	j	4802 <__divdf3+0x52>
    494a:	8a22                	mv	s4,s0
    494c:	8b4a                	mv	s6,s2
    494e:	4431                	li	s0,12
    4950:	7ff00493          	li	s1,2047
    4954:	4b8d                	li	s7,3
    4956:	b575                	j	4802 <__divdf3+0x52>
    4958:	4411                	li	s0,4
    495a:	4b01                	li	s6,0
    495c:	4481                	li	s1,0
    495e:	4b85                	li	s7,1
    4960:	b54d                	j	4802 <__divdf3+0x52>
    4962:	00146413          	ori	s0,s0,1
    4966:	4881                	li	a7,0
    4968:	4585                	li	a1,1
    496a:	bde9                	j	4844 <__divdf3+0x94>
    496c:	00346413          	ori	s0,s0,3
    4970:	874a                	mv	a4,s2
    4972:	458d                	li	a1,3
    4974:	bdc1                	j	4844 <__divdf3+0x94>
    4976:	2e050a63          	beqz	a0,4c6a <__divdf3+0x4ba>
    497a:	4785                	li	a5,1
    497c:	8f89                	sub	a5,a5,a0
    497e:	03800693          	li	a3,56
    4982:	32f6dd63          	bge	a3,a5,4cbc <__divdf3+0x50c>
    4986:	4601                	li	a2,0
    4988:	4781                	li	a5,0
    498a:	4701                	li	a4,0
    498c:	bdcd                	j	487e <__divdf3+0xce>
    498e:	86ce                	mv	a3,s3
    4990:	4789                	li	a5,2
    4992:	3af58d63          	beq	a1,a5,4d4c <__divdf3+0x59c>
    4996:	478d                	li	a5,3
    4998:	f0f587e3          	beq	a1,a5,48a6 <__divdf3+0xf6>
    499c:	4785                	li	a5,1
    499e:	8836                	mv	a6,a3
    49a0:	fef583e3          	beq	a1,a5,4986 <__divdf3+0x1d6>
    49a4:	3ff48513          	addi	a0,s1,1023
    49a8:	fca057e3          	blez	a0,4976 <__divdf3+0x1c6>
    49ac:	0078f793          	andi	a5,a7,7
    49b0:	28079663          	bnez	a5,4c3c <__divdf3+0x48c>
    49b4:	0038d693          	srli	a3,a7,0x3
    49b8:	00771793          	slli	a5,a4,0x7
    49bc:	0007d863          	bgez	a5,49cc <__divdf3+0x21c>
    49c0:	ff0007b7          	lui	a5,0xff000
    49c4:	17fd                	addi	a5,a5,-1
    49c6:	8f7d                	and	a4,a4,a5
    49c8:	40048513          	addi	a0,s1,1024
    49cc:	7fe00793          	li	a5,2046
    49d0:	eaa7c3e3          	blt	a5,a0,4876 <__divdf3+0xc6>
    49d4:	01d71613          	slli	a2,a4,0x1d
    49d8:	00971793          	slli	a5,a4,0x9
    49dc:	83b1                	srli	a5,a5,0xc
    49de:	00d66733          	or	a4,a2,a3
    49e2:	7ff57613          	andi	a2,a0,2047
    49e6:	bd61                	j	487e <__divdf3+0xce>
    49e8:	86d6                	mv	a3,s5
    49ea:	8752                	mv	a4,s4
    49ec:	88da                	mv	a7,s6
    49ee:	85de                	mv	a1,s7
    49f0:	b745                	j	4990 <__divdf3+0x1e0>
    49f2:	23476163          	bltu	a4,s4,4c14 <__divdf3+0x464>
    49f6:	20ea0d63          	beq	s4,a4,4c10 <__divdf3+0x460>
    49fa:	86da                	mv	a3,s6
    49fc:	14fd                	addi	s1,s1,-1
    49fe:	8452                	mv	s0,s4
    4a00:	4b01                	li	s6,0
    4a02:	00871793          	slli	a5,a4,0x8
    4a06:	0188d313          	srli	t1,a7,0x18
    4a0a:	00f36333          	or	t1,t1,a5
    4a0e:	01035e93          	srli	t4,t1,0x10
    4a12:	03d457b3          	divu	a5,s0,t4
    4a16:	01031f13          	slli	t5,t1,0x10
    4a1a:	010f5f13          	srli	t5,t5,0x10
    4a1e:	0106d593          	srli	a1,a3,0x10
    4a22:	00889e13          	slli	t3,a7,0x8
    4a26:	03d47433          	remu	s0,s0,t4
    4a2a:	02ff0733          	mul	a4,t5,a5
    4a2e:	0442                	slli	s0,s0,0x10
    4a30:	8dc1                	or	a1,a1,s0
    4a32:	00e5fb63          	bgeu	a1,a4,4a48 <__divdf3+0x298>
    4a36:	959a                	add	a1,a1,t1
    4a38:	fff78613          	addi	a2,a5,-1 # feffffff <_eusrstack+0xdeff7fff>
    4a3c:	2665ee63          	bltu	a1,t1,4cb8 <__divdf3+0x508>
    4a40:	26e5fc63          	bgeu	a1,a4,4cb8 <__divdf3+0x508>
    4a44:	17f9                	addi	a5,a5,-2
    4a46:	959a                	add	a1,a1,t1
    4a48:	8d99                	sub	a1,a1,a4
    4a4a:	03d5d733          	divu	a4,a1,t4
    4a4e:	06c2                	slli	a3,a3,0x10
    4a50:	82c1                	srli	a3,a3,0x10
    4a52:	03d5f5b3          	remu	a1,a1,t4
    4a56:	02ef0633          	mul	a2,t5,a4
    4a5a:	05c2                	slli	a1,a1,0x10
    4a5c:	8dd5                	or	a1,a1,a3
    4a5e:	00c5fb63          	bgeu	a1,a2,4a74 <__divdf3+0x2c4>
    4a62:	959a                	add	a1,a1,t1
    4a64:	fff70693          	addi	a3,a4,-1 # 7fffff <_data_lma+0x7f8d93>
    4a68:	2465e663          	bltu	a1,t1,4cb4 <__divdf3+0x504>
    4a6c:	24c5f463          	bgeu	a1,a2,4cb4 <__divdf3+0x504>
    4a70:	1779                	addi	a4,a4,-2
    4a72:	959a                	add	a1,a1,t1
    4a74:	07c2                	slli	a5,a5,0x10
    4a76:	6441                	lui	s0,0x10
    4a78:	8f5d                	or	a4,a4,a5
    4a7a:	fff40793          	addi	a5,s0,-1 # ffff <_data_lma+0x8d93>
    4a7e:	00f77533          	and	a0,a4,a5
    4a82:	01075893          	srli	a7,a4,0x10
    4a86:	010e5f93          	srli	t6,t3,0x10
    4a8a:	00fe77b3          	and	a5,t3,a5
    4a8e:	02f502b3          	mul	t0,a0,a5
    4a92:	40c586b3          	sub	a3,a1,a2
    4a96:	02f883b3          	mul	t2,a7,a5
    4a9a:	0102d593          	srli	a1,t0,0x10
    4a9e:	02af8633          	mul	a2,t6,a0
    4aa2:	961e                	add	a2,a2,t2
    4aa4:	962e                	add	a2,a2,a1
    4aa6:	03f88533          	mul	a0,a7,t6
    4aaa:	00767363          	bgeu	a2,t2,4ab0 <__divdf3+0x300>
    4aae:	9522                	add	a0,a0,s0
    4ab0:	68c1                	lui	a7,0x10
    4ab2:	18fd                	addi	a7,a7,-1
    4ab4:	01065593          	srli	a1,a2,0x10
    4ab8:	01167633          	and	a2,a2,a7
    4abc:	0642                	slli	a2,a2,0x10
    4abe:	0112f8b3          	and	a7,t0,a7
    4ac2:	95aa                	add	a1,a1,a0
    4ac4:	9646                	add	a2,a2,a7
    4ac6:	12b6e663          	bltu	a3,a1,4bf2 <__divdf3+0x442>
    4aca:	12b68263          	beq	a3,a1,4bee <__divdf3+0x43e>
    4ace:	40cb0633          	sub	a2,s6,a2
    4ad2:	8e8d                	sub	a3,a3,a1
    4ad4:	00cb3b33          	sltu	s6,s6,a2
    4ad8:	41668b33          	sub	s6,a3,s6
    4adc:	3ff48513          	addi	a0,s1,1023
    4ae0:	17630c63          	beq	t1,s6,4c58 <__divdf3+0x4a8>
    4ae4:	03db58b3          	divu	a7,s6,t4
    4ae8:	01065593          	srli	a1,a2,0x10
    4aec:	03db7b33          	remu	s6,s6,t4
    4af0:	031f06b3          	mul	a3,t5,a7
    4af4:	0b42                	slli	s6,s6,0x10
    4af6:	0165eb33          	or	s6,a1,s6
    4afa:	00db7b63          	bgeu	s6,a3,4b10 <__divdf3+0x360>
    4afe:	9b1a                	add	s6,s6,t1
    4b00:	fff88593          	addi	a1,a7,-1 # ffff <_data_lma+0x8d93>
    4b04:	206b6d63          	bltu	s6,t1,4d1e <__divdf3+0x56e>
    4b08:	20db7b63          	bgeu	s6,a3,4d1e <__divdf3+0x56e>
    4b0c:	18f9                	addi	a7,a7,-2
    4b0e:	9b1a                	add	s6,s6,t1
    4b10:	40db0b33          	sub	s6,s6,a3
    4b14:	03db56b3          	divu	a3,s6,t4
    4b18:	0642                	slli	a2,a2,0x10
    4b1a:	8241                	srli	a2,a2,0x10
    4b1c:	03db7b33          	remu	s6,s6,t4
    4b20:	02df0f33          	mul	t5,t5,a3
    4b24:	0b42                	slli	s6,s6,0x10
    4b26:	01666633          	or	a2,a2,s6
    4b2a:	01e67b63          	bgeu	a2,t5,4b40 <__divdf3+0x390>
    4b2e:	961a                	add	a2,a2,t1
    4b30:	fff68593          	addi	a1,a3,-1 # 7fffff <_data_lma+0x7f8d93>
    4b34:	1e666763          	bltu	a2,t1,4d22 <__divdf3+0x572>
    4b38:	1fe67563          	bgeu	a2,t5,4d22 <__divdf3+0x572>
    4b3c:	16f9                	addi	a3,a3,-2
    4b3e:	961a                	add	a2,a2,t1
    4b40:	08c2                	slli	a7,a7,0x10
    4b42:	00d8e8b3          	or	a7,a7,a3
    4b46:	01089593          	slli	a1,a7,0x10
    4b4a:	0108d293          	srli	t0,a7,0x10
    4b4e:	81c1                	srli	a1,a1,0x10
    4b50:	02f58eb3          	mul	t4,a1,a5
    4b54:	41e60633          	sub	a2,a2,t5
    4b58:	02bf85b3          	mul	a1,t6,a1
    4b5c:	010ed693          	srli	a3,t4,0x10
    4b60:	02f287b3          	mul	a5,t0,a5
    4b64:	95be                	add	a1,a1,a5
    4b66:	96ae                	add	a3,a3,a1
    4b68:	025f8fb3          	mul	t6,t6,t0
    4b6c:	00f6f463          	bgeu	a3,a5,4b74 <__divdf3+0x3c4>
    4b70:	67c1                	lui	a5,0x10
    4b72:	9fbe                	add	t6,t6,a5
    4b74:	65c1                	lui	a1,0x10
    4b76:	15fd                	addi	a1,a1,-1
    4b78:	0106d793          	srli	a5,a3,0x10
    4b7c:	8eed                	and	a3,a3,a1
    4b7e:	06c2                	slli	a3,a3,0x10
    4b80:	00befeb3          	and	t4,t4,a1
    4b84:	9fbe                	add	t6,t6,a5
    4b86:	96f6                	add	a3,a3,t4
    4b88:	09f67f63          	bgeu	a2,t6,4c26 <__divdf3+0x476>
    4b8c:	961a                	add	a2,a2,t1
    4b8e:	fff88793          	addi	a5,a7,-1
    4b92:	1a666963          	bltu	a2,t1,4d44 <__divdf3+0x594>
    4b96:	19f66863          	bltu	a2,t6,4d26 <__divdf3+0x576>
    4b9a:	1bf60f63          	beq	a2,t6,4d58 <__divdf3+0x5a8>
    4b9e:	88be                	mv	a7,a5
    4ba0:	0018e893          	ori	a7,a7,1
    4ba4:	b511                	j	49a8 <__divdf3+0x1f8>
    4ba6:	854a                	mv	a0,s2
    4ba8:	6e2010ef          	jal	ra,628a <__clzsi2>
    4bac:	01550713          	addi	a4,a0,21
    4bb0:	45f1                	li	a1,28
    4bb2:	02050493          	addi	s1,a0,32
    4bb6:	4622                	lw	a2,8(sp)
    4bb8:	46b2                	lw	a3,12(sp)
    4bba:	d4e5dae3          	bge	a1,a4,490e <__divdf3+0x15e>
    4bbe:	ff850413          	addi	s0,a0,-8
    4bc2:	00891a33          	sll	s4,s2,s0
    4bc6:	4b01                	li	s6,0
    4bc8:	b385                	j	4928 <__divdf3+0x178>
    4bca:	8532                	mv	a0,a2
    4bcc:	c432                	sw	a2,8(sp)
    4bce:	6bc010ef          	jal	ra,628a <__clzsi2>
    4bd2:	01550713          	addi	a4,a0,21
    4bd6:	46f1                	li	a3,28
    4bd8:	87aa                	mv	a5,a0
    4bda:	4622                	lw	a2,8(sp)
    4bdc:	02050513          	addi	a0,a0,32
    4be0:	cee6d6e3          	bge	a3,a4,48cc <__divdf3+0x11c>
    4be4:	17e1                	addi	a5,a5,-8
    4be6:	00f61733          	sll	a4,a2,a5
    4bea:	4881                	li	a7,0
    4bec:	b9e5                	j	48e4 <__divdf3+0x134>
    4bee:	eecb70e3          	bgeu	s6,a2,4ace <__divdf3+0x31e>
    4bf2:	9b72                	add	s6,s6,t3
    4bf4:	01cb3533          	sltu	a0,s6,t3
    4bf8:	951a                	add	a0,a0,t1
    4bfa:	96aa                	add	a3,a3,a0
    4bfc:	fff70513          	addi	a0,a4,-1
    4c00:	02d37863          	bgeu	t1,a3,4c30 <__divdf3+0x480>
    4c04:	10b6e663          	bltu	a3,a1,4d10 <__divdf3+0x560>
    4c08:	10d58263          	beq	a1,a3,4d0c <__divdf3+0x55c>
    4c0c:	872a                	mv	a4,a0
    4c0e:	b5c1                	j	4ace <__divdf3+0x31e>
    4c10:	df1b65e3          	bltu	s6,a7,49fa <__divdf3+0x24a>
    4c14:	001b5593          	srli	a1,s6,0x1
    4c18:	01fa1693          	slli	a3,s4,0x1f
    4c1c:	001a5413          	srli	s0,s4,0x1
    4c20:	8ecd                	or	a3,a3,a1
    4c22:	0b7e                	slli	s6,s6,0x1f
    4c24:	bbf9                	j	4a02 <__divdf3+0x252>
    4c26:	f7f61de3          	bne	a2,t6,4ba0 <__divdf3+0x3f0>
    4c2a:	d6068fe3          	beqz	a3,49a8 <__divdf3+0x1f8>
    4c2e:	bfb9                	j	4b8c <__divdf3+0x3dc>
    4c30:	fcd31ee3          	bne	t1,a3,4c0c <__divdf3+0x45c>
    4c34:	fdcb78e3          	bgeu	s6,t3,4c04 <__divdf3+0x454>
    4c38:	872a                	mv	a4,a0
    4c3a:	bd51                	j	4ace <__divdf3+0x31e>
    4c3c:	00f8f793          	andi	a5,a7,15
    4c40:	4691                	li	a3,4
    4c42:	d6d789e3          	beq	a5,a3,49b4 <__divdf3+0x204>
    4c46:	ffc8b793          	sltiu	a5,a7,-4
    4c4a:	00488693          	addi	a3,a7,4
    4c4e:	0017c793          	xori	a5,a5,1
    4c52:	828d                	srli	a3,a3,0x3
    4c54:	973e                	add	a4,a4,a5
    4c56:	b38d                	j	49b8 <__divdf3+0x208>
    4c58:	4681                	li	a3,0
    4c5a:	4785                	li	a5,1
    4c5c:	fea04ce3          	bgtz	a0,4c54 <__divdf3+0x4a4>
    4c60:	58fd                	li	a7,-1
    4c62:	d0051ce3          	bnez	a0,497a <__divdf3+0x1ca>
    4c66:	c0100493          	li	s1,-1023
    4c6a:	4785                	li	a5,1
    4c6c:	41e48513          	addi	a0,s1,1054
    4c70:	00a716b3          	sll	a3,a4,a0
    4c74:	00f8d633          	srl	a2,a7,a5
    4c78:	00a89533          	sll	a0,a7,a0
    4c7c:	8ed1                	or	a3,a3,a2
    4c7e:	00a03533          	snez	a0,a0
    4c82:	8ec9                	or	a3,a3,a0
    4c84:	0076f613          	andi	a2,a3,7
    4c88:	00f75733          	srl	a4,a4,a5
    4c8c:	ce01                	beqz	a2,4ca4 <__divdf3+0x4f4>
    4c8e:	00f6f793          	andi	a5,a3,15
    4c92:	4611                	li	a2,4
    4c94:	00c78863          	beq	a5,a2,4ca4 <__divdf3+0x4f4>
    4c98:	00468793          	addi	a5,a3,4
    4c9c:	00d7b6b3          	sltu	a3,a5,a3
    4ca0:	9736                	add	a4,a4,a3
    4ca2:	86be                	mv	a3,a5
    4ca4:	00871793          	slli	a5,a4,0x8
    4ca8:	0407d863          	bgez	a5,4cf8 <__divdf3+0x548>
    4cac:	4605                	li	a2,1
    4cae:	4781                	li	a5,0
    4cb0:	4701                	li	a4,0
    4cb2:	b6f1                	j	487e <__divdf3+0xce>
    4cb4:	8736                	mv	a4,a3
    4cb6:	bb7d                	j	4a74 <__divdf3+0x2c4>
    4cb8:	87b2                	mv	a5,a2
    4cba:	b379                	j	4a48 <__divdf3+0x298>
    4cbc:	46fd                	li	a3,31
    4cbe:	faf6d7e3          	bge	a3,a5,4c6c <__divdf3+0x4bc>
    4cc2:	5605                	li	a2,-31
    4cc4:	8e09                	sub	a2,a2,a0
    4cc6:	02000693          	li	a3,32
    4cca:	00c75633          	srl	a2,a4,a2
    4cce:	00d78863          	beq	a5,a3,4cde <__divdf3+0x52e>
    4cd2:	43e48793          	addi	a5,s1,1086
    4cd6:	00f717b3          	sll	a5,a4,a5
    4cda:	00f8e8b3          	or	a7,a7,a5
    4cde:	011036b3          	snez	a3,a7
    4ce2:	8ed1                	or	a3,a3,a2
    4ce4:	0076f613          	andi	a2,a3,7
    4ce8:	4781                	li	a5,0
    4cea:	ce01                	beqz	a2,4d02 <__divdf3+0x552>
    4cec:	00f6f793          	andi	a5,a3,15
    4cf0:	4611                	li	a2,4
    4cf2:	4701                	li	a4,0
    4cf4:	fac792e3          	bne	a5,a2,4c98 <__divdf3+0x4e8>
    4cf8:	00971793          	slli	a5,a4,0x9
    4cfc:	01d71613          	slli	a2,a4,0x1d
    4d00:	83b1                	srli	a5,a5,0xc
    4d02:	0036d713          	srli	a4,a3,0x3
    4d06:	8f51                	or	a4,a4,a2
    4d08:	4601                	li	a2,0
    4d0a:	be95                	j	487e <__divdf3+0xce>
    4d0c:	f0cb70e3          	bgeu	s6,a2,4c0c <__divdf3+0x45c>
    4d10:	9b72                	add	s6,s6,t3
    4d12:	01cb3533          	sltu	a0,s6,t3
    4d16:	951a                	add	a0,a0,t1
    4d18:	1779                	addi	a4,a4,-2
    4d1a:	96aa                	add	a3,a3,a0
    4d1c:	bb4d                	j	4ace <__divdf3+0x31e>
    4d1e:	88ae                	mv	a7,a1
    4d20:	bbc5                	j	4b10 <__divdf3+0x360>
    4d22:	86ae                	mv	a3,a1
    4d24:	bd31                	j	4b40 <__divdf3+0x390>
    4d26:	001e1793          	slli	a5,t3,0x1
    4d2a:	01c7be33          	sltu	t3,a5,t3
    4d2e:	9372                	add	t1,t1,t3
    4d30:	961a                	add	a2,a2,t1
    4d32:	18f9                	addi	a7,a7,-2
    4d34:	8e3e                	mv	t3,a5
    4d36:	e7f615e3          	bne	a2,t6,4ba0 <__divdf3+0x3f0>
    4d3a:	c6de07e3          	beq	t3,a3,49a8 <__divdf3+0x1f8>
    4d3e:	0018e893          	ori	a7,a7,1
    4d42:	b19d                	j	49a8 <__divdf3+0x1f8>
    4d44:	88be                	mv	a7,a5
    4d46:	fff60ae3          	beq	a2,t6,4d3a <__divdf3+0x58a>
    4d4a:	bd99                	j	4ba0 <__divdf3+0x3f0>
    4d4c:	8836                	mv	a6,a3
    4d4e:	7ff00613          	li	a2,2047
    4d52:	4781                	li	a5,0
    4d54:	4701                	li	a4,0
    4d56:	b625                	j	487e <__divdf3+0xce>
    4d58:	fcde67e3          	bltu	t3,a3,4d26 <__divdf3+0x576>
    4d5c:	88be                	mv	a7,a5
    4d5e:	fede10e3          	bne	t3,a3,4d3e <__divdf3+0x58e>
    4d62:	b199                	j	49a8 <__divdf3+0x1f8>

00004d64 <__ledf2>:
    4d64:	0145d713          	srli	a4,a1,0x14
    4d68:	001007b7          	lui	a5,0x100
    4d6c:	17fd                	addi	a5,a5,-1
    4d6e:	0146d813          	srli	a6,a3,0x14
    4d72:	7ff77713          	andi	a4,a4,2047
    4d76:	7ff00893          	li	a7,2047
    4d7a:	00b7fe33          	and	t3,a5,a1
    4d7e:	8eaa                	mv	t4,a0
    4d80:	8ff5                	and	a5,a5,a3
    4d82:	81fd                	srli	a1,a1,0x1f
    4d84:	8f32                	mv	t5,a2
    4d86:	7ff87813          	andi	a6,a6,2047
    4d8a:	82fd                	srli	a3,a3,0x1f
    4d8c:	03170e63          	beq	a4,a7,4dc8 <__ledf2+0x64>
    4d90:	01180d63          	beq	a6,a7,4daa <__ledf2+0x46>
    4d94:	e329                	bnez	a4,4dd6 <__ledf2+0x72>
    4d96:	00ae68b3          	or	a7,t3,a0
    4d9a:	00081f63          	bnez	a6,4db8 <__ledf2+0x54>
    4d9e:	8e5d                	or	a2,a2,a5
    4da0:	ee01                	bnez	a2,4db8 <__ledf2+0x54>
    4da2:	4301                	li	t1,0
    4da4:	04088c63          	beqz	a7,4dfc <__ledf2+0x98>
    4da8:	a821                	j	4dc0 <__ledf2+0x5c>
    4daa:	00c7e8b3          	or	a7,a5,a2
    4dae:	4309                	li	t1,2
    4db0:	04089663          	bnez	a7,4dfc <__ledf2+0x98>
    4db4:	d36d                	beqz	a4,4d96 <__ledf2+0x32>
    4db6:	a005                	j	4dd6 <__ledf2+0x72>
    4db8:	04088463          	beqz	a7,4e00 <__ledf2+0x9c>
    4dbc:	02d58563          	beq	a1,a3,4de6 <__ledf2+0x82>
    4dc0:	4305                	li	t1,1
    4dc2:	cd8d                	beqz	a1,4dfc <__ledf2+0x98>
    4dc4:	537d                	li	t1,-1
    4dc6:	a81d                	j	4dfc <__ledf2+0x98>
    4dc8:	00ae68b3          	or	a7,t3,a0
    4dcc:	4309                	li	t1,2
    4dce:	02089763          	bnez	a7,4dfc <__ledf2+0x98>
    4dd2:	02e80a63          	beq	a6,a4,4e06 <__ledf2+0xa2>
    4dd6:	00081463          	bnez	a6,4dde <__ledf2+0x7a>
    4dda:	8e5d                	or	a2,a2,a5
    4ddc:	d275                	beqz	a2,4dc0 <__ledf2+0x5c>
    4dde:	fed591e3          	bne	a1,a3,4dc0 <__ledf2+0x5c>
    4de2:	fce84fe3          	blt	a6,a4,4dc0 <__ledf2+0x5c>
    4de6:	01074963          	blt	a4,a6,4df8 <__ledf2+0x94>
    4dea:	fdc7ebe3          	bltu	a5,t3,4dc0 <__ledf2+0x5c>
    4dee:	00fe0f63          	beq	t3,a5,4e0c <__ledf2+0xa8>
    4df2:	4301                	li	t1,0
    4df4:	00fe7463          	bgeu	t3,a5,4dfc <__ledf2+0x98>
    4df8:	d5f1                	beqz	a1,4dc4 <__ledf2+0x60>
    4dfa:	4305                	li	t1,1
    4dfc:	851a                	mv	a0,t1
    4dfe:	8082                	ret
    4e00:	feed                	bnez	a3,4dfa <__ledf2+0x96>
    4e02:	537d                	li	t1,-1
    4e04:	bfe5                	j	4dfc <__ledf2+0x98>
    4e06:	8e5d                	or	a2,a2,a5
    4e08:	da79                	beqz	a2,4dde <__ledf2+0x7a>
    4e0a:	bfcd                	j	4dfc <__ledf2+0x98>
    4e0c:	fbdf6ae3          	bltu	t5,t4,4dc0 <__ledf2+0x5c>
    4e10:	4301                	li	t1,0
    4e12:	ffeef5e3          	bgeu	t4,t5,4dfc <__ledf2+0x98>
    4e16:	f1f5                	bnez	a1,4dfa <__ledf2+0x96>
    4e18:	b775                	j	4dc4 <__ledf2+0x60>

00004e1a <__muldf3>:
    4e1a:	7139                	addi	sp,sp,-64
    4e1c:	d84a                	sw	s2,48(sp)
    4e1e:	0145d913          	srli	s2,a1,0x14
    4e22:	d64e                	sw	s3,44(sp)
    4e24:	d452                	sw	s4,40(sp)
    4e26:	d256                	sw	s5,36(sp)
    4e28:	00c59993          	slli	s3,a1,0xc
    4e2c:	de06                	sw	ra,60(sp)
    4e2e:	dc22                	sw	s0,56(sp)
    4e30:	da26                	sw	s1,52(sp)
    4e32:	d05a                	sw	s6,32(sp)
    4e34:	ce5e                	sw	s7,28(sp)
    4e36:	7ff97913          	andi	s2,s2,2047
    4e3a:	8a2a                	mv	s4,a0
    4e3c:	00c9d993          	srli	s3,s3,0xc
    4e40:	01f5da93          	srli	s5,a1,0x1f
    4e44:	0e090d63          	beqz	s2,4f3e <__muldf3+0x124>
    4e48:	7ff00793          	li	a5,2047
    4e4c:	18f90663          	beq	s2,a5,4fd8 <__muldf3+0x1be>
    4e50:	01d55413          	srli	s0,a0,0x1d
    4e54:	098e                	slli	s3,s3,0x3
    4e56:	013469b3          	or	s3,s0,s3
    4e5a:	00800437          	lui	s0,0x800
    4e5e:	0089e433          	or	s0,s3,s0
    4e62:	00351493          	slli	s1,a0,0x3
    4e66:	c0190913          	addi	s2,s2,-1023
    4e6a:	4981                	li	s3,0
    4e6c:	4b81                	li	s7,0
    4e6e:	0146d713          	srli	a4,a3,0x14
    4e72:	00c69a13          	slli	s4,a3,0xc
    4e76:	7ff77713          	andi	a4,a4,2047
    4e7a:	85b2                	mv	a1,a2
    4e7c:	00ca5a13          	srli	s4,s4,0xc
    4e80:	01f6db13          	srli	s6,a3,0x1f
    4e84:	10070b63          	beqz	a4,4f9a <__muldf3+0x180>
    4e88:	7ff00793          	li	a5,2047
    4e8c:	04f70363          	beq	a4,a5,4ed2 <__muldf3+0xb8>
    4e90:	01d65793          	srli	a5,a2,0x1d
    4e94:	0a0e                	slli	s4,s4,0x3
    4e96:	0147ea33          	or	s4,a5,s4
    4e9a:	c0170713          	addi	a4,a4,-1023
    4e9e:	008007b7          	lui	a5,0x800
    4ea2:	00fa67b3          	or	a5,s4,a5
    4ea6:	00361593          	slli	a1,a2,0x3
    4eaa:	993a                	add	s2,s2,a4
    4eac:	4881                	li	a7,0
    4eae:	016ac733          	xor	a4,s5,s6
    4eb2:	46bd                	li	a3,15
    4eb4:	853a                	mv	a0,a4
    4eb6:	00190813          	addi	a6,s2,1
    4eba:	1736e863          	bltu	a3,s3,502a <__muldf3+0x210>
    4ebe:	00002617          	auipc	a2,0x2
    4ec2:	0da60613          	addi	a2,a2,218 # 6f98 <MySerNumInfo+0x60>
    4ec6:	098a                	slli	s3,s3,0x2
    4ec8:	99b2                	add	s3,s3,a2
    4eca:	0009a683          	lw	a3,0(s3)
    4ece:	96b2                	add	a3,a3,a2
    4ed0:	8682                	jr	a3
    4ed2:	00ca67b3          	or	a5,s4,a2
    4ed6:	7ff90913          	addi	s2,s2,2047
    4eda:	12079963          	bnez	a5,500c <__muldf3+0x1f2>
    4ede:	0029e993          	ori	s3,s3,2
    4ee2:	4581                	li	a1,0
    4ee4:	4889                	li	a7,2
    4ee6:	b7e1                	j	4eae <__muldf3+0x94>
    4ee8:	4701                	li	a4,0
    4eea:	7ff00793          	li	a5,2047
    4eee:	00080437          	lui	s0,0x80
    4ef2:	4481                	li	s1,0
    4ef4:	0432                	slli	s0,s0,0xc
    4ef6:	07d2                	slli	a5,a5,0x14
    4ef8:	8031                	srli	s0,s0,0xc
    4efa:	077e                	slli	a4,a4,0x1f
    4efc:	8c5d                	or	s0,s0,a5
    4efe:	8c59                	or	s0,s0,a4
    4f00:	85a2                	mv	a1,s0
    4f02:	50f2                	lw	ra,60(sp)
    4f04:	5462                	lw	s0,56(sp)
    4f06:	8526                	mv	a0,s1
    4f08:	5942                	lw	s2,48(sp)
    4f0a:	54d2                	lw	s1,52(sp)
    4f0c:	59b2                	lw	s3,44(sp)
    4f0e:	5a22                	lw	s4,40(sp)
    4f10:	5a92                	lw	s5,36(sp)
    4f12:	5b02                	lw	s6,32(sp)
    4f14:	4bf2                	lw	s7,28(sp)
    4f16:	6121                	addi	sp,sp,64
    4f18:	8082                	ret
    4f1a:	855a                	mv	a0,s6
    4f1c:	843e                	mv	s0,a5
    4f1e:	84ae                	mv	s1,a1
    4f20:	8bc6                	mv	s7,a7
    4f22:	4789                	li	a5,2
    4f24:	0efb8d63          	beq	s7,a5,501e <__muldf3+0x204>
    4f28:	478d                	li	a5,3
    4f2a:	fafb8fe3          	beq	s7,a5,4ee8 <__muldf3+0xce>
    4f2e:	4785                	li	a5,1
    4f30:	872a                	mv	a4,a0
    4f32:	38fb9e63          	bne	s7,a5,52ce <__muldf3+0x4b4>
    4f36:	4781                	li	a5,0
    4f38:	4401                	li	s0,0
    4f3a:	4481                	li	s1,0
    4f3c:	bf65                	j	4ef4 <__muldf3+0xda>
    4f3e:	00a9e433          	or	s0,s3,a0
    4f42:	c061                	beqz	s0,5002 <__muldf3+0x1e8>
    4f44:	c636                	sw	a3,12(sp)
    4f46:	c432                	sw	a2,8(sp)
    4f48:	2a098c63          	beqz	s3,5200 <__muldf3+0x3e6>
    4f4c:	854e                	mv	a0,s3
    4f4e:	33c010ef          	jal	ra,628a <__clzsi2>
    4f52:	4622                	lw	a2,8(sp)
    4f54:	46b2                	lw	a3,12(sp)
    4f56:	87aa                	mv	a5,a0
    4f58:	ff550713          	addi	a4,a0,-11
    4f5c:	4475                	li	s0,29
    4f5e:	ff878493          	addi	s1,a5,-8 # 7ffff8 <_data_lma+0x7f8d8c>
    4f62:	8c19                	sub	s0,s0,a4
    4f64:	009999b3          	sll	s3,s3,s1
    4f68:	008a5433          	srl	s0,s4,s0
    4f6c:	01346433          	or	s0,s0,s3
    4f70:	009a14b3          	sll	s1,s4,s1
    4f74:	0146d713          	srli	a4,a3,0x14
    4f78:	c0d00913          	li	s2,-1011
    4f7c:	00c69a13          	slli	s4,a3,0xc
    4f80:	7ff77713          	andi	a4,a4,2047
    4f84:	40f90933          	sub	s2,s2,a5
    4f88:	4981                	li	s3,0
    4f8a:	4b81                	li	s7,0
    4f8c:	85b2                	mv	a1,a2
    4f8e:	00ca5a13          	srli	s4,s4,0xc
    4f92:	01f6db13          	srli	s6,a3,0x1f
    4f96:	ee0719e3          	bnez	a4,4e88 <__muldf3+0x6e>
    4f9a:	00ca67b3          	or	a5,s4,a2
    4f9e:	c7b1                	beqz	a5,4fea <__muldf3+0x1d0>
    4fa0:	220a0f63          	beqz	s4,51de <__muldf3+0x3c4>
    4fa4:	8552                	mv	a0,s4
    4fa6:	c432                	sw	a2,8(sp)
    4fa8:	2e2010ef          	jal	ra,628a <__clzsi2>
    4fac:	4622                	lw	a2,8(sp)
    4fae:	872a                	mv	a4,a0
    4fb0:	ff550693          	addi	a3,a0,-11
    4fb4:	47f5                	li	a5,29
    4fb6:	ff870593          	addi	a1,a4,-8
    4fba:	8f95                	sub	a5,a5,a3
    4fbc:	00ba1a33          	sll	s4,s4,a1
    4fc0:	00f657b3          	srl	a5,a2,a5
    4fc4:	0147e7b3          	or	a5,a5,s4
    4fc8:	00b615b3          	sll	a1,a2,a1
    4fcc:	40e90933          	sub	s2,s2,a4
    4fd0:	c0d90913          	addi	s2,s2,-1011
    4fd4:	4881                	li	a7,0
    4fd6:	bde1                	j	4eae <__muldf3+0x94>
    4fd8:	00a9e433          	or	s0,s3,a0
    4fdc:	ec01                	bnez	s0,4ff4 <__muldf3+0x1da>
    4fde:	49a1                	li	s3,8
    4fe0:	4481                	li	s1,0
    4fe2:	7ff00913          	li	s2,2047
    4fe6:	4b89                	li	s7,2
    4fe8:	b559                	j	4e6e <__muldf3+0x54>
    4fea:	0019e993          	ori	s3,s3,1
    4fee:	4581                	li	a1,0
    4ff0:	4885                	li	a7,1
    4ff2:	bd75                	j	4eae <__muldf3+0x94>
    4ff4:	844e                	mv	s0,s3
    4ff6:	84aa                	mv	s1,a0
    4ff8:	49b1                	li	s3,12
    4ffa:	7ff00913          	li	s2,2047
    4ffe:	4b8d                	li	s7,3
    5000:	b5bd                	j	4e6e <__muldf3+0x54>
    5002:	4991                	li	s3,4
    5004:	4481                	li	s1,0
    5006:	4901                	li	s2,0
    5008:	4b85                	li	s7,1
    500a:	b595                	j	4e6e <__muldf3+0x54>
    500c:	0039e993          	ori	s3,s3,3
    5010:	87d2                	mv	a5,s4
    5012:	488d                	li	a7,3
    5014:	bd69                	j	4eae <__muldf3+0x94>
    5016:	4789                	li	a5,2
    5018:	8556                	mv	a0,s5
    501a:	f0fb97e3          	bne	s7,a5,4f28 <__muldf3+0x10e>
    501e:	872a                	mv	a4,a0
    5020:	7ff00793          	li	a5,2047
    5024:	4401                	li	s0,0
    5026:	4481                	li	s1,0
    5028:	b5f1                	j	4ef4 <__muldf3+0xda>
    502a:	6ec1                	lui	t4,0x10
    502c:	fffe8613          	addi	a2,t4,-1 # ffff <_data_lma+0x8d93>
    5030:	0104d693          	srli	a3,s1,0x10
    5034:	0105de13          	srli	t3,a1,0x10
    5038:	8cf1                	and	s1,s1,a2
    503a:	8df1                	and	a1,a1,a2
    503c:	02958633          	mul	a2,a1,s1
    5040:	02b68333          	mul	t1,a3,a1
    5044:	01065893          	srli	a7,a2,0x10
    5048:	029e0533          	mul	a0,t3,s1
    504c:	951a                	add	a0,a0,t1
    504e:	98aa                	add	a7,a7,a0
    5050:	03c682b3          	mul	t0,a3,t3
    5054:	0068f363          	bgeu	a7,t1,505a <__muldf3+0x240>
    5058:	92f6                	add	t0,t0,t4
    505a:	6fc1                	lui	t6,0x10
    505c:	ffff8313          	addi	t1,t6,-1 # ffff <_data_lma+0x8d93>
    5060:	0067f533          	and	a0,a5,t1
    5064:	0107d393          	srli	t2,a5,0x10
    5068:	0068f7b3          	and	a5,a7,t1
    506c:	07c2                	slli	a5,a5,0x10
    506e:	00667333          	and	t1,a2,t1
    5072:	933e                	add	t1,t1,a5
    5074:	02950633          	mul	a2,a0,s1
    5078:	0108d893          	srli	a7,a7,0x10
    507c:	02a687b3          	mul	a5,a3,a0
    5080:	01065f13          	srli	t5,a2,0x10
    5084:	029384b3          	mul	s1,t2,s1
    5088:	94be                	add	s1,s1,a5
    508a:	94fa                	add	s1,s1,t5
    508c:	02768eb3          	mul	t4,a3,t2
    5090:	00f4f363          	bgeu	s1,a5,5096 <__muldf3+0x27c>
    5094:	9efe                	add	t4,t4,t6
    5096:	6a41                	lui	s4,0x10
    5098:	fffa0793          	addi	a5,s4,-1 # ffff <_data_lma+0x8d93>
    509c:	01045f93          	srli	t6,s0,0x10
    50a0:	00f476b3          	and	a3,s0,a5
    50a4:	00f4f9b3          	and	s3,s1,a5
    50a8:	8e7d                	and	a2,a2,a5
    50aa:	80c1                	srli	s1,s1,0x10
    50ac:	02d58433          	mul	s0,a1,a3
    50b0:	09c2                	slli	s3,s3,0x10
    50b2:	01d48f33          	add	t5,s1,t4
    50b6:	99b2                	add	s3,s3,a2
    50b8:	98ce                	add	a7,a7,s3
    50ba:	02de07b3          	mul	a5,t3,a3
    50be:	01045e93          	srli	t4,s0,0x10
    50c2:	02bf85b3          	mul	a1,t6,a1
    50c6:	97ae                	add	a5,a5,a1
    50c8:	9ebe                	add	t4,t4,a5
    50ca:	03fe0e33          	mul	t3,t3,t6
    50ce:	00bef363          	bgeu	t4,a1,50d4 <__muldf3+0x2ba>
    50d2:	9e52                	add	t3,t3,s4
    50d4:	67c1                	lui	a5,0x10
    50d6:	fff78593          	addi	a1,a5,-1 # ffff <_data_lma+0x8d93>
    50da:	00bef633          	and	a2,t4,a1
    50de:	8c6d                	and	s0,s0,a1
    50e0:	0642                	slli	a2,a2,0x10
    50e2:	9622                	add	a2,a2,s0
    50e4:	010ede93          	srli	t4,t4,0x10
    50e8:	02d505b3          	mul	a1,a0,a3
    50ec:	9e76                	add	t3,t3,t4
    50ee:	02af8533          	mul	a0,t6,a0
    50f2:	0105d413          	srli	s0,a1,0x10
    50f6:	02d386b3          	mul	a3,t2,a3
    50fa:	96aa                	add	a3,a3,a0
    50fc:	96a2                	add	a3,a3,s0
    50fe:	03f38fb3          	mul	t6,t2,t6
    5102:	00a6f363          	bgeu	a3,a0,5108 <__muldf3+0x2ee>
    5106:	9fbe                	add	t6,t6,a5
    5108:	6541                	lui	a0,0x10
    510a:	157d                	addi	a0,a0,-1
    510c:	00a6f7b3          	and	a5,a3,a0
    5110:	07c2                	slli	a5,a5,0x10
    5112:	8d6d                	and	a0,a0,a1
    5114:	97aa                	add	a5,a5,a0
    5116:	005885b3          	add	a1,a7,t0
    511a:	0135b9b3          	sltu	s3,a1,s3
    511e:	97fa                	add	a5,a5,t5
    5120:	95b2                	add	a1,a1,a2
    5122:	01378433          	add	s0,a5,s3
    5126:	00c5b633          	sltu	a2,a1,a2
    512a:	01c40eb3          	add	t4,s0,t3
    512e:	00ce8533          	add	a0,t4,a2
    5132:	01343433          	sltu	s0,s0,s3
    5136:	01e7b7b3          	sltu	a5,a5,t5
    513a:	8fc1                	or	a5,a5,s0
    513c:	01cebe33          	sltu	t3,t4,t3
    5140:	0106d413          	srli	s0,a3,0x10
    5144:	00c53633          	sltu	a2,a0,a2
    5148:	943e                	add	s0,s0,a5
    514a:	00ce6633          	or	a2,t3,a2
    514e:	00959493          	slli	s1,a1,0x9
    5152:	9432                	add	s0,s0,a2
    5154:	947e                	add	s0,s0,t6
    5156:	0064e4b3          	or	s1,s1,t1
    515a:	0426                	slli	s0,s0,0x9
    515c:	01755693          	srli	a3,a0,0x17
    5160:	009034b3          	snez	s1,s1
    5164:	81dd                	srli	a1,a1,0x17
    5166:	00951793          	slli	a5,a0,0x9
    516a:	8ccd                	or	s1,s1,a1
    516c:	8c55                	or	s0,s0,a3
    516e:	8cdd                	or	s1,s1,a5
    5170:	00741793          	slli	a5,s0,0x7
    5174:	0007db63          	bgez	a5,518a <__muldf3+0x370>
    5178:	0014d793          	srli	a5,s1,0x1
    517c:	8885                	andi	s1,s1,1
    517e:	01f41693          	slli	a3,s0,0x1f
    5182:	8cdd                	or	s1,s1,a5
    5184:	8cd5                	or	s1,s1,a3
    5186:	8005                	srli	s0,s0,0x1
    5188:	8942                	mv	s2,a6
    518a:	3ff90793          	addi	a5,s2,1023
    518e:	08f05963          	blez	a5,5220 <__muldf3+0x406>
    5192:	0074f693          	andi	a3,s1,7
    5196:	ce81                	beqz	a3,51ae <__muldf3+0x394>
    5198:	00f4f693          	andi	a3,s1,15
    519c:	4611                	li	a2,4
    519e:	00c68863          	beq	a3,a2,51ae <__muldf3+0x394>
    51a2:	00448693          	addi	a3,s1,4
    51a6:	0096b4b3          	sltu	s1,a3,s1
    51aa:	9426                	add	s0,s0,s1
    51ac:	84b6                	mv	s1,a3
    51ae:	00741693          	slli	a3,s0,0x7
    51b2:	0006d863          	bgez	a3,51c2 <__muldf3+0x3a8>
    51b6:	ff0007b7          	lui	a5,0xff000
    51ba:	17fd                	addi	a5,a5,-1
    51bc:	8c7d                	and	s0,s0,a5
    51be:	40090793          	addi	a5,s2,1024
    51c2:	7fe00693          	li	a3,2046
    51c6:	0ef6cf63          	blt	a3,a5,52c4 <__muldf3+0x4aa>
    51ca:	0034d693          	srli	a3,s1,0x3
    51ce:	01d41493          	slli	s1,s0,0x1d
    51d2:	0426                	slli	s0,s0,0x9
    51d4:	8cd5                	or	s1,s1,a3
    51d6:	8031                	srli	s0,s0,0xc
    51d8:	7ff7f793          	andi	a5,a5,2047
    51dc:	bb21                	j	4ef4 <__muldf3+0xda>
    51de:	8532                	mv	a0,a2
    51e0:	c432                	sw	a2,8(sp)
    51e2:	0a8010ef          	jal	ra,628a <__clzsi2>
    51e6:	01550693          	addi	a3,a0,21 # 10015 <_data_lma+0x8da9>
    51ea:	47f1                	li	a5,28
    51ec:	02050713          	addi	a4,a0,32
    51f0:	4622                	lw	a2,8(sp)
    51f2:	dcd7d1e3          	bge	a5,a3,4fb4 <__muldf3+0x19a>
    51f6:	1561                	addi	a0,a0,-8
    51f8:	00a617b3          	sll	a5,a2,a0
    51fc:	4581                	li	a1,0
    51fe:	b3f9                	j	4fcc <__muldf3+0x1b2>
    5200:	08a010ef          	jal	ra,628a <__clzsi2>
    5204:	01550713          	addi	a4,a0,21
    5208:	45f1                	li	a1,28
    520a:	02050793          	addi	a5,a0,32
    520e:	4622                	lw	a2,8(sp)
    5210:	46b2                	lw	a3,12(sp)
    5212:	d4e5d5e3          	bge	a1,a4,4f5c <__muldf3+0x142>
    5216:	1561                	addi	a0,a0,-8
    5218:	00aa1433          	sll	s0,s4,a0
    521c:	4481                	li	s1,0
    521e:	bb99                	j	4f74 <__muldf3+0x15a>
    5220:	4685                	li	a3,1
    5222:	8e9d                	sub	a3,a3,a5
    5224:	e7b1                	bnez	a5,5270 <__muldf3+0x456>
    5226:	41e90913          	addi	s2,s2,1054
    522a:	012497b3          	sll	a5,s1,s2
    522e:	00d4d4b3          	srl	s1,s1,a3
    5232:	01241933          	sll	s2,s0,s2
    5236:	00f037b3          	snez	a5,a5
    523a:	009964b3          	or	s1,s2,s1
    523e:	8cdd                	or	s1,s1,a5
    5240:	0074f793          	andi	a5,s1,7
    5244:	00d456b3          	srl	a3,s0,a3
    5248:	cf81                	beqz	a5,5260 <__muldf3+0x446>
    524a:	00f4f793          	andi	a5,s1,15
    524e:	4611                	li	a2,4
    5250:	00c78863          	beq	a5,a2,5260 <__muldf3+0x446>
    5254:	00448793          	addi	a5,s1,4
    5258:	0097b4b3          	sltu	s1,a5,s1
    525c:	96a6                	add	a3,a3,s1
    525e:	84be                	mv	s1,a5
    5260:	00869793          	slli	a5,a3,0x8
    5264:	0407d863          	bgez	a5,52b4 <__muldf3+0x49a>
    5268:	4785                	li	a5,1
    526a:	4401                	li	s0,0
    526c:	4481                	li	s1,0
    526e:	b159                	j	4ef4 <__muldf3+0xda>
    5270:	03800613          	li	a2,56
    5274:	ccd641e3          	blt	a2,a3,4f36 <__muldf3+0x11c>
    5278:	467d                	li	a2,31
    527a:	fad656e3          	bge	a2,a3,5226 <__muldf3+0x40c>
    527e:	5605                	li	a2,-31
    5280:	40f607b3          	sub	a5,a2,a5
    5284:	02000593          	li	a1,32
    5288:	00f45633          	srl	a2,s0,a5
    528c:	00b68763          	beq	a3,a1,529a <__muldf3+0x480>
    5290:	43e90913          	addi	s2,s2,1086
    5294:	012417b3          	sll	a5,s0,s2
    5298:	8cdd                	or	s1,s1,a5
    529a:	009034b3          	snez	s1,s1
    529e:	8cd1                	or	s1,s1,a2
    52a0:	0074f693          	andi	a3,s1,7
    52a4:	4401                	li	s0,0
    52a6:	ca99                	beqz	a3,52bc <__muldf3+0x4a2>
    52a8:	00f4f793          	andi	a5,s1,15
    52ac:	4611                	li	a2,4
    52ae:	4681                	li	a3,0
    52b0:	fac792e3          	bne	a5,a2,5254 <__muldf3+0x43a>
    52b4:	00969413          	slli	s0,a3,0x9
    52b8:	8031                	srli	s0,s0,0xc
    52ba:	06f6                	slli	a3,a3,0x1d
    52bc:	808d                	srli	s1,s1,0x3
    52be:	8cd5                	or	s1,s1,a3
    52c0:	4781                	li	a5,0
    52c2:	b90d                	j	4ef4 <__muldf3+0xda>
    52c4:	7ff00793          	li	a5,2047
    52c8:	4401                	li	s0,0
    52ca:	4481                	li	s1,0
    52cc:	b125                	j	4ef4 <__muldf3+0xda>
    52ce:	8942                	mv	s2,a6
    52d0:	bd6d                	j	518a <__muldf3+0x370>

000052d2 <__subdf3>:
    52d2:	00100737          	lui	a4,0x100
    52d6:	177d                	addi	a4,a4,-1
    52d8:	1101                	addi	sp,sp,-32
    52da:	00b77333          	and	t1,a4,a1
    52de:	0146d893          	srli	a7,a3,0x14
    52e2:	8f75                	and	a4,a4,a3
    52e4:	01d65e93          	srli	t4,a2,0x1d
    52e8:	cc22                	sw	s0,24(sp)
    52ea:	ca26                	sw	s1,20(sp)
    52ec:	030e                	slli	t1,t1,0x3
    52ee:	0145d493          	srli	s1,a1,0x14
    52f2:	01d55793          	srli	a5,a0,0x1d
    52f6:	070e                	slli	a4,a4,0x3
    52f8:	ce06                	sw	ra,28(sp)
    52fa:	c84a                	sw	s2,16(sp)
    52fc:	c64e                	sw	s3,12(sp)
    52fe:	7ff8f893          	andi	a7,a7,2047
    5302:	7ff00e13          	li	t3,2047
    5306:	00eee733          	or	a4,t4,a4
    530a:	7ff4f493          	andi	s1,s1,2047
    530e:	01f5d413          	srli	s0,a1,0x1f
    5312:	0067e333          	or	t1,a5,t1
    5316:	00351f13          	slli	t5,a0,0x3
    531a:	82fd                	srli	a3,a3,0x1f
    531c:	00361e93          	slli	t4,a2,0x3
    5320:	19c88063          	beq	a7,t3,54a0 <__subdf3+0x1ce>
    5324:	0016c693          	xori	a3,a3,1
    5328:	411485b3          	sub	a1,s1,a7
    532c:	12d40563          	beq	s0,a3,5456 <__subdf3+0x184>
    5330:	18b05163          	blez	a1,54b2 <__subdf3+0x1e0>
    5334:	1a088b63          	beqz	a7,54ea <__subdf3+0x218>
    5338:	008007b7          	lui	a5,0x800
    533c:	8f5d                	or	a4,a4,a5
    533e:	59c48163          	beq	s1,t3,58c0 <__subdf3+0x5ee>
    5342:	03800793          	li	a5,56
    5346:	34b7c463          	blt	a5,a1,568e <__subdf3+0x3bc>
    534a:	47fd                	li	a5,31
    534c:	48b7c563          	blt	a5,a1,57d6 <__subdf3+0x504>
    5350:	02000793          	li	a5,32
    5354:	8f8d                	sub	a5,a5,a1
    5356:	00bed9b3          	srl	s3,t4,a1
    535a:	00f71833          	sll	a6,a4,a5
    535e:	00fe9eb3          	sll	t4,t4,a5
    5362:	01386833          	or	a6,a6,s3
    5366:	00b75733          	srl	a4,a4,a1
    536a:	01d039b3          	snez	s3,t4
    536e:	01386833          	or	a6,a6,s3
    5372:	40e30333          	sub	t1,t1,a4
    5376:	410f09b3          	sub	s3,t5,a6
    537a:	013f37b3          	sltu	a5,t5,s3
    537e:	40f30633          	sub	a2,t1,a5
    5382:	00861793          	slli	a5,a2,0x8
    5386:	2407d363          	bgez	a5,55cc <__subdf3+0x2fa>
    538a:	00800937          	lui	s2,0x800
    538e:	197d                	addi	s2,s2,-1
    5390:	01267933          	and	s2,a2,s2
    5394:	2c090f63          	beqz	s2,5672 <__subdf3+0x3a0>
    5398:	854a                	mv	a0,s2
    539a:	6f1000ef          	jal	ra,628a <__clzsi2>
    539e:	ff850713          	addi	a4,a0,-8
    53a2:	02000793          	li	a5,32
    53a6:	8f99                	sub	a5,a5,a4
    53a8:	00f9d7b3          	srl	a5,s3,a5
    53ac:	00e91633          	sll	a2,s2,a4
    53b0:	8fd1                	or	a5,a5,a2
    53b2:	00e999b3          	sll	s3,s3,a4
    53b6:	2a974463          	blt	a4,s1,565e <__subdf3+0x38c>
    53ba:	8f05                	sub	a4,a4,s1
    53bc:	00170613          	addi	a2,a4,1 # 100001 <_data_lma+0xf8d95>
    53c0:	46fd                	li	a3,31
    53c2:	3ac6c563          	blt	a3,a2,576c <__subdf3+0x49a>
    53c6:	02000713          	li	a4,32
    53ca:	8f11                	sub	a4,a4,a2
    53cc:	00c9d6b3          	srl	a3,s3,a2
    53d0:	00e99833          	sll	a6,s3,a4
    53d4:	00e79733          	sll	a4,a5,a4
    53d8:	8f55                	or	a4,a4,a3
    53da:	01003833          	snez	a6,a6
    53de:	010769b3          	or	s3,a4,a6
    53e2:	00c7d633          	srl	a2,a5,a2
    53e6:	4481                	li	s1,0
    53e8:	0079f793          	andi	a5,s3,7
    53ec:	cf81                	beqz	a5,5404 <__subdf3+0x132>
    53ee:	00f9f693          	andi	a3,s3,15
    53f2:	4791                	li	a5,4
    53f4:	00f68863          	beq	a3,a5,5404 <__subdf3+0x132>
    53f8:	00498693          	addi	a3,s3,4
    53fc:	0136b833          	sltu	a6,a3,s3
    5400:	9642                	add	a2,a2,a6
    5402:	89b6                	mv	s3,a3
    5404:	00861793          	slli	a5,a2,0x8
    5408:	1c07d663          	bgez	a5,55d4 <__subdf3+0x302>
    540c:	00148713          	addi	a4,s1,1
    5410:	7ff00793          	li	a5,2047
    5414:	8805                	andi	s0,s0,1
    5416:	20f70663          	beq	a4,a5,5622 <__subdf3+0x350>
    541a:	ff8007b7          	lui	a5,0xff800
    541e:	17fd                	addi	a5,a5,-1
    5420:	8ff1                	and	a5,a5,a2
    5422:	01d79813          	slli	a6,a5,0x1d
    5426:	0039d993          	srli	s3,s3,0x3
    542a:	07a6                	slli	a5,a5,0x9
    542c:	01386833          	or	a6,a6,s3
    5430:	83b1                	srli	a5,a5,0xc
    5432:	7ff77713          	andi	a4,a4,2047
    5436:	00c79693          	slli	a3,a5,0xc
    543a:	0752                	slli	a4,a4,0x14
    543c:	82b1                	srli	a3,a3,0xc
    543e:	047e                	slli	s0,s0,0x1f
    5440:	8ed9                	or	a3,a3,a4
    5442:	8ec1                	or	a3,a3,s0
    5444:	40f2                	lw	ra,28(sp)
    5446:	4462                	lw	s0,24(sp)
    5448:	44d2                	lw	s1,20(sp)
    544a:	4942                	lw	s2,16(sp)
    544c:	49b2                	lw	s3,12(sp)
    544e:	8542                	mv	a0,a6
    5450:	85b6                	mv	a1,a3
    5452:	6105                	addi	sp,sp,32
    5454:	8082                	ret
    5456:	0ab05663          	blez	a1,5502 <__subdf3+0x230>
    545a:	12088a63          	beqz	a7,558e <__subdf3+0x2bc>
    545e:	008007b7          	lui	a5,0x800
    5462:	8f5d                	or	a4,a4,a5
    5464:	2dc48763          	beq	s1,t3,5732 <__subdf3+0x460>
    5468:	03800793          	li	a5,56
    546c:	18b7c763          	blt	a5,a1,55fa <__subdf3+0x328>
    5470:	47fd                	li	a5,31
    5472:	3cb7d263          	bge	a5,a1,5836 <__subdf3+0x564>
    5476:	fe058813          	addi	a6,a1,-32 # ffe0 <_data_lma+0x8d74>
    547a:	02000793          	li	a5,32
    547e:	010759b3          	srl	s3,a4,a6
    5482:	00f58a63          	beq	a1,a5,5496 <__subdf3+0x1c4>
    5486:	04000793          	li	a5,64
    548a:	40b785b3          	sub	a1,a5,a1
    548e:	00b71733          	sll	a4,a4,a1
    5492:	00eeeeb3          	or	t4,t4,a4
    5496:	01d03833          	snez	a6,t4
    549a:	01386833          	or	a6,a6,s3
    549e:	a295                	j	5602 <__subdf3+0x330>
    54a0:	01d767b3          	or	a5,a4,t4
    54a4:	80148593          	addi	a1,s1,-2047
    54a8:	e399                	bnez	a5,54ae <__subdf3+0x1dc>
    54aa:	0016c693          	xori	a3,a3,1
    54ae:	04d40a63          	beq	s0,a3,5502 <__subdf3+0x230>
    54b2:	e1d1                	bnez	a1,5536 <__subdf3+0x264>
    54b4:	00148793          	addi	a5,s1,1
    54b8:	7fe7f793          	andi	a5,a5,2046
    54bc:	1e079963          	bnez	a5,56ae <__subdf3+0x3dc>
    54c0:	01e367b3          	or	a5,t1,t5
    54c4:	01d76833          	or	a6,a4,t4
    54c8:	16049263          	bnez	s1,562c <__subdf3+0x35a>
    54cc:	3c078263          	beqz	a5,5890 <__subdf3+0x5be>
    54d0:	42081663          	bnez	a6,58fc <__subdf3+0x62a>
    54d4:	00351813          	slli	a6,a0,0x3
    54d8:	01d31693          	slli	a3,t1,0x1d
    54dc:	00385813          	srli	a6,a6,0x3
    54e0:	0106e833          	or	a6,a3,a6
    54e4:	00335793          	srli	a5,t1,0x3
    54e8:	a219                	j	55ee <__subdf3+0x31c>
    54ea:	01d767b3          	or	a5,a4,t4
    54ee:	1a078563          	beqz	a5,5698 <__subdf3+0x3c6>
    54f2:	fff58793          	addi	a5,a1,-1
    54f6:	3a078b63          	beqz	a5,58ac <__subdf3+0x5da>
    54fa:	23c58c63          	beq	a1,t3,5732 <__subdf3+0x460>
    54fe:	85be                	mv	a1,a5
    5500:	b589                	j	5342 <__subdf3+0x70>
    5502:	1c059963          	bnez	a1,56d4 <__subdf3+0x402>
    5506:	00148693          	addi	a3,s1,1
    550a:	7fe6f793          	andi	a5,a3,2046
    550e:	efc1                	bnez	a5,55a6 <__subdf3+0x2d4>
    5510:	01e367b3          	or	a5,t1,t5
    5514:	36049063          	bnez	s1,5874 <__subdf3+0x5a2>
    5518:	44078d63          	beqz	a5,5972 <__subdf3+0x6a0>
    551c:	01d767b3          	or	a5,a4,t4
    5520:	46079463          	bnez	a5,5988 <__subdf3+0x6b6>
    5524:	050e                	slli	a0,a0,0x3
    5526:	01d31813          	slli	a6,t1,0x1d
    552a:	810d                	srli	a0,a0,0x3
    552c:	00a86833          	or	a6,a6,a0
    5530:	00335793          	srli	a5,t1,0x3
    5534:	a86d                	j	55ee <__subdf3+0x31c>
    5536:	409885b3          	sub	a1,a7,s1
    553a:	20049763          	bnez	s1,5748 <__subdf3+0x476>
    553e:	01e367b3          	or	a5,t1,t5
    5542:	30078d63          	beqz	a5,585c <__subdf3+0x58a>
    5546:	fff58793          	addi	a5,a1,-1
    554a:	40078963          	beqz	a5,595c <__subdf3+0x68a>
    554e:	7ff00513          	li	a0,2047
    5552:	20a58363          	beq	a1,a0,5758 <__subdf3+0x486>
    5556:	85be                	mv	a1,a5
    5558:	03800793          	li	a5,56
    555c:	2ab7c263          	blt	a5,a1,5800 <__subdf3+0x52e>
    5560:	47fd                	li	a5,31
    5562:	3cb7c863          	blt	a5,a1,5932 <__subdf3+0x660>
    5566:	02000793          	li	a5,32
    556a:	8f8d                	sub	a5,a5,a1
    556c:	00f31833          	sll	a6,t1,a5
    5570:	00bf5633          	srl	a2,t5,a1
    5574:	00ff17b3          	sll	a5,t5,a5
    5578:	00c86833          	or	a6,a6,a2
    557c:	00f039b3          	snez	s3,a5
    5580:	00b35333          	srl	t1,t1,a1
    5584:	01386833          	or	a6,a6,s3
    5588:	40670733          	sub	a4,a4,t1
    558c:	acb5                	j	5808 <__subdf3+0x536>
    558e:	01d767b3          	or	a5,a4,t4
    5592:	10078363          	beqz	a5,5698 <__subdf3+0x3c6>
    5596:	fff58793          	addi	a5,a1,-1
    559a:	1e078f63          	beqz	a5,5798 <__subdf3+0x4c6>
    559e:	2fc58063          	beq	a1,t3,587e <__subdf3+0x5ac>
    55a2:	85be                	mv	a1,a5
    55a4:	b5d1                	j	5468 <__subdf3+0x196>
    55a6:	7ff00793          	li	a5,2047
    55aa:	06f68b63          	beq	a3,a5,5620 <__subdf3+0x34e>
    55ae:	9efa                	add	t4,t4,t5
    55b0:	01eeb633          	sltu	a2,t4,t5
    55b4:	00e307b3          	add	a5,t1,a4
    55b8:	97b2                	add	a5,a5,a2
    55ba:	01f79813          	slli	a6,a5,0x1f
    55be:	001ede93          	srli	t4,t4,0x1
    55c2:	01d869b3          	or	s3,a6,t4
    55c6:	0017d613          	srli	a2,a5,0x1
    55ca:	84b6                	mv	s1,a3
    55cc:	0079f793          	andi	a5,s3,7
    55d0:	e0079fe3          	bnez	a5,53ee <__subdf3+0x11c>
    55d4:	01d61793          	slli	a5,a2,0x1d
    55d8:	0039d813          	srli	a6,s3,0x3
    55dc:	00f86833          	or	a6,a6,a5
    55e0:	85a6                	mv	a1,s1
    55e2:	00365793          	srli	a5,a2,0x3
    55e6:	7ff00713          	li	a4,2047
    55ea:	06e58063          	beq	a1,a4,564a <__subdf3+0x378>
    55ee:	07b2                	slli	a5,a5,0xc
    55f0:	83b1                	srli	a5,a5,0xc
    55f2:	7ff5f713          	andi	a4,a1,2047
    55f6:	8805                	andi	s0,s0,1
    55f8:	bd3d                	j	5436 <__subdf3+0x164>
    55fa:	01d76733          	or	a4,a4,t4
    55fe:	00e03833          	snez	a6,a4
    5602:	01e809b3          	add	s3,a6,t5
    5606:	01e9b7b3          	sltu	a5,s3,t5
    560a:	00678633          	add	a2,a5,t1
    560e:	00861793          	slli	a5,a2,0x8
    5612:	fa07dde3          	bgez	a5,55cc <__subdf3+0x2fa>
    5616:	0485                	addi	s1,s1,1
    5618:	7ff00793          	li	a5,2047
    561c:	18f49c63          	bne	s1,a5,57b4 <__subdf3+0x4e2>
    5620:	8805                	andi	s0,s0,1
    5622:	7ff00713          	li	a4,2047
    5626:	4781                	li	a5,0
    5628:	4801                	li	a6,0
    562a:	b531                	j	5436 <__subdf3+0x164>
    562c:	10079163          	bnez	a5,572e <__subdf3+0x45c>
    5630:	3c080163          	beqz	a6,59f2 <__subdf3+0x720>
    5634:	00361813          	slli	a6,a2,0x3
    5638:	01d71793          	slli	a5,a4,0x1d
    563c:	00385813          	srli	a6,a6,0x3
    5640:	00f86833          	or	a6,a6,a5
    5644:	8436                	mv	s0,a3
    5646:	00375793          	srli	a5,a4,0x3
    564a:	00f867b3          	or	a5,a6,a5
    564e:	dbe9                	beqz	a5,5620 <__subdf3+0x34e>
    5650:	4401                	li	s0,0
    5652:	7ff00713          	li	a4,2047
    5656:	000807b7          	lui	a5,0x80
    565a:	4801                	li	a6,0
    565c:	bbe9                	j	5436 <__subdf3+0x164>
    565e:	ff800637          	lui	a2,0xff800
    5662:	167d                	addi	a2,a2,-1
    5664:	8e7d                	and	a2,a2,a5
    5666:	0079f793          	andi	a5,s3,7
    566a:	8c99                	sub	s1,s1,a4
    566c:	d80791e3          	bnez	a5,53ee <__subdf3+0x11c>
    5670:	b795                	j	55d4 <__subdf3+0x302>
    5672:	854e                	mv	a0,s3
    5674:	417000ef          	jal	ra,628a <__clzsi2>
    5678:	01850713          	addi	a4,a0,24
    567c:	47fd                	li	a5,31
    567e:	d2e7d2e3          	bge	a5,a4,53a2 <__subdf3+0xd0>
    5682:	ff850613          	addi	a2,a0,-8
    5686:	00c997b3          	sll	a5,s3,a2
    568a:	4981                	li	s3,0
    568c:	b32d                	j	53b6 <__subdf3+0xe4>
    568e:	01d76833          	or	a6,a4,t4
    5692:	01003833          	snez	a6,a6
    5696:	b1c5                	j	5376 <__subdf3+0xa4>
    5698:	00351813          	slli	a6,a0,0x3
    569c:	01d31793          	slli	a5,t1,0x1d
    56a0:	00385813          	srli	a6,a6,0x3
    56a4:	00f86833          	or	a6,a6,a5
    56a8:	00335793          	srli	a5,t1,0x3
    56ac:	bf2d                	j	55e6 <__subdf3+0x314>
    56ae:	41df09b3          	sub	s3,t5,t4
    56b2:	40e30933          	sub	s2,t1,a4
    56b6:	013f3633          	sltu	a2,t5,s3
    56ba:	40c90933          	sub	s2,s2,a2
    56be:	00891793          	slli	a5,s2,0x8
    56c2:	2007ca63          	bltz	a5,58d6 <__subdf3+0x604>
    56c6:	0129e833          	or	a6,s3,s2
    56ca:	cc0815e3          	bnez	a6,5394 <__subdf3+0xc2>
    56ce:	4781                	li	a5,0
    56d0:	4401                	li	s0,0
    56d2:	bf31                	j	55ee <__subdf3+0x31c>
    56d4:	409885b3          	sub	a1,a7,s1
    56d8:	14048163          	beqz	s1,581a <__subdf3+0x548>
    56dc:	008006b7          	lui	a3,0x800
    56e0:	7ff00793          	li	a5,2047
    56e4:	00d36333          	or	t1,t1,a3
    56e8:	20f88163          	beq	a7,a5,58ea <__subdf3+0x618>
    56ec:	03800793          	li	a5,56
    56f0:	22b7cc63          	blt	a5,a1,5928 <__subdf3+0x656>
    56f4:	47fd                	li	a5,31
    56f6:	2cb7c963          	blt	a5,a1,59c8 <__subdf3+0x6f6>
    56fa:	02000793          	li	a5,32
    56fe:	8f8d                	sub	a5,a5,a1
    5700:	00f31833          	sll	a6,t1,a5
    5704:	00bf56b3          	srl	a3,t5,a1
    5708:	00ff17b3          	sll	a5,t5,a5
    570c:	00d86833          	or	a6,a6,a3
    5710:	00f039b3          	snez	s3,a5
    5714:	00b35333          	srl	t1,t1,a1
    5718:	01386833          	or	a6,a6,s3
    571c:	971a                	add	a4,a4,t1
    571e:	01d809b3          	add	s3,a6,t4
    5722:	01d9b7b3          	sltu	a5,s3,t4
    5726:	00e78633          	add	a2,a5,a4
    572a:	84c6                	mv	s1,a7
    572c:	b5cd                	j	560e <__subdf3+0x33c>
    572e:	f20811e3          	bnez	a6,5650 <__subdf3+0x37e>
    5732:	00351813          	slli	a6,a0,0x3
    5736:	01d31793          	slli	a5,t1,0x1d
    573a:	00385813          	srli	a6,a6,0x3
    573e:	00f86833          	or	a6,a6,a5
    5742:	00335793          	srli	a5,t1,0x3
    5746:	b711                	j	564a <__subdf3+0x378>
    5748:	00800537          	lui	a0,0x800
    574c:	7ff00793          	li	a5,2047
    5750:	00a36333          	or	t1,t1,a0
    5754:	e0f892e3          	bne	a7,a5,5558 <__subdf3+0x286>
    5758:	060e                	slli	a2,a2,0x3
    575a:	01d71813          	slli	a6,a4,0x1d
    575e:	820d                	srli	a2,a2,0x3
    5760:	00c86833          	or	a6,a6,a2
    5764:	00375793          	srli	a5,a4,0x3
    5768:	8436                	mv	s0,a3
    576a:	b5c5                	j	564a <__subdf3+0x378>
    576c:	1705                	addi	a4,a4,-31
    576e:	02000693          	li	a3,32
    5772:	00e7d733          	srl	a4,a5,a4
    5776:	00d60a63          	beq	a2,a3,578a <__subdf3+0x4b8>
    577a:	04000693          	li	a3,64
    577e:	40c68633          	sub	a2,a3,a2
    5782:	00c79633          	sll	a2,a5,a2
    5786:	00c9e9b3          	or	s3,s3,a2
    578a:	01303833          	snez	a6,s3
    578e:	00e869b3          	or	s3,a6,a4
    5792:	4601                	li	a2,0
    5794:	4481                	li	s1,0
    5796:	bd1d                	j	55cc <__subdf3+0x2fa>
    5798:	01df09b3          	add	s3,t5,t4
    579c:	00e307b3          	add	a5,t1,a4
    57a0:	01e9bf33          	sltu	t5,s3,t5
    57a4:	01e78633          	add	a2,a5,t5
    57a8:	00861793          	slli	a5,a2,0x8
    57ac:	4485                	li	s1,1
    57ae:	e007dfe3          	bgez	a5,55cc <__subdf3+0x2fa>
    57b2:	4489                	li	s1,2
    57b4:	ff8007b7          	lui	a5,0xff800
    57b8:	17fd                	addi	a5,a5,-1
    57ba:	8ff1                	and	a5,a5,a2
    57bc:	0019d713          	srli	a4,s3,0x1
    57c0:	0019f813          	andi	a6,s3,1
    57c4:	01076833          	or	a6,a4,a6
    57c8:	01f79993          	slli	s3,a5,0x1f
    57cc:	0109e9b3          	or	s3,s3,a6
    57d0:	0017d613          	srli	a2,a5,0x1
    57d4:	b911                	j	53e8 <__subdf3+0x116>
    57d6:	fe058813          	addi	a6,a1,-32
    57da:	02000793          	li	a5,32
    57de:	010759b3          	srl	s3,a4,a6
    57e2:	00f58a63          	beq	a1,a5,57f6 <__subdf3+0x524>
    57e6:	04000793          	li	a5,64
    57ea:	40b785b3          	sub	a1,a5,a1
    57ee:	00b71733          	sll	a4,a4,a1
    57f2:	00eeeeb3          	or	t4,t4,a4
    57f6:	01d03833          	snez	a6,t4
    57fa:	01386833          	or	a6,a6,s3
    57fe:	bea5                	j	5376 <__subdf3+0xa4>
    5800:	01e36333          	or	t1,t1,t5
    5804:	00603833          	snez	a6,t1
    5808:	410e89b3          	sub	s3,t4,a6
    580c:	013eb7b3          	sltu	a5,t4,s3
    5810:	40f70633          	sub	a2,a4,a5
    5814:	84c6                	mv	s1,a7
    5816:	8436                	mv	s0,a3
    5818:	b6ad                	j	5382 <__subdf3+0xb0>
    581a:	01e367b3          	or	a5,t1,t5
    581e:	18078763          	beqz	a5,59ac <__subdf3+0x6da>
    5822:	fff58793          	addi	a5,a1,-1
    5826:	1c078c63          	beqz	a5,59fe <__subdf3+0x72c>
    582a:	7ff00693          	li	a3,2047
    582e:	0ad58e63          	beq	a1,a3,58ea <__subdf3+0x618>
    5832:	85be                	mv	a1,a5
    5834:	bd65                	j	56ec <__subdf3+0x41a>
    5836:	02000793          	li	a5,32
    583a:	8f8d                	sub	a5,a5,a1
    583c:	00bed9b3          	srl	s3,t4,a1
    5840:	00f71833          	sll	a6,a4,a5
    5844:	00fe9eb3          	sll	t4,t4,a5
    5848:	01386833          	or	a6,a6,s3
    584c:	00b75733          	srl	a4,a4,a1
    5850:	01d039b3          	snez	s3,t4
    5854:	01386833          	or	a6,a6,s3
    5858:	933a                	add	t1,t1,a4
    585a:	b365                	j	5602 <__subdf3+0x330>
    585c:	00361813          	slli	a6,a2,0x3
    5860:	01d71793          	slli	a5,a4,0x1d
    5864:	00385813          	srli	a6,a6,0x3
    5868:	0107e833          	or	a6,a5,a6
    586c:	8436                	mv	s0,a3
    586e:	00375793          	srli	a5,a4,0x3
    5872:	bb95                	j	55e6 <__subdf3+0x314>
    5874:	cbbd                	beqz	a5,58ea <__subdf3+0x618>
    5876:	01d76733          	or	a4,a4,t4
    587a:	dc071be3          	bnez	a4,5650 <__subdf3+0x37e>
    587e:	050e                	slli	a0,a0,0x3
    5880:	01d31813          	slli	a6,t1,0x1d
    5884:	810d                	srli	a0,a0,0x3
    5886:	00a86833          	or	a6,a6,a0
    588a:	00335793          	srli	a5,t1,0x3
    588e:	bb75                	j	564a <__subdf3+0x378>
    5890:	e2080fe3          	beqz	a6,56ce <__subdf3+0x3fc>
    5894:	00361813          	slli	a6,a2,0x3
    5898:	01d71793          	slli	a5,a4,0x1d
    589c:	00385813          	srli	a6,a6,0x3
    58a0:	00f86833          	or	a6,a6,a5
    58a4:	8436                	mv	s0,a3
    58a6:	00375793          	srli	a5,a4,0x3
    58aa:	b391                	j	55ee <__subdf3+0x31c>
    58ac:	41df09b3          	sub	s3,t5,t4
    58b0:	40e307b3          	sub	a5,t1,a4
    58b4:	013f3f33          	sltu	t5,t5,s3
    58b8:	41e78633          	sub	a2,a5,t5
    58bc:	4485                	li	s1,1
    58be:	b4d1                	j	5382 <__subdf3+0xb0>
    58c0:	00351813          	slli	a6,a0,0x3
    58c4:	01d31693          	slli	a3,t1,0x1d
    58c8:	00385813          	srli	a6,a6,0x3
    58cc:	0106e833          	or	a6,a3,a6
    58d0:	00335793          	srli	a5,t1,0x3
    58d4:	bb9d                	j	564a <__subdf3+0x378>
    58d6:	41ee89b3          	sub	s3,t4,t5
    58da:	40670633          	sub	a2,a4,t1
    58de:	013eb933          	sltu	s2,t4,s3
    58e2:	41260933          	sub	s2,a2,s2
    58e6:	8436                	mv	s0,a3
    58e8:	b475                	j	5394 <__subdf3+0xc2>
    58ea:	060e                	slli	a2,a2,0x3
    58ec:	01d71813          	slli	a6,a4,0x1d
    58f0:	820d                	srli	a2,a2,0x3
    58f2:	00c86833          	or	a6,a6,a2
    58f6:	00375793          	srli	a5,a4,0x3
    58fa:	bb81                	j	564a <__subdf3+0x378>
    58fc:	41df09b3          	sub	s3,t5,t4
    5900:	40e307b3          	sub	a5,t1,a4
    5904:	013f3633          	sltu	a2,t5,s3
    5908:	40c78633          	sub	a2,a5,a2
    590c:	00861793          	slli	a5,a2,0x8
    5910:	0a07d763          	bgez	a5,59be <__subdf3+0x6ec>
    5914:	41ee89b3          	sub	s3,t4,t5
    5918:	406707b3          	sub	a5,a4,t1
    591c:	013ebeb3          	sltu	t4,t4,s3
    5920:	41d78633          	sub	a2,a5,t4
    5924:	8436                	mv	s0,a3
    5926:	b4c9                	j	53e8 <__subdf3+0x116>
    5928:	01e36333          	or	t1,t1,t5
    592c:	00603833          	snez	a6,t1
    5930:	b3fd                	j	571e <__subdf3+0x44c>
    5932:	fe058813          	addi	a6,a1,-32
    5936:	02000793          	li	a5,32
    593a:	010359b3          	srl	s3,t1,a6
    593e:	00f58a63          	beq	a1,a5,5952 <__subdf3+0x680>
    5942:	04000793          	li	a5,64
    5946:	40b785b3          	sub	a1,a5,a1
    594a:	00b31333          	sll	t1,t1,a1
    594e:	006f6f33          	or	t5,t5,t1
    5952:	01e03833          	snez	a6,t5
    5956:	01386833          	or	a6,a6,s3
    595a:	b57d                	j	5808 <__subdf3+0x536>
    595c:	41ee89b3          	sub	s3,t4,t5
    5960:	406707b3          	sub	a5,a4,t1
    5964:	013ebeb3          	sltu	t4,t4,s3
    5968:	41d78633          	sub	a2,a5,t4
    596c:	8436                	mv	s0,a3
    596e:	4485                	li	s1,1
    5970:	bc09                	j	5382 <__subdf3+0xb0>
    5972:	00361813          	slli	a6,a2,0x3
    5976:	01d71793          	slli	a5,a4,0x1d
    597a:	00385813          	srli	a6,a6,0x3
    597e:	00f86833          	or	a6,a6,a5
    5982:	00375793          	srli	a5,a4,0x3
    5986:	b1a5                	j	55ee <__subdf3+0x31c>
    5988:	01df09b3          	add	s3,t5,t4
    598c:	00e307b3          	add	a5,t1,a4
    5990:	01e9bf33          	sltu	t5,s3,t5
    5994:	01e78633          	add	a2,a5,t5
    5998:	00861793          	slli	a5,a2,0x8
    599c:	c207d8e3          	bgez	a5,55cc <__subdf3+0x2fa>
    59a0:	ff8007b7          	lui	a5,0xff800
    59a4:	17fd                	addi	a5,a5,-1
    59a6:	8e7d                	and	a2,a2,a5
    59a8:	4485                	li	s1,1
    59aa:	b10d                	j	55cc <__subdf3+0x2fa>
    59ac:	060e                	slli	a2,a2,0x3
    59ae:	01d71813          	slli	a6,a4,0x1d
    59b2:	820d                	srli	a2,a2,0x3
    59b4:	00c86833          	or	a6,a6,a2
    59b8:	00375793          	srli	a5,a4,0x3
    59bc:	b12d                	j	55e6 <__subdf3+0x314>
    59be:	00c9e833          	or	a6,s3,a2
    59c2:	d00806e3          	beqz	a6,56ce <__subdf3+0x3fc>
    59c6:	b119                	j	55cc <__subdf3+0x2fa>
    59c8:	fe058813          	addi	a6,a1,-32
    59cc:	02000793          	li	a5,32
    59d0:	010359b3          	srl	s3,t1,a6
    59d4:	00f58a63          	beq	a1,a5,59e8 <__subdf3+0x716>
    59d8:	04000793          	li	a5,64
    59dc:	40b785b3          	sub	a1,a5,a1
    59e0:	00b31333          	sll	t1,t1,a1
    59e4:	006f6f33          	or	t5,t5,t1
    59e8:	01e03833          	snez	a6,t5
    59ec:	01386833          	or	a6,a6,s3
    59f0:	b33d                	j	571e <__subdf3+0x44c>
    59f2:	4401                	li	s0,0
    59f4:	7ff00713          	li	a4,2047
    59f8:	000807b7          	lui	a5,0x80
    59fc:	bc2d                	j	5436 <__subdf3+0x164>
    59fe:	01df09b3          	add	s3,t5,t4
    5a02:	00e307b3          	add	a5,t1,a4
    5a06:	01d9beb3          	sltu	t4,s3,t4
    5a0a:	01d78633          	add	a2,a5,t4
    5a0e:	bb69                	j	57a8 <__subdf3+0x4d6>

00005a10 <__fixdfsi>:
    5a10:	0145d793          	srli	a5,a1,0x14
    5a14:	001006b7          	lui	a3,0x100
    5a18:	fff68713          	addi	a4,a3,-1 # fffff <_data_lma+0xf8d93>
    5a1c:	7ff7f793          	andi	a5,a5,2047
    5a20:	3fe00613          	li	a2,1022
    5a24:	8f6d                	and	a4,a4,a1
    5a26:	81fd                	srli	a1,a1,0x1f
    5a28:	00f65c63          	bge	a2,a5,5a40 <__fixdfsi+0x30>
    5a2c:	41d00613          	li	a2,1053
    5a30:	00f65a63          	bge	a2,a5,5a44 <__fixdfsi+0x34>
    5a34:	80000537          	lui	a0,0x80000
    5a38:	fff54513          	not	a0,a0
    5a3c:	952e                	add	a0,a0,a1
    5a3e:	8082                	ret
    5a40:	4501                	li	a0,0
    5a42:	8082                	ret
    5a44:	43300613          	li	a2,1075
    5a48:	8e1d                	sub	a2,a2,a5
    5a4a:	487d                	li	a6,31
    5a4c:	8f55                	or	a4,a4,a3
    5a4e:	00c85d63          	bge	a6,a2,5a68 <__fixdfsi+0x58>
    5a52:	41300693          	li	a3,1043
    5a56:	40f687b3          	sub	a5,a3,a5
    5a5a:	00f757b3          	srl	a5,a4,a5
    5a5e:	40f00533          	neg	a0,a5
    5a62:	f1e5                	bnez	a1,5a42 <__fixdfsi+0x32>
    5a64:	853e                	mv	a0,a5
    5a66:	8082                	ret
    5a68:	bed78793          	addi	a5,a5,-1043 # 7fbed <_data_lma+0x78981>
    5a6c:	00f717b3          	sll	a5,a4,a5
    5a70:	00c55533          	srl	a0,a0,a2
    5a74:	8fc9                	or	a5,a5,a0
    5a76:	b7e5                	j	5a5e <__fixdfsi+0x4e>

00005a78 <__floatsidf>:
    5a78:	1141                	addi	sp,sp,-16
    5a7a:	c606                	sw	ra,12(sp)
    5a7c:	c422                	sw	s0,8(sp)
    5a7e:	c226                	sw	s1,4(sp)
    5a80:	cd0d                	beqz	a0,5aba <__floatsidf+0x42>
    5a82:	41f55793          	srai	a5,a0,0x1f
    5a86:	00a7c4b3          	xor	s1,a5,a0
    5a8a:	8c9d                	sub	s1,s1,a5
    5a8c:	842a                	mv	s0,a0
    5a8e:	8526                	mv	a0,s1
    5a90:	7fa000ef          	jal	ra,628a <__clzsi2>
    5a94:	41e00693          	li	a3,1054
    5a98:	8e89                	sub	a3,a3,a0
    5a9a:	47a9                	li	a5,10
    5a9c:	807d                	srli	s0,s0,0x1f
    5a9e:	7ff6f693          	andi	a3,a3,2047
    5aa2:	02a7cd63          	blt	a5,a0,5adc <__floatsidf+0x64>
    5aa6:	472d                	li	a4,11
    5aa8:	8f09                	sub	a4,a4,a0
    5aaa:	00e4d7b3          	srl	a5,s1,a4
    5aae:	0555                	addi	a0,a0,21
    5ab0:	07b2                	slli	a5,a5,0xc
    5ab2:	00a494b3          	sll	s1,s1,a0
    5ab6:	83b1                	srli	a5,a5,0xc
    5ab8:	a029                	j	5ac2 <__floatsidf+0x4a>
    5aba:	4401                	li	s0,0
    5abc:	4681                	li	a3,0
    5abe:	4781                	li	a5,0
    5ac0:	4481                	li	s1,0
    5ac2:	07b2                	slli	a5,a5,0xc
    5ac4:	06d2                	slli	a3,a3,0x14
    5ac6:	83b1                	srli	a5,a5,0xc
    5ac8:	047e                	slli	s0,s0,0x1f
    5aca:	8fd5                	or	a5,a5,a3
    5acc:	8fc1                	or	a5,a5,s0
    5ace:	40b2                	lw	ra,12(sp)
    5ad0:	4422                	lw	s0,8(sp)
    5ad2:	8526                	mv	a0,s1
    5ad4:	85be                	mv	a1,a5
    5ad6:	4492                	lw	s1,4(sp)
    5ad8:	0141                	addi	sp,sp,16
    5ada:	8082                	ret
    5adc:	1555                	addi	a0,a0,-11
    5ade:	00a497b3          	sll	a5,s1,a0
    5ae2:	07b2                	slli	a5,a5,0xc
    5ae4:	83b1                	srli	a5,a5,0xc
    5ae6:	4481                	li	s1,0
    5ae8:	bfe9                	j	5ac2 <__floatsidf+0x4a>

00005aea <__fixdfdi>:
    5aea:	00100737          	lui	a4,0x100
    5aee:	0145d793          	srli	a5,a1,0x14
    5af2:	fff70693          	addi	a3,a4,-1 # fffff <_data_lma+0xf8d93>
    5af6:	7ff7f793          	andi	a5,a5,2047
    5afa:	3fe00813          	li	a6,1022
    5afe:	8eed                	and	a3,a3,a1
    5b00:	01f5d613          	srli	a2,a1,0x1f
    5b04:	02f85363          	bge	a6,a5,5b2a <__fixdfdi+0x40>
    5b08:	43d00593          	li	a1,1085
    5b0c:	02f5d263          	bge	a1,a5,5b30 <__fixdfdi+0x46>
    5b10:	4585                	li	a1,1
    5b12:	8d91                	sub	a1,a1,a2
    5b14:	40b00533          	neg	a0,a1
    5b18:	41f5d613          	srai	a2,a1,0x1f
    5b1c:	800005b7          	lui	a1,0x80000
    5b20:	00a037b3          	snez	a5,a0
    5b24:	8d91                	sub	a1,a1,a2
    5b26:	8d9d                	sub	a1,a1,a5
    5b28:	8082                	ret
    5b2a:	4501                	li	a0,0
    5b2c:	4581                	li	a1,0
    5b2e:	8082                	ret
    5b30:	43200813          	li	a6,1074
    5b34:	00e6e5b3          	or	a1,a3,a4
    5b38:	02f85463          	bge	a6,a5,5b60 <__fixdfdi+0x76>
    5b3c:	bad78713          	addi	a4,a5,-1107
    5b40:	bcd78793          	addi	a5,a5,-1075
    5b44:	04074563          	bltz	a4,5b8e <__fixdfdi+0xa4>
    5b48:	00e515b3          	sll	a1,a0,a4
    5b4c:	4501                	li	a0,0
    5b4e:	d265                	beqz	a2,5b2e <__fixdfdi+0x44>
    5b50:	40a00533          	neg	a0,a0
    5b54:	00a037b3          	snez	a5,a0
    5b58:	40b005b3          	neg	a1,a1
    5b5c:	8d9d                	sub	a1,a1,a5
    5b5e:	8082                	ret
    5b60:	43300693          	li	a3,1075
    5b64:	8e9d                	sub	a3,a3,a5
    5b66:	477d                	li	a4,31
    5b68:	00d74c63          	blt	a4,a3,5b80 <__fixdfdi+0x96>
    5b6c:	bed78713          	addi	a4,a5,-1043
    5b70:	00e59733          	sll	a4,a1,a4
    5b74:	00d55533          	srl	a0,a0,a3
    5b78:	8d59                	or	a0,a0,a4
    5b7a:	00d5d5b3          	srl	a1,a1,a3
    5b7e:	bfc1                	j	5b4e <__fixdfdi+0x64>
    5b80:	41300513          	li	a0,1043
    5b84:	8d1d                	sub	a0,a0,a5
    5b86:	00a5d533          	srl	a0,a1,a0
    5b8a:	4581                	li	a1,0
    5b8c:	b7c9                	j	5b4e <__fixdfdi+0x64>
    5b8e:	46fd                	li	a3,31
    5b90:	00155713          	srli	a4,a0,0x1
    5b94:	8e9d                	sub	a3,a3,a5
    5b96:	00d75733          	srl	a4,a4,a3
    5b9a:	00f595b3          	sll	a1,a1,a5
    5b9e:	8dd9                	or	a1,a1,a4
    5ba0:	00f51533          	sll	a0,a0,a5
    5ba4:	b76d                	j	5b4e <__fixdfdi+0x64>

00005ba6 <__floatdidf>:
    5ba6:	1101                	addi	sp,sp,-32
    5ba8:	ce06                	sw	ra,28(sp)
    5baa:	cc22                	sw	s0,24(sp)
    5bac:	ca26                	sw	s1,20(sp)
    5bae:	c84a                	sw	s2,16(sp)
    5bb0:	c64e                	sw	s3,12(sp)
    5bb2:	00b567b3          	or	a5,a0,a1
    5bb6:	cf95                	beqz	a5,5bf2 <__floatdidf+0x4c>
    5bb8:	84ae                	mv	s1,a1
    5bba:	89aa                	mv	s3,a0
    5bbc:	01f5d913          	srli	s2,a1,0x1f
    5bc0:	0405cd63          	bltz	a1,5c1a <__floatdidf+0x74>
    5bc4:	8426                	mv	s0,s1
    5bc6:	c4a5                	beqz	s1,5c2e <__floatdidf+0x88>
    5bc8:	8526                	mv	a0,s1
    5bca:	25c1                	jal	628a <__clzsi2>
    5bcc:	43e00693          	li	a3,1086
    5bd0:	8e89                	sub	a3,a3,a0
    5bd2:	43300793          	li	a5,1075
    5bd6:	08d7c963          	blt	a5,a3,5c68 <__floatdidf+0xc2>
    5bda:	00c49793          	slli	a5,s1,0xc
    5bde:	462d                	li	a2,11
    5be0:	874e                	mv	a4,s3
    5be2:	7ff6f693          	andi	a3,a3,2047
    5be6:	83b1                	srli	a5,a5,0xc
    5be8:	00a65963          	bge	a2,a0,5bfa <__floatdidf+0x54>
    5bec:	ff550613          	addi	a2,a0,-11 # 7ffffff5 <_eusrstack+0x5fff7ff5>
    5bf0:	a8b1                	j	5c4c <__floatdidf+0xa6>
    5bf2:	4901                	li	s2,0
    5bf4:	4681                	li	a3,0
    5bf6:	4781                	li	a5,0
    5bf8:	4701                	li	a4,0
    5bfa:	07b2                	slli	a5,a5,0xc
    5bfc:	40f2                	lw	ra,28(sp)
    5bfe:	4462                	lw	s0,24(sp)
    5c00:	06d2                	slli	a3,a3,0x14
    5c02:	83b1                	srli	a5,a5,0xc
    5c04:	097e                	slli	s2,s2,0x1f
    5c06:	8fd5                	or	a5,a5,a3
    5c08:	0127e7b3          	or	a5,a5,s2
    5c0c:	44d2                	lw	s1,20(sp)
    5c0e:	4942                	lw	s2,16(sp)
    5c10:	49b2                	lw	s3,12(sp)
    5c12:	853a                	mv	a0,a4
    5c14:	85be                	mv	a1,a5
    5c16:	6105                	addi	sp,sp,32
    5c18:	8082                	ret
    5c1a:	40a00533          	neg	a0,a0
    5c1e:	00a036b3          	snez	a3,a0
    5c22:	40b004b3          	neg	s1,a1
    5c26:	8c95                	sub	s1,s1,a3
    5c28:	89aa                	mv	s3,a0
    5c2a:	8426                	mv	s0,s1
    5c2c:	fcd1                	bnez	s1,5bc8 <__floatdidf+0x22>
    5c2e:	854e                	mv	a0,s3
    5c30:	2da9                	jal	628a <__clzsi2>
    5c32:	862a                	mv	a2,a0
    5c34:	43e00693          	li	a3,1086
    5c38:	02050513          	addi	a0,a0,32
    5c3c:	8e89                	sub	a3,a3,a0
    5c3e:	02a00793          	li	a5,42
    5c42:	7ff6f693          	andi	a3,a3,2047
    5c46:	0ca7c763          	blt	a5,a0,5d14 <__floatdidf+0x16e>
    5c4a:	0655                	addi	a2,a2,21
    5c4c:	02b00713          	li	a4,43
    5c50:	8f09                	sub	a4,a4,a0
    5c52:	00c497b3          	sll	a5,s1,a2
    5c56:	00e9d733          	srl	a4,s3,a4
    5c5a:	8f5d                	or	a4,a4,a5
    5c5c:	00c71793          	slli	a5,a4,0xc
    5c60:	83b1                	srli	a5,a5,0xc
    5c62:	00c99733          	sll	a4,s3,a2
    5c66:	bf51                	j	5bfa <__floatdidf+0x54>
    5c68:	43600793          	li	a5,1078
    5c6c:	02d7db63          	bge	a5,a3,5ca2 <__floatdidf+0xfc>
    5c70:	4721                	li	a4,8
    5c72:	8f09                	sub	a4,a4,a0
    5c74:	fe070593          	addi	a1,a4,-32
    5c78:	0c05c263          	bltz	a1,5d3c <__floatdidf+0x196>
    5c7c:	00b4d5b3          	srl	a1,s1,a1
    5c80:	4701                	li	a4,0
    5c82:	01850613          	addi	a2,a0,24
    5c86:	03850793          	addi	a5,a0,56
    5c8a:	08064c63          	bltz	a2,5d22 <__floatdidf+0x17c>
    5c8e:	00c99633          	sll	a2,s3,a2
    5c92:	4981                	li	s3,0
    5c94:	00c9e9b3          	or	s3,s3,a2
    5c98:	01303633          	snez	a2,s3
    5c9c:	00c5e9b3          	or	s3,a1,a2
    5ca0:	843a                	mv	s0,a4
    5ca2:	47a1                	li	a5,8
    5ca4:	864e                	mv	a2,s3
    5ca6:	04a7c963          	blt	a5,a0,5cf8 <__floatdidf+0x152>
    5caa:	ff8007b7          	lui	a5,0xff800
    5cae:	17fd                	addi	a5,a5,-1
    5cb0:	00767593          	andi	a1,a2,7
    5cb4:	00f47733          	and	a4,s0,a5
    5cb8:	c585                	beqz	a1,5ce0 <__floatdidf+0x13a>
    5cba:	00f67593          	andi	a1,a2,15
    5cbe:	4811                	li	a6,4
    5cc0:	03058063          	beq	a1,a6,5ce0 <__floatdidf+0x13a>
    5cc4:	00460593          	addi	a1,a2,4 # ff800004 <_eusrstack+0xdf7f8004>
    5cc8:	00c5b633          	sltu	a2,a1,a2
    5ccc:	9732                	add	a4,a4,a2
    5cce:	00871613          	slli	a2,a4,0x8
    5cd2:	08065163          	bgez	a2,5d54 <__floatdidf+0x1ae>
    5cd6:	43f00693          	li	a3,1087
    5cda:	8f7d                	and	a4,a4,a5
    5cdc:	8e89                	sub	a3,a3,a0
    5cde:	862e                	mv	a2,a1
    5ce0:	00365513          	srli	a0,a2,0x3
    5ce4:	00971793          	slli	a5,a4,0x9
    5ce8:	01d71613          	slli	a2,a4,0x1d
    5cec:	00a66733          	or	a4,a2,a0
    5cf0:	83b1                	srli	a5,a5,0xc
    5cf2:	7ff6f693          	andi	a3,a3,2047
    5cf6:	b711                	j	5bfa <__floatdidf+0x54>
    5cf8:	02800793          	li	a5,40
    5cfc:	ff850593          	addi	a1,a0,-8
    5d00:	8f89                	sub	a5,a5,a0
    5d02:	00f9d7b3          	srl	a5,s3,a5
    5d06:	00b41733          	sll	a4,s0,a1
    5d0a:	00e7e433          	or	s0,a5,a4
    5d0e:	00b99633          	sll	a2,s3,a1
    5d12:	bf61                	j	5caa <__floatdidf+0x104>
    5d14:	1655                	addi	a2,a2,-11
    5d16:	00c997b3          	sll	a5,s3,a2
    5d1a:	07b2                	slli	a5,a5,0xc
    5d1c:	83b1                	srli	a5,a5,0xc
    5d1e:	4701                	li	a4,0
    5d20:	bde9                	j	5bfa <__floatdidf+0x54>
    5d22:	467d                	li	a2,31
    5d24:	0019d813          	srli	a6,s3,0x1
    5d28:	8e1d                	sub	a2,a2,a5
    5d2a:	00c85833          	srl	a6,a6,a2
    5d2e:	00f49633          	sll	a2,s1,a5
    5d32:	00c86633          	or	a2,a6,a2
    5d36:	00f999b3          	sll	s3,s3,a5
    5d3a:	bfa9                	j	5c94 <__floatdidf+0xee>
    5d3c:	467d                	li	a2,31
    5d3e:	8e19                	sub	a2,a2,a4
    5d40:	00149793          	slli	a5,s1,0x1
    5d44:	00e9d5b3          	srl	a1,s3,a4
    5d48:	00c797b3          	sll	a5,a5,a2
    5d4c:	8ddd                	or	a1,a1,a5
    5d4e:	00e4d733          	srl	a4,s1,a4
    5d52:	bf05                	j	5c82 <__floatdidf+0xdc>
    5d54:	862e                	mv	a2,a1
    5d56:	b769                	j	5ce0 <__floatdidf+0x13a>

00005d58 <__divsf3>:
    5d58:	7139                	addi	sp,sp,-64
    5d5a:	01755793          	srli	a5,a0,0x17
    5d5e:	d84a                	sw	s2,48(sp)
    5d60:	d256                	sw	s5,36(sp)
    5d62:	ce5e                	sw	s7,28(sp)
    5d64:	00951a93          	slli	s5,a0,0x9
    5d68:	01f55913          	srli	s2,a0,0x1f
    5d6c:	de06                	sw	ra,60(sp)
    5d6e:	dc22                	sw	s0,56(sp)
    5d70:	da26                	sw	s1,52(sp)
    5d72:	d64e                	sw	s3,44(sp)
    5d74:	d452                	sw	s4,40(sp)
    5d76:	d05a                	sw	s6,32(sp)
    5d78:	0ff7f793          	andi	a5,a5,255
    5d7c:	009ada93          	srli	s5,s5,0x9
    5d80:	8bca                	mv	s7,s2
    5d82:	12078263          	beqz	a5,5ea6 <__divsf3+0x14e>
    5d86:	0ff00713          	li	a4,255
    5d8a:	12e78463          	beq	a5,a4,5eb2 <__divsf3+0x15a>
    5d8e:	0a8e                	slli	s5,s5,0x3
    5d90:	04000737          	lui	a4,0x4000
    5d94:	00eaeab3          	or	s5,s5,a4
    5d98:	f8178a13          	addi	s4,a5,-127 # ff7fff81 <_eusrstack+0xdf7f7f81>
    5d9c:	4401                	li	s0,0
    5d9e:	4b01                	li	s6,0
    5da0:	0175d793          	srli	a5,a1,0x17
    5da4:	00959493          	slli	s1,a1,0x9
    5da8:	0ff7f793          	andi	a5,a5,255
    5dac:	80a5                	srli	s1,s1,0x9
    5dae:	01f5d993          	srli	s3,a1,0x1f
    5db2:	c7fd                	beqz	a5,5ea0 <__divsf3+0x148>
    5db4:	0ff00713          	li	a4,255
    5db8:	02e78763          	beq	a5,a4,5de6 <__divsf3+0x8e>
    5dbc:	048e                	slli	s1,s1,0x3
    5dbe:	f8178793          	addi	a5,a5,-127
    5dc2:	04000737          	lui	a4,0x4000
    5dc6:	8cd9                	or	s1,s1,a4
    5dc8:	40fa0a33          	sub	s4,s4,a5
    5dcc:	4681                	li	a3,0
    5dce:	8c55                	or	s0,s0,a3
    5dd0:	00001717          	auipc	a4,0x1
    5dd4:	20870713          	addi	a4,a4,520 # 6fd8 <MySerNumInfo+0xa0>
    5dd8:	040a                	slli	s0,s0,0x2
    5dda:	943a                	add	s0,s0,a4
    5ddc:	401c                	lw	a5,0(s0)
    5dde:	01394933          	xor	s2,s2,s3
    5de2:	97ba                	add	a5,a5,a4
    5de4:	8782                	jr	a5
    5de6:	f01a0a13          	addi	s4,s4,-255
    5dea:	e8f9                	bnez	s1,5ec0 <__divsf3+0x168>
    5dec:	4689                	li	a3,2
    5dee:	8c55                	or	s0,s0,a3
    5df0:	00001717          	auipc	a4,0x1
    5df4:	22870713          	addi	a4,a4,552 # 7018 <MySerNumInfo+0xe0>
    5df8:	040a                	slli	s0,s0,0x2
    5dfa:	943a                	add	s0,s0,a4
    5dfc:	401c                	lw	a5,0(s0)
    5dfe:	01394933          	xor	s2,s2,s3
    5e02:	97ba                	add	a5,a5,a4
    5e04:	8782                	jr	a5
    5e06:	4901                	li	s2,0
    5e08:	0ff00713          	li	a4,255
    5e0c:	004007b7          	lui	a5,0x400
    5e10:	00979513          	slli	a0,a5,0x9
    5e14:	50f2                	lw	ra,60(sp)
    5e16:	5462                	lw	s0,56(sp)
    5e18:	01771793          	slli	a5,a4,0x17
    5e1c:	8125                	srli	a0,a0,0x9
    5e1e:	097e                	slli	s2,s2,0x1f
    5e20:	8d5d                	or	a0,a0,a5
    5e22:	01256533          	or	a0,a0,s2
    5e26:	54d2                	lw	s1,52(sp)
    5e28:	5942                	lw	s2,48(sp)
    5e2a:	59b2                	lw	s3,44(sp)
    5e2c:	5a22                	lw	s4,40(sp)
    5e2e:	5a92                	lw	s5,36(sp)
    5e30:	5b02                	lw	s6,32(sp)
    5e32:	4bf2                	lw	s7,28(sp)
    5e34:	6121                	addi	sp,sp,64
    5e36:	8082                	ret
    5e38:	0ff00713          	li	a4,255
    5e3c:	4781                	li	a5,0
    5e3e:	bfc9                	j	5e10 <__divsf3+0xb8>
    5e40:	8aa6                	mv	s5,s1
    5e42:	8bce                	mv	s7,s3
    5e44:	8b36                	mv	s6,a3
    5e46:	4789                	li	a5,2
    5e48:	1afb0963          	beq	s6,a5,5ffa <__divsf3+0x2a2>
    5e4c:	478d                	li	a5,3
    5e4e:	fafb0ce3          	beq	s6,a5,5e06 <__divsf3+0xae>
    5e52:	4785                	li	a5,1
    5e54:	0afb0863          	beq	s6,a5,5f04 <__divsf3+0x1ac>
    5e58:	07fa0713          	addi	a4,s4,127
    5e5c:	001bf913          	andi	s2,s7,1
    5e60:	12e05563          	blez	a4,5f8a <__divsf3+0x232>
    5e64:	007af793          	andi	a5,s5,7
    5e68:	c799                	beqz	a5,5e76 <__divsf3+0x11e>
    5e6a:	00faf793          	andi	a5,s5,15
    5e6e:	4691                	li	a3,4
    5e70:	00d78363          	beq	a5,a3,5e76 <__divsf3+0x11e>
    5e74:	0a91                	addi	s5,s5,4
    5e76:	004a9793          	slli	a5,s5,0x4
    5e7a:	0007d963          	bgez	a5,5e8c <__divsf3+0x134>
    5e7e:	f80007b7          	lui	a5,0xf8000
    5e82:	17fd                	addi	a5,a5,-1
    5e84:	00fafab3          	and	s5,s5,a5
    5e88:	080a0713          	addi	a4,s4,128
    5e8c:	0fe00793          	li	a5,254
    5e90:	fae7c4e3          	blt	a5,a4,5e38 <__divsf3+0xe0>
    5e94:	006a9793          	slli	a5,s5,0x6
    5e98:	83a5                	srli	a5,a5,0x9
    5e9a:	0ff77713          	andi	a4,a4,255
    5e9e:	bf8d                	j	5e10 <__divsf3+0xb8>
    5ea0:	e4b1                	bnez	s1,5eec <__divsf3+0x194>
    5ea2:	4685                	li	a3,1
    5ea4:	b7a9                	j	5dee <__divsf3+0x96>
    5ea6:	020a9463          	bnez	s5,5ece <__divsf3+0x176>
    5eaa:	4411                	li	s0,4
    5eac:	4a01                	li	s4,0
    5eae:	4b05                	li	s6,1
    5eb0:	bdc5                	j	5da0 <__divsf3+0x48>
    5eb2:	000a9963          	bnez	s5,5ec4 <__divsf3+0x16c>
    5eb6:	4421                	li	s0,8
    5eb8:	0ff00a13          	li	s4,255
    5ebc:	4b09                	li	s6,2
    5ebe:	b5cd                	j	5da0 <__divsf3+0x48>
    5ec0:	468d                	li	a3,3
    5ec2:	b731                	j	5dce <__divsf3+0x76>
    5ec4:	4431                	li	s0,12
    5ec6:	0ff00a13          	li	s4,255
    5eca:	4b0d                	li	s6,3
    5ecc:	bdd1                	j	5da0 <__divsf3+0x48>
    5ece:	8556                	mv	a0,s5
    5ed0:	c62e                	sw	a1,12(sp)
    5ed2:	2e65                	jal	628a <__clzsi2>
    5ed4:	ffb50793          	addi	a5,a0,-5
    5ed8:	00fa9ab3          	sll	s5,s5,a5
    5edc:	f8a00793          	li	a5,-118
    5ee0:	40a78a33          	sub	s4,a5,a0
    5ee4:	4401                	li	s0,0
    5ee6:	4b01                	li	s6,0
    5ee8:	45b2                	lw	a1,12(sp)
    5eea:	bd5d                	j	5da0 <__divsf3+0x48>
    5eec:	8526                	mv	a0,s1
    5eee:	2e71                	jal	628a <__clzsi2>
    5ef0:	ffb50713          	addi	a4,a0,-5
    5ef4:	00aa07b3          	add	a5,s4,a0
    5ef8:	00e494b3          	sll	s1,s1,a4
    5efc:	07678a13          	addi	s4,a5,118 # f8000076 <_eusrstack+0xd7ff8076>
    5f00:	4681                	li	a3,0
    5f02:	b5f1                	j	5dce <__divsf3+0x76>
    5f04:	001bf913          	andi	s2,s7,1
    5f08:	4701                	li	a4,0
    5f0a:	4781                	li	a5,0
    5f0c:	b711                	j	5e10 <__divsf3+0xb8>
    5f0e:	6641                	lui	a2,0x10
    5f10:	00549513          	slli	a0,s1,0x5
    5f14:	167d                	addi	a2,a2,-1
    5f16:	01055793          	srli	a5,a0,0x10
    5f1a:	8e69                	and	a2,a2,a0
    5f1c:	0a9afa63          	bgeu	s5,s1,5fd0 <__divsf3+0x278>
    5f20:	02fad5b3          	divu	a1,s5,a5
    5f24:	1a7d                	addi	s4,s4,-1
    5f26:	86d6                	mv	a3,s5
    5f28:	4701                	li	a4,0
    5f2a:	02c58833          	mul	a6,a1,a2
    5f2e:	02f6f6b3          	remu	a3,a3,a5
    5f32:	06c2                	slli	a3,a3,0x10
    5f34:	8f55                	or	a4,a4,a3
    5f36:	01077b63          	bgeu	a4,a6,5f4c <__divsf3+0x1f4>
    5f3a:	972a                	add	a4,a4,a0
    5f3c:	fff58693          	addi	a3,a1,-1 # 7fffffff <_eusrstack+0x5fff7fff>
    5f40:	0aa76863          	bltu	a4,a0,5ff0 <__divsf3+0x298>
    5f44:	0b077663          	bgeu	a4,a6,5ff0 <__divsf3+0x298>
    5f48:	15f9                	addi	a1,a1,-2
    5f4a:	972a                	add	a4,a4,a0
    5f4c:	41070733          	sub	a4,a4,a6
    5f50:	02f756b3          	divu	a3,a4,a5
    5f54:	02f77733          	remu	a4,a4,a5
    5f58:	02c68ab3          	mul	s5,a3,a2
    5f5c:	01071793          	slli	a5,a4,0x10
    5f60:	0157fb63          	bgeu	a5,s5,5f76 <__divsf3+0x21e>
    5f64:	97aa                	add	a5,a5,a0
    5f66:	fff68713          	addi	a4,a3,-1
    5f6a:	08a7e163          	bltu	a5,a0,5fec <__divsf3+0x294>
    5f6e:	0757ff63          	bgeu	a5,s5,5fec <__divsf3+0x294>
    5f72:	16f9                	addi	a3,a3,-2
    5f74:	97aa                	add	a5,a5,a0
    5f76:	05c2                	slli	a1,a1,0x10
    5f78:	41578ab3          	sub	s5,a5,s5
    5f7c:	8dd5                	or	a1,a1,a3
    5f7e:	01503ab3          	snez	s5,s5
    5f82:	0155eab3          	or	s5,a1,s5
    5f86:	8bca                	mv	s7,s2
    5f88:	bdc1                	j	5e58 <__divsf3+0x100>
    5f8a:	4685                	li	a3,1
    5f8c:	8e99                	sub	a3,a3,a4
    5f8e:	c711                	beqz	a4,5f9a <__divsf3+0x242>
    5f90:	466d                	li	a2,27
    5f92:	4701                	li	a4,0
    5f94:	4781                	li	a5,0
    5f96:	e6d64de3          	blt	a2,a3,5e10 <__divsf3+0xb8>
    5f9a:	09ea0a13          	addi	s4,s4,158
    5f9e:	014a9a33          	sll	s4,s5,s4
    5fa2:	00dad7b3          	srl	a5,s5,a3
    5fa6:	01403ab3          	snez	s5,s4
    5faa:	0157e7b3          	or	a5,a5,s5
    5fae:	0077f713          	andi	a4,a5,7
    5fb2:	c719                	beqz	a4,5fc0 <__divsf3+0x268>
    5fb4:	00f7f713          	andi	a4,a5,15
    5fb8:	4691                	li	a3,4
    5fba:	00d70363          	beq	a4,a3,5fc0 <__divsf3+0x268>
    5fbe:	0791                	addi	a5,a5,4
    5fc0:	00579713          	slli	a4,a5,0x5
    5fc4:	02074863          	bltz	a4,5ff4 <__divsf3+0x29c>
    5fc8:	079a                	slli	a5,a5,0x6
    5fca:	83a5                	srli	a5,a5,0x9
    5fcc:	4701                	li	a4,0
    5fce:	b589                	j	5e10 <__divsf3+0xb8>
    5fd0:	001ad693          	srli	a3,s5,0x1
    5fd4:	02f6d5b3          	divu	a1,a3,a5
    5fd8:	01fa9713          	slli	a4,s5,0x1f
    5fdc:	8341                	srli	a4,a4,0x10
    5fde:	02c58833          	mul	a6,a1,a2
    5fe2:	b7b1                	j	5f2e <__divsf3+0x1d6>
    5fe4:	8bce                	mv	s7,s3
    5fe6:	8b36                	mv	s6,a3
    5fe8:	4a81                	li	s5,0
    5fea:	bdb1                	j	5e46 <__divsf3+0xee>
    5fec:	86ba                	mv	a3,a4
    5fee:	b761                	j	5f76 <__divsf3+0x21e>
    5ff0:	85b6                	mv	a1,a3
    5ff2:	bfa9                	j	5f4c <__divsf3+0x1f4>
    5ff4:	4705                	li	a4,1
    5ff6:	4781                	li	a5,0
    5ff8:	bd21                	j	5e10 <__divsf3+0xb8>
    5ffa:	001bf913          	andi	s2,s7,1
    5ffe:	0ff00713          	li	a4,255
    6002:	4781                	li	a5,0
    6004:	b531                	j	5e10 <__divsf3+0xb8>

00006006 <__gesf2>:
    6006:	01755693          	srli	a3,a0,0x17
    600a:	008007b7          	lui	a5,0x800
    600e:	17fd                	addi	a5,a5,-1
    6010:	0175d613          	srli	a2,a1,0x17
    6014:	0ff6f693          	andi	a3,a3,255
    6018:	0ff00813          	li	a6,255
    601c:	00a7f8b3          	and	a7,a5,a0
    6020:	01f55713          	srli	a4,a0,0x1f
    6024:	8fed                	and	a5,a5,a1
    6026:	0ff67613          	andi	a2,a2,255
    602a:	81fd                	srli	a1,a1,0x1f
    602c:	03068163          	beq	a3,a6,604e <__gesf2+0x48>
    6030:	01060c63          	beq	a2,a6,6048 <__gesf2+0x42>
    6034:	e28d                	bnez	a3,6056 <__gesf2+0x50>
    6036:	e211                	bnez	a2,603a <__gesf2+0x34>
    6038:	c3b1                	beqz	a5,607c <__gesf2+0x76>
    603a:	02088e63          	beqz	a7,6076 <__gesf2+0x70>
    603e:	04b70563          	beq	a4,a1,6088 <__gesf2+0x82>
    6042:	4505                	li	a0,1
    6044:	e71d                	bnez	a4,6072 <__gesf2+0x6c>
    6046:	8082                	ret
    6048:	d7f5                	beqz	a5,6034 <__gesf2+0x2e>
    604a:	5579                	li	a0,-2
    604c:	8082                	ret
    604e:	fe089ee3          	bnez	a7,604a <__gesf2+0x44>
    6052:	02d60963          	beq	a2,a3,6084 <__gesf2+0x7e>
    6056:	e211                	bnez	a2,605a <__gesf2+0x54>
    6058:	d7ed                	beqz	a5,6042 <__gesf2+0x3c>
    605a:	feb714e3          	bne	a4,a1,6042 <__gesf2+0x3c>
    605e:	fed642e3          	blt	a2,a3,6042 <__gesf2+0x3c>
    6062:	00c6c763          	blt	a3,a2,6070 <__gesf2+0x6a>
    6066:	fd17eee3          	bltu	a5,a7,6042 <__gesf2+0x3c>
    606a:	4501                	li	a0,0
    606c:	fcf8fde3          	bgeu	a7,a5,6046 <__gesf2+0x40>
    6070:	e701                	bnez	a4,6078 <__gesf2+0x72>
    6072:	557d                	li	a0,-1
    6074:	8082                	ret
    6076:	ddf5                	beqz	a1,6072 <__gesf2+0x6c>
    6078:	4505                	li	a0,1
    607a:	8082                	ret
    607c:	4501                	li	a0,0
    607e:	fc0892e3          	bnez	a7,6042 <__gesf2+0x3c>
    6082:	8082                	ret
    6084:	dbf9                	beqz	a5,605a <__gesf2+0x54>
    6086:	b7d1                	j	604a <__gesf2+0x44>
    6088:	4681                	li	a3,0
    608a:	bfe1                	j	6062 <__gesf2+0x5c>

0000608c <__lesf2>:
    608c:	01755693          	srli	a3,a0,0x17
    6090:	008007b7          	lui	a5,0x800
    6094:	17fd                	addi	a5,a5,-1
    6096:	0175d613          	srli	a2,a1,0x17
    609a:	0ff6f693          	andi	a3,a3,255
    609e:	0ff00813          	li	a6,255
    60a2:	00a7f8b3          	and	a7,a5,a0
    60a6:	01f55713          	srli	a4,a0,0x1f
    60aa:	8fed                	and	a5,a5,a1
    60ac:	0ff67613          	andi	a2,a2,255
    60b0:	81fd                	srli	a1,a1,0x1f
    60b2:	03068763          	beq	a3,a6,60e0 <__lesf2+0x54>
    60b6:	01060963          	beq	a2,a6,60c8 <__lesf2+0x3c>
    60ba:	ea85                	bnez	a3,60ea <__lesf2+0x5e>
    60bc:	ea11                	bnez	a2,60d0 <__lesf2+0x44>
    60be:	eb89                	bnez	a5,60d0 <__lesf2+0x44>
    60c0:	4501                	li	a0,0
    60c2:	00089b63          	bnez	a7,60d8 <__lesf2+0x4c>
    60c6:	8082                	ret
    60c8:	4509                	li	a0,2
    60ca:	fff5                	bnez	a5,60c6 <__lesf2+0x3a>
    60cc:	dae5                	beqz	a3,60bc <__lesf2+0x30>
    60ce:	a831                	j	60ea <__lesf2+0x5e>
    60d0:	02088c63          	beqz	a7,6108 <__lesf2+0x7c>
    60d4:	04b70063          	beq	a4,a1,6114 <__lesf2+0x88>
    60d8:	4505                	li	a0,1
    60da:	d775                	beqz	a4,60c6 <__lesf2+0x3a>
    60dc:	557d                	li	a0,-1
    60de:	8082                	ret
    60e0:	4509                	li	a0,2
    60e2:	02089863          	bnez	a7,6112 <__lesf2+0x86>
    60e6:	02d60463          	beq	a2,a3,610e <__lesf2+0x82>
    60ea:	e211                	bnez	a2,60ee <__lesf2+0x62>
    60ec:	d7f5                	beqz	a5,60d8 <__lesf2+0x4c>
    60ee:	feb715e3          	bne	a4,a1,60d8 <__lesf2+0x4c>
    60f2:	fed643e3          	blt	a2,a3,60d8 <__lesf2+0x4c>
    60f6:	00c6c763          	blt	a3,a2,6104 <__lesf2+0x78>
    60fa:	fd17efe3          	bltu	a5,a7,60d8 <__lesf2+0x4c>
    60fe:	4501                	li	a0,0
    6100:	fcf8f3e3          	bgeu	a7,a5,60c6 <__lesf2+0x3a>
    6104:	e319                	bnez	a4,610a <__lesf2+0x7e>
    6106:	bfd9                	j	60dc <__lesf2+0x50>
    6108:	d9f1                	beqz	a1,60dc <__lesf2+0x50>
    610a:	4505                	li	a0,1
    610c:	8082                	ret
    610e:	d3e5                	beqz	a5,60ee <__lesf2+0x62>
    6110:	8082                	ret
    6112:	8082                	ret
    6114:	4681                	li	a3,0
    6116:	b7c5                	j	60f6 <__lesf2+0x6a>

00006118 <__floatsisf>:
    6118:	1141                	addi	sp,sp,-16
    611a:	c606                	sw	ra,12(sp)
    611c:	c422                	sw	s0,8(sp)
    611e:	c226                	sw	s1,4(sp)
    6120:	cd0d                	beqz	a0,615a <__floatsisf+0x42>
    6122:	41f55793          	srai	a5,a0,0x1f
    6126:	00a7c433          	xor	s0,a5,a0
    612a:	8c1d                	sub	s0,s0,a5
    612c:	84aa                	mv	s1,a0
    612e:	8522                	mv	a0,s0
    6130:	2aa9                	jal	628a <__clzsi2>
    6132:	09e00793          	li	a5,158
    6136:	40a78733          	sub	a4,a5,a0
    613a:	09600793          	li	a5,150
    613e:	80fd                	srli	s1,s1,0x1f
    6140:	02e7cc63          	blt	a5,a4,6178 <__floatsisf+0x60>
    6144:	46a1                	li	a3,8
    6146:	0ff77793          	andi	a5,a4,255
    614a:	00a6d563          	bge	a3,a0,6154 <__floatsisf+0x3c>
    614e:	1561                	addi	a0,a0,-8
    6150:	00a41433          	sll	s0,s0,a0
    6154:	0426                	slli	s0,s0,0x9
    6156:	8025                	srli	s0,s0,0x9
    6158:	a021                	j	6160 <__floatsisf+0x48>
    615a:	4481                	li	s1,0
    615c:	4781                	li	a5,0
    615e:	4401                	li	s0,0
    6160:	0426                	slli	s0,s0,0x9
    6162:	00945513          	srli	a0,s0,0x9
    6166:	40b2                	lw	ra,12(sp)
    6168:	4422                	lw	s0,8(sp)
    616a:	07de                	slli	a5,a5,0x17
    616c:	04fe                	slli	s1,s1,0x1f
    616e:	8d5d                	or	a0,a0,a5
    6170:	8d45                	or	a0,a0,s1
    6172:	4492                	lw	s1,4(sp)
    6174:	0141                	addi	sp,sp,16
    6176:	8082                	ret
    6178:	09900793          	li	a5,153
    617c:	00e7dd63          	bge	a5,a4,6196 <__floatsisf+0x7e>
    6180:	01b50793          	addi	a5,a0,27
    6184:	4695                	li	a3,5
    6186:	00f417b3          	sll	a5,s0,a5
    618a:	8e89                	sub	a3,a3,a0
    618c:	00d45433          	srl	s0,s0,a3
    6190:	00f037b3          	snez	a5,a5
    6194:	8c5d                	or	s0,s0,a5
    6196:	4795                	li	a5,5
    6198:	00a7d663          	bge	a5,a0,61a4 <__floatsisf+0x8c>
    619c:	ffb50793          	addi	a5,a0,-5
    61a0:	00f41433          	sll	s0,s0,a5
    61a4:	fc0006b7          	lui	a3,0xfc000
    61a8:	16fd                	addi	a3,a3,-1
    61aa:	00747793          	andi	a5,s0,7
    61ae:	00d47633          	and	a2,s0,a3
    61b2:	c385                	beqz	a5,61d2 <__floatsisf+0xba>
    61b4:	00f47793          	andi	a5,s0,15
    61b8:	4591                	li	a1,4
    61ba:	00b78c63          	beq	a5,a1,61d2 <__floatsisf+0xba>
    61be:	0611                	addi	a2,a2,4
    61c0:	00561793          	slli	a5,a2,0x5
    61c4:	0007d763          	bgez	a5,61d2 <__floatsisf+0xba>
    61c8:	09f00793          	li	a5,159
    61cc:	8e75                	and	a2,a2,a3
    61ce:	40a78733          	sub	a4,a5,a0
    61d2:	00661413          	slli	s0,a2,0x6
    61d6:	8025                	srli	s0,s0,0x9
    61d8:	0ff77793          	andi	a5,a4,255
    61dc:	b751                	j	6160 <__floatsisf+0x48>

000061de <__extendsfdf2>:
    61de:	01755713          	srli	a4,a0,0x17
    61e2:	0ff77713          	andi	a4,a4,255
    61e6:	1141                	addi	sp,sp,-16
    61e8:	00170793          	addi	a5,a4,1
    61ec:	c422                	sw	s0,8(sp)
    61ee:	c226                	sw	s1,4(sp)
    61f0:	00951413          	slli	s0,a0,0x9
    61f4:	c606                	sw	ra,12(sp)
    61f6:	0fe7f793          	andi	a5,a5,254
    61fa:	8025                	srli	s0,s0,0x9
    61fc:	01f55493          	srli	s1,a0,0x1f
    6200:	c785                	beqz	a5,6228 <__extendsfdf2+0x4a>
    6202:	00345793          	srli	a5,s0,0x3
    6206:	38070713          	addi	a4,a4,896
    620a:	0476                	slli	s0,s0,0x1d
    620c:	07b2                	slli	a5,a5,0xc
    620e:	0752                	slli	a4,a4,0x14
    6210:	83b1                	srli	a5,a5,0xc
    6212:	01f49513          	slli	a0,s1,0x1f
    6216:	8fd9                	or	a5,a5,a4
    6218:	8fc9                	or	a5,a5,a0
    621a:	40b2                	lw	ra,12(sp)
    621c:	8522                	mv	a0,s0
    621e:	4422                	lw	s0,8(sp)
    6220:	4492                	lw	s1,4(sp)
    6222:	85be                	mv	a1,a5
    6224:	0141                	addi	sp,sp,16
    6226:	8082                	ret
    6228:	eb05                	bnez	a4,6258 <__extendsfdf2+0x7a>
    622a:	c439                	beqz	s0,6278 <__extendsfdf2+0x9a>
    622c:	8522                	mv	a0,s0
    622e:	28b1                	jal	628a <__clzsi2>
    6230:	47a9                	li	a5,10
    6232:	04a7c663          	blt	a5,a0,627e <__extendsfdf2+0xa0>
    6236:	472d                	li	a4,11
    6238:	8f09                	sub	a4,a4,a0
    623a:	01550793          	addi	a5,a0,21
    623e:	00e45733          	srl	a4,s0,a4
    6242:	00f41433          	sll	s0,s0,a5
    6246:	00c71793          	slli	a5,a4,0xc
    624a:	38900713          	li	a4,905
    624e:	8f09                	sub	a4,a4,a0
    6250:	83b1                	srli	a5,a5,0xc
    6252:	7ff77713          	andi	a4,a4,2047
    6256:	bf5d                	j	620c <__extendsfdf2+0x2e>
    6258:	cc01                	beqz	s0,6270 <__extendsfdf2+0x92>
    625a:	00345713          	srli	a4,s0,0x3
    625e:	000807b7          	lui	a5,0x80
    6262:	8fd9                	or	a5,a5,a4
    6264:	07b2                	slli	a5,a5,0xc
    6266:	0476                	slli	s0,s0,0x1d
    6268:	83b1                	srli	a5,a5,0xc
    626a:	7ff00713          	li	a4,2047
    626e:	bf79                	j	620c <__extendsfdf2+0x2e>
    6270:	7ff00713          	li	a4,2047
    6274:	4781                	li	a5,0
    6276:	bf59                	j	620c <__extendsfdf2+0x2e>
    6278:	4701                	li	a4,0
    627a:	4781                	li	a5,0
    627c:	bf41                	j	620c <__extendsfdf2+0x2e>
    627e:	ff550713          	addi	a4,a0,-11
    6282:	00e41733          	sll	a4,s0,a4
    6286:	4401                	li	s0,0
    6288:	bf7d                	j	6246 <__extendsfdf2+0x68>

0000628a <__clzsi2>:
    628a:	67c1                	lui	a5,0x10
    628c:	02f57c63          	bgeu	a0,a5,62c4 <__clzsi2+0x3a>
    6290:	0ff00793          	li	a5,255
    6294:	02000713          	li	a4,32
    6298:	00a7eb63          	bltu	a5,a0,62ae <__clzsi2+0x24>
    629c:	00001797          	auipc	a5,0x1
    62a0:	dbc78793          	addi	a5,a5,-580 # 7058 <__clz_tab>
    62a4:	97aa                	add	a5,a5,a0
    62a6:	2388                	lbu	a0,0(a5)
    62a8:	40a70533          	sub	a0,a4,a0
    62ac:	8082                	ret
    62ae:	8121                	srli	a0,a0,0x8
    62b0:	00001797          	auipc	a5,0x1
    62b4:	da878793          	addi	a5,a5,-600 # 7058 <__clz_tab>
    62b8:	97aa                	add	a5,a5,a0
    62ba:	2388                	lbu	a0,0(a5)
    62bc:	4761                	li	a4,24
    62be:	40a70533          	sub	a0,a4,a0
    62c2:	8082                	ret
    62c4:	010007b7          	lui	a5,0x1000
    62c8:	00f56d63          	bltu	a0,a5,62e2 <__clzsi2+0x58>
    62cc:	8161                	srli	a0,a0,0x18
    62ce:	00001797          	auipc	a5,0x1
    62d2:	d8a78793          	addi	a5,a5,-630 # 7058 <__clz_tab>
    62d6:	97aa                	add	a5,a5,a0
    62d8:	2388                	lbu	a0,0(a5)
    62da:	4721                	li	a4,8
    62dc:	40a70533          	sub	a0,a4,a0
    62e0:	8082                	ret
    62e2:	8141                	srli	a0,a0,0x10
    62e4:	00001797          	auipc	a5,0x1
    62e8:	d7478793          	addi	a5,a5,-652 # 7058 <__clz_tab>
    62ec:	97aa                	add	a5,a5,a0
    62ee:	2388                	lbu	a0,0(a5)
    62f0:	4741                	li	a4,16
    62f2:	40a70533          	sub	a0,a4,a0
    62f6:	8082                	ret

000062f8 <atoi>:
    62f8:	4629                	li	a2,10
    62fa:	4581                	li	a1,0
    62fc:	a939                	j	671a <strtol>

000062fe <__locale_ctype_ptr_l>:
    62fe:	0ec52503          	lw	a0,236(a0)
    6302:	8082                	ret

00006304 <__locale_ctype_ptr>:
    6304:	81c18793          	addi	a5,gp,-2020 # 20000224 <_impure_ptr>
    6308:	439c                	lw	a5,0(a5)
    630a:	539c                	lw	a5,32(a5)
    630c:	e789                	bnez	a5,6316 <__locale_ctype_ptr+0x12>
    630e:	1fffa797          	auipc	a5,0x1fffa
    6312:	d2a78793          	addi	a5,a5,-726 # 20000038 <__global_locale>
    6316:	0ec7a503          	lw	a0,236(a5)
    631a:	8082                	ret

0000631c <malloc>:
    631c:	81c18793          	addi	a5,gp,-2020 # 20000224 <_impure_ptr>
    6320:	85aa                	mv	a1,a0
    6322:	4388                	lw	a0,0(a5)
    6324:	aa51                	j	64b8 <_malloc_r>

00006326 <free>:
    6326:	81c18793          	addi	a5,gp,-2020 # 20000224 <_impure_ptr>
    632a:	85aa                	mv	a1,a0
    632c:	4388                	lw	a0,0(a5)
    632e:	a0dd                	j	6414 <_free_r>

00006330 <__ascii_mbtowc>:
    6330:	ed91                	bnez	a1,634c <__ascii_mbtowc+0x1c>
    6332:	1141                	addi	sp,sp,-16
    6334:	006c                	addi	a1,sp,12
    6336:	4501                	li	a0,0
    6338:	ca01                	beqz	a2,6348 <__ascii_mbtowc+0x18>
    633a:	5579                	li	a0,-2
    633c:	c691                	beqz	a3,6348 <__ascii_mbtowc+0x18>
    633e:	221c                	lbu	a5,0(a2)
    6340:	c19c                	sw	a5,0(a1)
    6342:	2208                	lbu	a0,0(a2)
    6344:	00a03533          	snez	a0,a0
    6348:	0141                	addi	sp,sp,16
    634a:	8082                	ret
    634c:	4501                	li	a0,0
    634e:	ca09                	beqz	a2,6360 <__ascii_mbtowc+0x30>
    6350:	5579                	li	a0,-2
    6352:	c699                	beqz	a3,6360 <__ascii_mbtowc+0x30>
    6354:	221c                	lbu	a5,0(a2)
    6356:	c19c                	sw	a5,0(a1)
    6358:	2208                	lbu	a0,0(a2)
    635a:	00a03533          	snez	a0,a0
    635e:	8082                	ret
    6360:	8082                	ret

00006362 <memcpy>:
    6362:	00a5c7b3          	xor	a5,a1,a0
    6366:	8b8d                	andi	a5,a5,3
    6368:	00c50733          	add	a4,a0,a2
    636c:	e781                	bnez	a5,6374 <memcpy+0x12>
    636e:	478d                	li	a5,3
    6370:	00c7ed63          	bltu	a5,a2,638a <memcpy+0x28>
    6374:	87aa                	mv	a5,a0
    6376:	08e57e63          	bgeu	a0,a4,6412 <memcpy+0xb0>
    637a:	2194                	lbu	a3,0(a1)
    637c:	0785                	addi	a5,a5,1
    637e:	0585                	addi	a1,a1,1
    6380:	fed78fa3          	sb	a3,-1(a5)
    6384:	fee7ebe3          	bltu	a5,a4,637a <memcpy+0x18>
    6388:	8082                	ret
    638a:	00357693          	andi	a3,a0,3
    638e:	87aa                	mv	a5,a0
    6390:	ca89                	beqz	a3,63a2 <memcpy+0x40>
    6392:	2194                	lbu	a3,0(a1)
    6394:	0785                	addi	a5,a5,1
    6396:	0585                	addi	a1,a1,1
    6398:	fed78fa3          	sb	a3,-1(a5)
    639c:	0037f693          	andi	a3,a5,3
    63a0:	bfc5                	j	6390 <memcpy+0x2e>
    63a2:	ffc77693          	andi	a3,a4,-4
    63a6:	fe068613          	addi	a2,a3,-32 # fbffffe0 <_eusrstack+0xdbff7fe0>
    63aa:	06c7f063          	bgeu	a5,a2,640a <memcpy+0xa8>
    63ae:	0005a383          	lw	t2,0(a1)
    63b2:	0045a283          	lw	t0,4(a1)
    63b6:	0085af83          	lw	t6,8(a1)
    63ba:	00c5af03          	lw	t5,12(a1)
    63be:	0105ae83          	lw	t4,16(a1)
    63c2:	0145ae03          	lw	t3,20(a1)
    63c6:	0185a303          	lw	t1,24(a1)
    63ca:	01c5a883          	lw	a7,28(a1)
    63ce:	02458593          	addi	a1,a1,36
    63d2:	0077a023          	sw	t2,0(a5)
    63d6:	ffc5a803          	lw	a6,-4(a1)
    63da:	0057a223          	sw	t0,4(a5)
    63de:	01f7a423          	sw	t6,8(a5)
    63e2:	01e7a623          	sw	t5,12(a5)
    63e6:	01d7a823          	sw	t4,16(a5)
    63ea:	01c7aa23          	sw	t3,20(a5)
    63ee:	0067ac23          	sw	t1,24(a5)
    63f2:	0117ae23          	sw	a7,28(a5)
    63f6:	02478793          	addi	a5,a5,36
    63fa:	ff07ae23          	sw	a6,-4(a5)
    63fe:	b775                	j	63aa <memcpy+0x48>
    6400:	4190                	lw	a2,0(a1)
    6402:	0791                	addi	a5,a5,4
    6404:	0591                	addi	a1,a1,4
    6406:	fec7ae23          	sw	a2,-4(a5)
    640a:	fed7ebe3          	bltu	a5,a3,6400 <memcpy+0x9e>
    640e:	f6e7e6e3          	bltu	a5,a4,637a <memcpy+0x18>
    6412:	8082                	ret

00006414 <_free_r>:
    6414:	c1cd                	beqz	a1,64b6 <_free_r+0xa2>
    6416:	ffc5a783          	lw	a5,-4(a1)
    641a:	1141                	addi	sp,sp,-16
    641c:	c422                	sw	s0,8(sp)
    641e:	c606                	sw	ra,12(sp)
    6420:	c226                	sw	s1,4(sp)
    6422:	ffc58413          	addi	s0,a1,-4
    6426:	0007d363          	bgez	a5,642c <_free_r+0x18>
    642a:	943e                	add	s0,s0,a5
    642c:	84aa                	mv	s1,a0
    642e:	2625                	jal	6756 <__malloc_lock>
    6430:	89418793          	addi	a5,gp,-1900 # 2000029c <__malloc_free_list>
    6434:	439c                	lw	a5,0(a5)
    6436:	eb99                	bnez	a5,644c <_free_r+0x38>
    6438:	00042223          	sw	zero,4(s0) # 80004 <_data_lma+0x78d98>
    643c:	8881aa23          	sw	s0,-1900(gp) # 2000029c <__malloc_free_list>
    6440:	4422                	lw	s0,8(sp)
    6442:	40b2                	lw	ra,12(sp)
    6444:	8526                	mv	a0,s1
    6446:	4492                	lw	s1,4(sp)
    6448:	0141                	addi	sp,sp,16
    644a:	a639                	j	6758 <__malloc_unlock>
    644c:	00f47e63          	bgeu	s0,a5,6468 <_free_r+0x54>
    6450:	4014                	lw	a3,0(s0)
    6452:	00d40733          	add	a4,s0,a3
    6456:	00e79663          	bne	a5,a4,6462 <_free_r+0x4e>
    645a:	4398                	lw	a4,0(a5)
    645c:	43dc                	lw	a5,4(a5)
    645e:	9736                	add	a4,a4,a3
    6460:	c018                	sw	a4,0(s0)
    6462:	c05c                	sw	a5,4(s0)
    6464:	bfe1                	j	643c <_free_r+0x28>
    6466:	87ba                	mv	a5,a4
    6468:	43d8                	lw	a4,4(a5)
    646a:	c319                	beqz	a4,6470 <_free_r+0x5c>
    646c:	fee47de3          	bgeu	s0,a4,6466 <_free_r+0x52>
    6470:	4394                	lw	a3,0(a5)
    6472:	00d78633          	add	a2,a5,a3
    6476:	00861f63          	bne	a2,s0,6494 <_free_r+0x80>
    647a:	4010                	lw	a2,0(s0)
    647c:	96b2                	add	a3,a3,a2
    647e:	c394                	sw	a3,0(a5)
    6480:	00d78633          	add	a2,a5,a3
    6484:	fac71ee3          	bne	a4,a2,6440 <_free_r+0x2c>
    6488:	4310                	lw	a2,0(a4)
    648a:	4358                	lw	a4,4(a4)
    648c:	96b2                	add	a3,a3,a2
    648e:	c394                	sw	a3,0(a5)
    6490:	c3d8                	sw	a4,4(a5)
    6492:	b77d                	j	6440 <_free_r+0x2c>
    6494:	00c47563          	bgeu	s0,a2,649e <_free_r+0x8a>
    6498:	47b1                	li	a5,12
    649a:	c09c                	sw	a5,0(s1)
    649c:	b755                	j	6440 <_free_r+0x2c>
    649e:	4010                	lw	a2,0(s0)
    64a0:	00c406b3          	add	a3,s0,a2
    64a4:	00d71663          	bne	a4,a3,64b0 <_free_r+0x9c>
    64a8:	4314                	lw	a3,0(a4)
    64aa:	4358                	lw	a4,4(a4)
    64ac:	96b2                	add	a3,a3,a2
    64ae:	c014                	sw	a3,0(s0)
    64b0:	c058                	sw	a4,4(s0)
    64b2:	c3c0                	sw	s0,4(a5)
    64b4:	b771                	j	6440 <_free_r+0x2c>
    64b6:	8082                	ret

000064b8 <_malloc_r>:
    64b8:	1101                	addi	sp,sp,-32
    64ba:	ca26                	sw	s1,20(sp)
    64bc:	00358493          	addi	s1,a1,3
    64c0:	98f1                	andi	s1,s1,-4
    64c2:	ce06                	sw	ra,28(sp)
    64c4:	cc22                	sw	s0,24(sp)
    64c6:	c84a                	sw	s2,16(sp)
    64c8:	c64e                	sw	s3,12(sp)
    64ca:	04a1                	addi	s1,s1,8
    64cc:	47b1                	li	a5,12
    64ce:	04f4f163          	bgeu	s1,a5,6510 <_malloc_r+0x58>
    64d2:	44b1                	li	s1,12
    64d4:	04b4e063          	bltu	s1,a1,6514 <_malloc_r+0x5c>
    64d8:	892a                	mv	s2,a0
    64da:	2cb5                	jal	6756 <__malloc_lock>
    64dc:	89418793          	addi	a5,gp,-1900 # 2000029c <__malloc_free_list>
    64e0:	4398                	lw	a4,0(a5)
    64e2:	843a                	mv	s0,a4
    64e4:	e031                	bnez	s0,6528 <_malloc_r+0x70>
    64e6:	89818793          	addi	a5,gp,-1896 # 200002a0 <__malloc_sbrk_start>
    64ea:	439c                	lw	a5,0(a5)
    64ec:	e791                	bnez	a5,64f8 <_malloc_r+0x40>
    64ee:	4581                	li	a1,0
    64f0:	854a                	mv	a0,s2
    64f2:	2851                	jal	6586 <_sbrk_r>
    64f4:	88a1ac23          	sw	a0,-1896(gp) # 200002a0 <__malloc_sbrk_start>
    64f8:	85a6                	mv	a1,s1
    64fa:	854a                	mv	a0,s2
    64fc:	2069                	jal	6586 <_sbrk_r>
    64fe:	59fd                	li	s3,-1
    6500:	07351763          	bne	a0,s3,656e <_malloc_r+0xb6>
    6504:	47b1                	li	a5,12
    6506:	00f92023          	sw	a5,0(s2) # 800000 <_data_lma+0x7f8d94>
    650a:	854a                	mv	a0,s2
    650c:	24b1                	jal	6758 <__malloc_unlock>
    650e:	a029                	j	6518 <_malloc_r+0x60>
    6510:	fc04d2e3          	bgez	s1,64d4 <_malloc_r+0x1c>
    6514:	47b1                	li	a5,12
    6516:	c11c                	sw	a5,0(a0)
    6518:	4501                	li	a0,0
    651a:	40f2                	lw	ra,28(sp)
    651c:	4462                	lw	s0,24(sp)
    651e:	44d2                	lw	s1,20(sp)
    6520:	4942                	lw	s2,16(sp)
    6522:	49b2                	lw	s3,12(sp)
    6524:	6105                	addi	sp,sp,32
    6526:	8082                	ret
    6528:	401c                	lw	a5,0(s0)
    652a:	8f85                	sub	a5,a5,s1
    652c:	0207ce63          	bltz	a5,6568 <_malloc_r+0xb0>
    6530:	46ad                	li	a3,11
    6532:	00f6f663          	bgeu	a3,a5,653e <_malloc_r+0x86>
    6536:	c01c                	sw	a5,0(s0)
    6538:	943e                	add	s0,s0,a5
    653a:	c004                	sw	s1,0(s0)
    653c:	a031                	j	6548 <_malloc_r+0x90>
    653e:	405c                	lw	a5,4(s0)
    6540:	02871263          	bne	a4,s0,6564 <_malloc_r+0xac>
    6544:	88f1aa23          	sw	a5,-1900(gp) # 2000029c <__malloc_free_list>
    6548:	854a                	mv	a0,s2
    654a:	2439                	jal	6758 <__malloc_unlock>
    654c:	00b40513          	addi	a0,s0,11
    6550:	00440793          	addi	a5,s0,4
    6554:	9961                	andi	a0,a0,-8
    6556:	40f50733          	sub	a4,a0,a5
    655a:	d361                	beqz	a4,651a <_malloc_r+0x62>
    655c:	943a                	add	s0,s0,a4
    655e:	8f89                	sub	a5,a5,a0
    6560:	c01c                	sw	a5,0(s0)
    6562:	bf65                	j	651a <_malloc_r+0x62>
    6564:	c35c                	sw	a5,4(a4)
    6566:	b7cd                	j	6548 <_malloc_r+0x90>
    6568:	8722                	mv	a4,s0
    656a:	4040                	lw	s0,4(s0)
    656c:	bfa5                	j	64e4 <_malloc_r+0x2c>
    656e:	00350413          	addi	s0,a0,3
    6572:	9871                	andi	s0,s0,-4
    6574:	fc8503e3          	beq	a0,s0,653a <_malloc_r+0x82>
    6578:	40a405b3          	sub	a1,s0,a0
    657c:	854a                	mv	a0,s2
    657e:	2021                	jal	6586 <_sbrk_r>
    6580:	fb351de3          	bne	a0,s3,653a <_malloc_r+0x82>
    6584:	b741                	j	6504 <_malloc_r+0x4c>

00006586 <_sbrk_r>:
    6586:	1141                	addi	sp,sp,-16
    6588:	c422                	sw	s0,8(sp)
    658a:	842a                	mv	s0,a0
    658c:	852e                	mv	a0,a1
    658e:	1fffb797          	auipc	a5,0x1fffb
    6592:	5207a123          	sw	zero,1314(a5) # 20001ab0 <errno>
    6596:	c606                	sw	ra,12(sp)
    6598:	b77fc0ef          	jal	ra,310e <_sbrk>
    659c:	57fd                	li	a5,-1
    659e:	00f51963          	bne	a0,a5,65b0 <_sbrk_r+0x2a>
    65a2:	1fffb797          	auipc	a5,0x1fffb
    65a6:	50e78793          	addi	a5,a5,1294 # 20001ab0 <errno>
    65aa:	439c                	lw	a5,0(a5)
    65ac:	c391                	beqz	a5,65b0 <_sbrk_r+0x2a>
    65ae:	c01c                	sw	a5,0(s0)
    65b0:	40b2                	lw	ra,12(sp)
    65b2:	4422                	lw	s0,8(sp)
    65b4:	0141                	addi	sp,sp,16
    65b6:	8082                	ret

000065b8 <strncmp>:
    65b8:	c215                	beqz	a2,65dc <strncmp+0x24>
    65ba:	167d                	addi	a2,a2,-1
    65bc:	4701                	li	a4,0
    65be:	00e507b3          	add	a5,a0,a4
    65c2:	00e586b3          	add	a3,a1,a4
    65c6:	239c                	lbu	a5,0(a5)
    65c8:	2294                	lbu	a3,0(a3)
    65ca:	00d79663          	bne	a5,a3,65d6 <strncmp+0x1e>
    65ce:	00c70463          	beq	a4,a2,65d6 <strncmp+0x1e>
    65d2:	0705                	addi	a4,a4,1
    65d4:	f7ed                	bnez	a5,65be <strncmp+0x6>
    65d6:	40d78533          	sub	a0,a5,a3
    65da:	8082                	ret
    65dc:	4501                	li	a0,0
    65de:	8082                	ret

000065e0 <_strtol_l.isra.0>:
    65e0:	7179                	addi	sp,sp,-48
    65e2:	d04a                	sw	s2,32(sp)
    65e4:	ce4e                	sw	s3,28(sp)
    65e6:	d606                	sw	ra,44(sp)
    65e8:	d422                	sw	s0,40(sp)
    65ea:	d226                	sw	s1,36(sp)
    65ec:	89aa                	mv	s3,a0
    65ee:	892e                	mv	s2,a1
    65f0:	00190493          	addi	s1,s2,1
    65f4:	fff4c403          	lbu	s0,-1(s1)
    65f8:	853a                	mv	a0,a4
    65fa:	c636                	sw	a3,12(sp)
    65fc:	c432                	sw	a2,8(sp)
    65fe:	c22e                	sw	a1,4(sp)
    6600:	c03a                	sw	a4,0(sp)
    6602:	cfdff0ef          	jal	ra,62fe <__locale_ctype_ptr_l>
    6606:	9522                	add	a0,a0,s0
    6608:	311c                	lbu	a5,1(a0)
    660a:	4702                	lw	a4,0(sp)
    660c:	4592                	lw	a1,4(sp)
    660e:	8ba1                	andi	a5,a5,8
    6610:	4622                	lw	a2,8(sp)
    6612:	46b2                	lw	a3,12(sp)
    6614:	e3d1                	bnez	a5,6698 <_strtol_l.isra.0+0xb8>
    6616:	02d00793          	li	a5,45
    661a:	08f41163          	bne	s0,a5,669c <_strtol_l.isra.0+0xbc>
    661e:	209c                	lbu	a5,0(s1)
    6620:	4305                	li	t1,1
    6622:	00290493          	addi	s1,s2,2
    6626:	c6e5                	beqz	a3,670e <_strtol_l.isra.0+0x12e>
    6628:	4741                	li	a4,16
    662a:	02e69063          	bne	a3,a4,664a <_strtol_l.isra.0+0x6a>
    662e:	03000713          	li	a4,48
    6632:	00e79c63          	bne	a5,a4,664a <_strtol_l.isra.0+0x6a>
    6636:	209c                	lbu	a5,0(s1)
    6638:	05800713          	li	a4,88
    663c:	0df7f793          	andi	a5,a5,223
    6640:	0ce79263          	bne	a5,a4,6704 <_strtol_l.isra.0+0x124>
    6644:	309c                	lbu	a5,1(s1)
    6646:	46c1                	li	a3,16
    6648:	0489                	addi	s1,s1,2
    664a:	800008b7          	lui	a7,0x80000
    664e:	00031463          	bnez	t1,6656 <_strtol_l.isra.0+0x76>
    6652:	fff8c893          	not	a7,a7
    6656:	02d8ff33          	remu	t5,a7,a3
    665a:	4801                	li	a6,0
    665c:	4501                	li	a0,0
    665e:	4fa5                	li	t6,9
    6660:	4ee5                	li	t4,25
    6662:	52fd                	li	t0,-1
    6664:	02d8de33          	divu	t3,a7,a3
    6668:	fd078713          	addi	a4,a5,-48
    666c:	04efe363          	bltu	t6,a4,66b2 <_strtol_l.isra.0+0xd2>
    6670:	87ba                	mv	a5,a4
    6672:	04d7de63          	bge	a5,a3,66ce <_strtol_l.isra.0+0xee>
    6676:	00580d63          	beq	a6,t0,6690 <_strtol_l.isra.0+0xb0>
    667a:	587d                	li	a6,-1
    667c:	00ae6a63          	bltu	t3,a0,6690 <_strtol_l.isra.0+0xb0>
    6680:	00ae1463          	bne	t3,a0,6688 <_strtol_l.isra.0+0xa8>
    6684:	00ff4663          	blt	t5,a5,6690 <_strtol_l.isra.0+0xb0>
    6688:	4805                	li	a6,1
    668a:	02a68533          	mul	a0,a3,a0
    668e:	953e                	add	a0,a0,a5
    6690:	0485                	addi	s1,s1,1
    6692:	fff4c783          	lbu	a5,-1(s1)
    6696:	bfc9                	j	6668 <_strtol_l.isra.0+0x88>
    6698:	8926                	mv	s2,s1
    669a:	bf99                	j	65f0 <_strtol_l.isra.0+0x10>
    669c:	02b00793          	li	a5,43
    66a0:	00f40563          	beq	s0,a5,66aa <_strtol_l.isra.0+0xca>
    66a4:	87a2                	mv	a5,s0
    66a6:	4301                	li	t1,0
    66a8:	bfbd                	j	6626 <_strtol_l.isra.0+0x46>
    66aa:	209c                	lbu	a5,0(s1)
    66ac:	00290493          	addi	s1,s2,2
    66b0:	bfdd                	j	66a6 <_strtol_l.isra.0+0xc6>
    66b2:	fbf78713          	addi	a4,a5,-65
    66b6:	00eee563          	bltu	t4,a4,66c0 <_strtol_l.isra.0+0xe0>
    66ba:	fc978793          	addi	a5,a5,-55
    66be:	bf55                	j	6672 <_strtol_l.isra.0+0x92>
    66c0:	f9f78713          	addi	a4,a5,-97
    66c4:	00eee563          	bltu	t4,a4,66ce <_strtol_l.isra.0+0xee>
    66c8:	fa978793          	addi	a5,a5,-87
    66cc:	b75d                	j	6672 <_strtol_l.isra.0+0x92>
    66ce:	57fd                	li	a5,-1
    66d0:	00f81f63          	bne	a6,a5,66ee <_strtol_l.isra.0+0x10e>
    66d4:	02200793          	li	a5,34
    66d8:	00f9a023          	sw	a5,0(s3)
    66dc:	8546                	mv	a0,a7
    66de:	ee19                	bnez	a2,66fc <_strtol_l.isra.0+0x11c>
    66e0:	50b2                	lw	ra,44(sp)
    66e2:	5422                	lw	s0,40(sp)
    66e4:	5492                	lw	s1,36(sp)
    66e6:	5902                	lw	s2,32(sp)
    66e8:	49f2                	lw	s3,28(sp)
    66ea:	6145                	addi	sp,sp,48
    66ec:	8082                	ret
    66ee:	00030463          	beqz	t1,66f6 <_strtol_l.isra.0+0x116>
    66f2:	40a00533          	neg	a0,a0
    66f6:	d66d                	beqz	a2,66e0 <_strtol_l.isra.0+0x100>
    66f8:	00080463          	beqz	a6,6700 <_strtol_l.isra.0+0x120>
    66fc:	fff48593          	addi	a1,s1,-1
    6700:	c20c                	sw	a1,0(a2)
    6702:	bff9                	j	66e0 <_strtol_l.isra.0+0x100>
    6704:	03000793          	li	a5,48
    6708:	f2a9                	bnez	a3,664a <_strtol_l.isra.0+0x6a>
    670a:	46a1                	li	a3,8
    670c:	bf3d                	j	664a <_strtol_l.isra.0+0x6a>
    670e:	03000713          	li	a4,48
    6712:	f2e782e3          	beq	a5,a4,6636 <_strtol_l.isra.0+0x56>
    6716:	46a9                	li	a3,10
    6718:	bf0d                	j	664a <_strtol_l.isra.0+0x6a>

0000671a <strtol>:
    671a:	81c18793          	addi	a5,gp,-2020 # 20000224 <_impure_ptr>
    671e:	439c                	lw	a5,0(a5)
    6720:	86b2                	mv	a3,a2
    6722:	5398                	lw	a4,32(a5)
    6724:	e709                	bnez	a4,672e <strtol+0x14>
    6726:	1fffa717          	auipc	a4,0x1fffa
    672a:	91270713          	addi	a4,a4,-1774 # 20000038 <__global_locale>
    672e:	862e                	mv	a2,a1
    6730:	85aa                	mv	a1,a0
    6732:	853e                	mv	a0,a5
    6734:	eadff06f          	j	65e0 <_strtol_l.isra.0>

00006738 <__ascii_wctomb>:
    6738:	cd89                	beqz	a1,6752 <__ascii_wctomb+0x1a>
    673a:	0ff00793          	li	a5,255
    673e:	00c7f763          	bgeu	a5,a2,674c <__ascii_wctomb+0x14>
    6742:	08a00793          	li	a5,138
    6746:	c11c                	sw	a5,0(a0)
    6748:	557d                	li	a0,-1
    674a:	8082                	ret
    674c:	a190                	sb	a2,0(a1)
    674e:	4505                	li	a0,1
    6750:	8082                	ret
    6752:	4501                	li	a0,0
    6754:	8082                	ret

00006756 <__malloc_lock>:
    6756:	8082                	ret

00006758 <__malloc_unlock>:
    6758:	8082                	ret
    675a:	0000                	unimp
    675c:	5541465b          	0x5541465b
    6760:	544c                	lw	a1,44(s0)
    6762:	205d                	jal	6808 <__malloc_unlock+0xb0>
    6764:	616d                	addi	sp,sp,240
    6766:	303d6b73          	csrrsi	s6,mideleg,26
    676a:	2578                	lbu	a4,14(a0)
    676c:	3430                	lbu	a2,11(s0)
    676e:	2058                	lbu	a4,4(s0)
    6770:	6164                	flw	fs1,68(a0)
    6772:	75253d63          	0x75253d63
    6776:	6120                	flw	fs0,64(a0)
    6778:	6464                	flw	fs1,76(s0)
    677a:	3d72                	lhu	a2,62(a0)
    677c:	7830                	flw	fa2,112(s0)
    677e:	3025                	jal	5fa6 <__divsf3+0x24e>
    6780:	5832                	lw	a6,44(sp)
    6782:	302d                	jal	5fac <__divsf3+0x254>
    6784:	2578                	lbu	a4,14(a0)
    6786:	3230                	lbu	a2,3(a2)
    6788:	2d58                	lbu	a4,28(a0)
    678a:	7830                	flw	fa2,112(s0)
    678c:	3025                	jal	5fb4 <__divsf3+0x25c>
    678e:	5832                	lw	a6,44(sp)
    6790:	302d                	jal	5fba <__divsf3+0x262>
    6792:	2578                	lbu	a4,14(a0)
    6794:	3230                	lbu	a2,3(a2)
    6796:	0d58                	addi	a4,sp,660
    6798:	000a                	c.slli	zero,0x2
    679a:	0000                	unimp
    679c:	5d43435b          	0x5d43435b
    67a0:	7420                	flw	fs0,104(s0)
    67a2:	7261                	lui	tp,0xffff8
    67a4:	3d746567          	0x3d746567
    67a8:	2e25                	jal	6ae0 <__malloc_unlock+0x388>
    67aa:	6632                	flw	fa2,12(sp)
    67ac:	0d41                	addi	s10,s10,16
    67ae:	000a                	c.slli	zero,0x2
    67b0:	5d56435b          	0x5d56435b
    67b4:	7420                	flw	fs0,104(s0)
    67b6:	7261                	lui	tp,0xffff8
    67b8:	3d746567          	0x3d746567
    67bc:	2e25                	jal	6af4 <__malloc_unlock+0x39c>
    67be:	6632                	flw	fa2,12(sp)
    67c0:	0d56                	slli	s10,s10,0x15
    67c2:	000a                	c.slli	zero,0x2
    67c4:	00004b4f          	fnmadd.s	fs6,ft0,ft0,ft0,rmm
    67c8:	4146                	lw	sp,80(sp)
    67ca:	4c49                	li	s8,18
    67cc:	0000                	unimp
    67ce:	0000                	unimp
    67d0:	3249                	jal	6152 <__floatsisf+0x3a>
    67d2:	69203143          	fmadd.s	ft2,ft0,fs2,fa3,rup
    67d6:	696e                	flw	fs2,216(sp)
    67d8:	2e74                	lbu	a3,30(a2)
    67da:	2e2e                	lhu	a1,26(a2)
    67dc:	000d                	c.nop	3
    67de:	0000                	unimp
    67e0:	3249                	jal	6162 <__floatsisf+0x4a>
    67e2:	72203143          	fmadd.d	ft2,ft0,ft2,fa4,rup
    67e6:	6165                	addi	sp,sp,112
    67e8:	7964                	flw	fs1,116(a0)
    67ea:	000d                	c.nop	3
    67ec:	4e49                	li	t3,18
    67ee:	3241                	jal	616e <__floatsisf+0x56>
    67f0:	3632                	lhu	a2,42(a2)
    67f2:	5d64255b          	0x5d64255b
    67f6:	3020                	lbu	s0,3(s0)
    67f8:	2578                	lbu	a4,14(a0)
    67fa:	3230                	lbu	a2,3(a2)
    67fc:	2058                	lbu	a4,4(s0)
    67fe:	0a0d4b4f          	fnmadd.d	fs6,fs10,ft0,ft1,rmm
    6802:	0000                	unimp
    6804:	4e49                	li	t3,18
    6806:	3241                	jal	6186 <__floatsisf+0x6e>
    6808:	3632                	lhu	a2,42(a2)
    680a:	5d64255b          	0x5d64255b
    680e:	3020                	lbu	s0,3(s0)
    6810:	2578                	lbu	a4,14(a0)
    6812:	3230                	lbu	a2,3(a2)
    6814:	2058                	lbu	a4,4(s0)
    6816:	4146                	lw	sp,80(sp)
    6818:	4c49                	li	s8,18
    681a:	2528                	lbu	a0,10(a0)
    681c:	2964                	lbu	s1,22(a0)
    681e:	0a0d                	addi	s4,s4,3
    6820:	0000                	unimp
    6822:	0000                	unimp
    6824:	4144                	lw	s1,4(a0)
    6826:	37353843          	fmadd.q	fa6,fa0,fs3,ft6,rup
    682a:	2031                	jal	6836 <__malloc_unlock+0xde>
    682c:	7325                	lui	t1,0xfffe9
    682e:	0a0d                	addi	s4,s4,3
    6830:	0000                	unimp
    6832:	0000                	unimp
    6834:	0a0d                	addi	s4,s4,3
    6836:	3d3d                	jal	6674 <_strtol_l.isra.0+0x94>
    6838:	203d                	jal	6866 <__malloc_unlock+0x10e>
    683a:	6c45                	lui	s8,0x11
    683c:	6365                	lui	t1,0x19
    683e:	7274                	flw	fa3,100(a2)
    6840:	63696e6f          	jal	t3,9ce76 <_data_lma+0x95c0a>
    6844:	4c20                	lw	s0,88(s0)
    6846:	2064616f          	jal	sp,4ca4c <_data_lma+0x457e0>
    684a:	746e6f43          	0x746e6f43
    684e:	6f72                	flw	ft10,28(sp)
    6850:	6c6c                	flw	fa1,92(s0)
    6852:	7265                	lui	tp,0xffff9
    6854:	3d20                	lbu	s0,27(a0)
    6856:	3d3d                	jal	6694 <_strtol_l.isra.0+0xb4>
    6858:	000d                	c.nop	3
    685a:	0000                	unimp
    685c:	74737953          	0x74737953
    6860:	6d65                	lui	s10,0x19
    6862:	3a6b6c43          	fmadd.d	fs8,fs6,ft6,ft7,unknown
    6866:	6425                	lui	s0,0x9
    6868:	0a0d                	addi	s4,s4,3
    686a:	0000                	unimp
    686c:	70696843          	fmadd.s	fa6,fs2,ft6,fa4,unknown
    6870:	4449                	li	s0,18
    6872:	253a                	lhu	a4,10(a0)
    6874:	3830                	lbu	a2,19(s0)
    6876:	0d78                	addi	a4,sp,668
    6878:	000a                	c.slli	zero,0x2
    687a:	0000                	unimp
    687c:	5355                	li	t1,-11
    687e:	2d42                	lhu	s0,28(a0)
    6880:	20434443          	fmadd.s	fs0,ft6,ft4,ft4,rmm
    6884:	6e65                	lui	t3,0x19
    6886:	6d75                	lui	s10,0x1d
    6888:	7265                	lui	tp,0xffff9
    688a:	7461                	lui	s0,0xffff8
    688c:	6465                	lui	s0,0x19
    688e:	000d                	c.nop	3
    6890:	5355                	li	t1,-11
    6892:	2d42                	lhu	s0,28(a0)
    6894:	20434443          	fmadd.s	fs0,ft6,ft4,ft4,rmm
    6898:	6974                	flw	fa3,84(a0)
    689a:	656d                	lui	a0,0x1b
    689c:	2c74756f          	jal	a0,4e362 <_data_lma+0x470f6>
    68a0:	6320                	flw	fs0,64(a4)
    68a2:	69746e6f          	jal	t3,4d738 <_data_lma+0x464cc>
    68a6:	756e                	flw	fa0,248(sp)
    68a8:	6e69                	lui	t3,0x1a
    68aa:	00000d67          	jalr	s10,zero # 0 <_sinit>
	...
    68b6:	bff0                	sb	a2,31(a5)
    68b8:	0000                	unimp
    68ba:	0000                	unimp
    68bc:	0000                	unimp
    68be:	3ff0                	lbu	a2,31(a5)
    68c0:	0000                	unimp
    68c2:	0000                	unimp
    68c4:	0000                	unimp
    68c6:	4024                	lw	s1,64(s0)
    68c8:	999a                	add	s3,s3,t1
    68ca:	9999                	andi	a1,a1,-26
    68cc:	9999                	andi	a1,a1,-26
    68ce:	3fb9                	jal	682c <__malloc_unlock+0xd4>
    68d0:	7274                	flw	fa3,100(a2)
    68d2:	6575                	lui	a0,0x1d
    68d4:	0000                	unimp
    68d6:	0000                	unimp
    68d8:	6166                	flw	ft2,88(sp)
    68da:	736c                	flw	fa1,100(a4)
    68dc:	0065                	c.nop	25
    68de:	0000                	unimp
    68e0:	756e                	flw	fa0,248(sp)
    68e2:	6c6c                	flw	fa1,92(s0)
    68e4:	0000                	unimp
    68e6:	0000                	unimp
    68e8:	1e18                	addi	a4,sp,816
    68ea:	0000                	unimp
    68ec:	1d0e                	slli	s10,s10,0x23
    68ee:	0000                	unimp
    68f0:	1ba8                	addi	a0,sp,504
    68f2:	0000                	unimp
    68f4:	1d7e                	slli	s10,s10,0x3f
    68f6:	0000                	unimp
    68f8:	1ba8                	addi	a0,sp,504
    68fa:	0000                	unimp
    68fc:	1ca0                	addi	s0,sp,632
    68fe:	0000                	unimp
    6900:	1c00                	addi	s0,sp,560
    6902:	0000                	unimp
    6904:	1ba8                	addi	a0,sp,504
    6906:	0000                	unimp
    6908:	1ce6                	slli	s9,s9,0x39
    690a:	0000                	unimp
    690c:	1cfc                	addi	a5,sp,636
    690e:	0000                	unimp
    6910:	1e12                	slli	t3,t3,0x24
    6912:	0000                	unimp
    6914:	1caa                	slli	s9,s9,0x2a
    6916:	0000                	unimp
    6918:	4144                	lw	s1,4(a0)
    691a:	37353843          	fmadd.q	fa6,fa0,fs3,ft6,rup
    691e:	2031                	jal	692a <__malloc_unlock+0x1d2>
    6920:	6e69                	lui	t3,0x1a
    6922:	7469                	lui	s0,0xffffa
    6924:	203a                	lhu	a4,2(s0)
    6926:	6461                	lui	s0,0x18
    6928:	7264                	flw	fs1,100(a2)
    692a:	303d                	jal	6158 <__floatsisf+0x40>
    692c:	2578                	lbu	a4,14(a0)
    692e:	3230                	lbu	a2,3(a2)
    6930:	2c58                	lbu	a4,28(s0)
    6932:	5320                	lw	s0,96(a4)
    6934:	3152                	lhu	a2,36(a0)
    6936:	303d                	jal	6164 <__floatsisf+0x4c>
    6938:	2578                	lbu	a4,14(a0)
    693a:	3430                	lbu	a2,11(s0)
    693c:	2058                	lbu	a4,4(s0)
    693e:	3d325253          	0x3d325253
    6942:	7830                	flw	fa2,112(s0)
    6944:	3025                	jal	616c <__floatsisf+0x54>
    6946:	5834                	lw	a3,112(s0)
    6948:	4320                	lw	s0,64(a4)
    694a:	4c54                	lw	a3,28(s0)
    694c:	3152                	lhu	a2,36(a0)
    694e:	303d                	jal	617c <__floatsisf+0x64>
    6950:	2578                	lbu	a4,14(a0)
    6952:	3430                	lbu	a2,11(s0)
    6954:	2058                	lbu	a4,4(s0)
    6956:	524c5443          	fmadd.d	fs0,fs8,ft4,fa0,unknown
    695a:	3d32                	lhu	a2,58(a0)
    695c:	7830                	flw	fa2,112(s0)
    695e:	3025                	jal	6186 <__floatsisf+0x6e>
    6960:	5834                	lw	a3,112(s0)
    6962:	4320                	lw	s0,64(a4)
    6964:	4746434b          	fnmsub.q	ft6,fa2,fs4,fs0,rmm
    6968:	3d52                	lhu	a2,60(a0)
    696a:	7830                	flw	fa2,112(s0)
    696c:	3025                	jal	6194 <__floatsisf+0x7c>
    696e:	5834                	lw	a3,112(s0)
    6970:	0a0d                	addi	s4,s4,3
    6972:	0000                	unimp
    6974:	4144                	lw	s1,4(a0)
    6976:	37353843          	fmadd.q	fa6,fa0,fs3,ft6,rup
    697a:	2031                	jal	6986 <__malloc_unlock+0x22e>
    697c:	6e69                	lui	t3,0x1a
    697e:	7469                	lui	s0,0xffffa
    6980:	203a                	lhu	a4,2(s0)
    6982:	4352                	lw	t1,20(sp)
    6984:	50415f43          	fmadd.s	ft10,ft2,ft4,fa0,unknown
    6988:	3142                	lhu	s0,36(a0)
    698a:	303d                	jal	61b8 <__floatsisf+0xa0>
    698c:	2578                	lbu	a4,14(a0)
    698e:	3830                	lbu	a2,19(s0)
    6990:	2058                	lbu	a4,4(s0)
    6992:	5041                	c.li	zero,-16
    6994:	3242                	lhu	s0,36(a2)
    6996:	303d                	jal	61c4 <__floatsisf+0xac>
    6998:	2578                	lbu	a4,14(a0)
    699a:	3830                	lbu	a2,19(s0)
    699c:	2058                	lbu	a4,4(s0)
    699e:	43737953          	0x43737953
    69a2:	6b6c                	flw	fa1,84(a4)
    69a4:	253d                	jal	6fd2 <MySerNumInfo+0x9a>
    69a6:	0d64                	addi	s1,sp,668
    69a8:	000a                	c.slli	zero,0x2
    69aa:	0000                	unimp
    69ac:	4144                	lw	s1,4(a0)
    69ae:	37353843          	fmadd.q	fa6,fa0,fs3,ft6,rup
    69b2:	2031                	jal	69be <__malloc_unlock+0x266>
    69b4:	6e69                	lui	t3,0x1a
    69b6:	7469                	lui	s0,0xffffa
    69b8:	203a                	lhu	a4,2(s0)
    69ba:	000d4b4f          	fnmadd.s	fs6,fs10,ft0,ft0,rmm
    69be:	0000                	unimp
    69c0:	4144                	lw	s1,4(a0)
    69c2:	37353843          	fmadd.q	fa6,fa0,fs3,ft6,rup
    69c6:	2031                	jal	69d2 <__malloc_unlock+0x27a>
    69c8:	6e69                	lui	t3,0x1a
    69ca:	7469                	lui	s0,0xffffa
    69cc:	203a                	lhu	a4,2(s0)
    69ce:	4146                	lw	sp,80(sp)
    69d0:	4c49                	li	s8,18
    69d2:	2820                	lbu	s0,18(s0)
    69d4:	6425                	lui	s0,0x9
    69d6:	2c29                	jal	6bf0 <__malloc_unlock+0x498>
    69d8:	5320                	lw	s0,96(a4)
    69da:	3152                	lhu	a2,36(a0)
    69dc:	303d                	jal	620a <__extendsfdf2+0x2c>
    69de:	2578                	lbu	a4,14(a0)
    69e0:	3430                	lbu	a2,11(s0)
    69e2:	2058                	lbu	a4,4(s0)
    69e4:	3d325253          	0x3d325253
    69e8:	7830                	flw	fa2,112(s0)
    69ea:	3025                	jal	6212 <__extendsfdf2+0x34>
    69ec:	5834                	lw	a3,112(s0)
    69ee:	0a0d                	addi	s4,s4,3
    69f0:	0000                	unimp
    69f2:	0000                	unimp
    69f4:	3249                	jal	6376 <memcpy+0x14>
    69f6:	42203a43          	fmadd.d	fs4,ft0,ft2,fs0,rup
    69fa:	5355                	li	t1,-11
    69fc:	2059                	jal	6a82 <__malloc_unlock+0x32a>
    69fe:	63757473          	csrrci	s0,0x637,10
    6a02:	6562206b          	0x6562206b
    6a06:	6f66                	flw	ft10,88(sp)
    6a08:	6572                	flw	fa0,28(sp)
    6a0a:	7220                	flw	fs0,96(a2)
    6a0c:	6165                	addi	sp,sp,112
    6a0e:	2c64                	lbu	s1,30(s0)
    6a10:	5320                	lw	s0,96(a4)
    6a12:	3152                	lhu	a2,36(a0)
    6a14:	303d                	jal	6242 <__extendsfdf2+0x64>
    6a16:	2578                	lbu	a4,14(a0)
    6a18:	3430                	lbu	a2,11(s0)
    6a1a:	2058                	lbu	a4,4(s0)
    6a1c:	3d325253          	0x3d325253
    6a20:	7830                	flw	fa2,112(s0)
    6a22:	3025                	jal	624a <__extendsfdf2+0x6c>
    6a24:	5834                	lw	a3,112(s0)
    6a26:	0a0d                	addi	s4,s4,3
    6a28:	0000                	unimp
    6a2a:	0000                	unimp
    6a2c:	3249                	jal	63ae <memcpy+0x4c>
    6a2e:	54203a43          	0x54203a43
    6a32:	4558                	lw	a4,12(a0)
    6a34:	6e20                	flw	fs0,88(a2)
    6a36:	7320746f          	jal	s0,e168 <_data_lma+0x6efc>
    6a3a:	7465                	lui	s0,0xffff9
    6a3c:	6220                	flw	fs0,64(a2)
    6a3e:	6665                	lui	a2,0x19
    6a40:	2065726f          	jal	tp,5dc46 <_data_lma+0x569da>
    6a44:	6572                	flw	fa0,28(sp)
    6a46:	74705f67          	0x74705f67
    6a4a:	2c72                	lhu	a2,30(s0)
    6a4c:	5320                	lw	s0,96(a4)
    6a4e:	3152                	lhu	a2,36(a0)
    6a50:	303d                	jal	627e <__extendsfdf2+0xa0>
    6a52:	2578                	lbu	a4,14(a0)
    6a54:	3430                	lbu	a2,11(s0)
    6a56:	0d58                	addi	a4,sp,660
    6a58:	000a                	c.slli	zero,0x2
    6a5a:	0000                	unimp
    6a5c:	3249                	jal	63de <memcpy+0x7c>
    6a5e:	42203a43          	fmadd.d	fs4,ft0,ft2,fs0,rup
    6a62:	5245                	li	tp,-15
    6a64:	2052                	lhu	a2,4(s0)
    6a66:	7461                	lui	s0,0xffff8
    6a68:	7320                	flw	fs0,96(a4)
    6a6a:	6574                	flw	fa3,76(a0)
    6a6c:	2070                	lbu	a2,6(s0)
    6a6e:	6425                	lui	s0,0x9
    6a70:	0a0d                	addi	s4,s4,3
    6a72:	0000                	unimp
    6a74:	3249                	jal	63f6 <memcpy+0x94>
    6a76:	41203a43          	fmadd.s	fs4,ft0,fs2,fs0,rup
    6a7a:	4c52                	lw	s8,20(sp)
    6a7c:	7461204f          	0x7461204f
    6a80:	7320                	flw	fs0,96(a4)
    6a82:	6574                	flw	fa3,76(a0)
    6a84:	2070                	lbu	a2,6(s0)
    6a86:	6425                	lui	s0,0x9
    6a88:	0a0d                	addi	s4,s4,3
    6a8a:	0000                	unimp
    6a8c:	3249                	jal	640e <memcpy+0xac>
    6a8e:	54203a43          	0x54203a43
    6a92:	73204f2f          	0x73204f2f
    6a96:	6574                	flw	fa3,76(a0)
    6a98:	2070                	lbu	a2,6(s0)
    6a9a:	6425                	lui	s0,0x9
    6a9c:	202c                	lbu	a1,2(s0)
    6a9e:	3d315253          	0x3d315253
    6aa2:	7830                	flw	fa2,112(s0)
    6aa4:	3025                	jal	62cc <__clzsi2+0x42>
    6aa6:	5834                	lw	a3,112(s0)
    6aa8:	5320                	lw	s0,96(a4)
    6aaa:	3252                	lhu	a2,36(a2)
    6aac:	303d                	jal	62da <__clzsi2+0x50>
    6aae:	2578                	lbu	a4,14(a0)
    6ab0:	3430                	lbu	a2,11(s0)
    6ab2:	0d58                	addi	a4,sp,660
    6ab4:	000a                	c.slli	zero,0x2
    6ab6:	0000                	unimp
    6ab8:	3249                	jal	643a <_free_r+0x26>
    6aba:	54203a43          	0x54203a43
    6abe:	73204f2f          	0x73204f2f
    6ac2:	6574                	flw	fa3,76(a0)
    6ac4:	2070                	lbu	a2,6(s0)
    6ac6:	6425                	lui	s0,0x9
    6ac8:	2820                	lbu	s0,18(s0)
    6aca:	5852                	lw	a6,52(sp)
    6acc:	454e                	lw	a0,208(sp)
    6ace:	2c29                	jal	6ce8 <__malloc_unlock+0x590>
    6ad0:	5320                	lw	s0,96(a4)
    6ad2:	3152                	lhu	a2,36(a0)
    6ad4:	303d                	jal	6302 <__locale_ctype_ptr_l+0x4>
    6ad6:	2578                	lbu	a4,14(a0)
    6ad8:	3430                	lbu	a2,11(s0)
    6ada:	2058                	lbu	a4,4(s0)
    6adc:	3d325253          	0x3d325253
    6ae0:	7830                	flw	fa2,112(s0)
    6ae2:	3025                	jal	630a <__locale_ctype_ptr+0x6>
    6ae4:	5834                	lw	a3,112(s0)
    6ae6:	0a0d                	addi	s4,s4,3
    6ae8:	0000                	unimp
    6aea:	0000                	unimp
    6aec:	3249                	jal	646e <_free_r+0x5a>
    6aee:	42203a43          	fmadd.d	fs4,ft0,ft2,fs0,rup
    6af2:	5355                	li	t1,-11
    6af4:	2059                	jal	6b7a <__malloc_unlock+0x422>
    6af6:	63757473          	csrrci	s0,0x637,10
    6afa:	53202c6b          	0x53202c6b
    6afe:	3152                	lhu	a2,36(a0)
    6b00:	303d                	jal	632e <free+0x8>
    6b02:	2578                	lbu	a4,14(a0)
    6b04:	3430                	lbu	a2,11(s0)
    6b06:	2058                	lbu	a4,4(s0)
    6b08:	3d325253          	0x3d325253
    6b0c:	7830                	flw	fa2,112(s0)
    6b0e:	3025                	jal	6336 <__ascii_mbtowc+0x6>
    6b10:	5834                	lw	a3,112(s0)
    6b12:	0a0d                	addi	s4,s4,3
    6b14:	0000                	unimp
    6b16:	0000                	unimp
    6b18:	3249                	jal	649a <_free_r+0x86>
    6b1a:	53203a43          	fmadd.d	fs4,ft0,fs2,fa0,rup
    6b1e:	4154                	lw	a3,4(a0)
    6b20:	5452                	lw	s0,52(sp)
    6b22:	7320                	flw	fs0,96(a4)
    6b24:	6974                	flw	fa3,84(a0)
    6b26:	6c6c                	flw	fa1,92(s0)
    6b28:	7320                	flw	fs0,96(a4)
    6b2a:	7465                	lui	s0,0xffff9
    6b2c:	6120                	flw	fs0,64(a0)
    6b2e:	7466                	flw	fs0,120(sp)
    6b30:	7265                	lui	tp,0xffff9
    6b32:	6420                	flw	fs0,72(s0)
    6b34:	6c65                	lui	s8,0x19
    6b36:	7961                	lui	s2,0xffff8
    6b38:	202c                	lbu	a1,2(s0)
    6b3a:	524c5443          	fmadd.d	fs0,fs8,ft4,fa0,unknown
    6b3e:	3d31                	jal	695a <__malloc_unlock+0x202>
    6b40:	7830                	flw	fa2,112(s0)
    6b42:	3025                	jal	636a <memcpy+0x8>
    6b44:	5834                	lw	a3,112(s0)
    6b46:	5320                	lw	s0,96(a4)
    6b48:	3152                	lhu	a2,36(a0)
    6b4a:	303d                	jal	6378 <memcpy+0x16>
    6b4c:	2578                	lbu	a4,14(a0)
    6b4e:	3430                	lbu	a2,11(s0)
    6b50:	0d58                	addi	a4,sp,660
    6b52:	000a                	c.slli	zero,0x2
    6b54:	3249                	jal	64d6 <_malloc_r+0x1e>
    6b56:	54203a43          	0x54203a43
    6b5a:	4558                	lw	a4,12(a0)
    6b5c:	6e20                	flw	fs0,88(a2)
    6b5e:	7320746f          	jal	s0,e290 <_data_lma+0x7024>
    6b62:	7465                	lui	s0,0xffff9
    6b64:	6220                	flw	fs0,64(a2)
    6b66:	6665                	lui	a2,0x19
    6b68:	2065726f          	jal	tp,5dd6e <_data_lma+0x56b02>
    6b6c:	6164                	flw	fs1,68(a0)
    6b6e:	6174                	flw	fa3,68(a0)
    6b70:	5d64255b          	0x5d64255b
    6b74:	202c                	lbu	a1,2(s0)
    6b76:	3d315253          	0x3d315253
    6b7a:	7830                	flw	fa2,112(s0)
    6b7c:	3025                	jal	63a4 <memcpy+0x42>
    6b7e:	5834                	lw	a3,112(s0)
    6b80:	0a0d                	addi	s4,s4,3
    6b82:	0000                	unimp
    6b84:	00005643          	fmadd.s	fa2,ft0,ft0,ft0,unknown
    6b88:	00004343          	fmadd.s	ft6,ft0,ft0,ft0,rmm
    6b8c:	4146                	lw	sp,80(sp)
    6b8e:	4c55                	li	s8,21
    6b90:	0054                	addi	a3,sp,4
    6b92:	0000                	unimp
    6b94:	4449                	li	s0,18
    6b96:	454c                	lw	a1,12(a0)
    6b98:	0000                	unimp
    6b9a:	0000                	unimp
    6b9c:	6573227b          	0x6573227b
    6ba0:	2271                	jal	6d2c <__malloc_unlock+0x5d4>
    6ba2:	253a                	lhu	a4,10(a0)
    6ba4:	2c64                	lbu	s1,30(s0)
    6ba6:	6d22                	flw	fs10,8(sp)
    6ba8:	2265646f          	jal	s0,5cdce <_data_lma+0x55b62>
    6bac:	223a                	lhu	a4,2(a2)
    6bae:	7325                	lui	t1,0xfffe9
    6bb0:	2c22                	lhu	s0,26(s0)
    6bb2:	7322                	flw	ft6,40(sp)
    6bb4:	7465                	lui	s0,0xffff9
    6bb6:	6f70                	flw	fa2,92(a4)
    6bb8:	6e69                	lui	t3,0x1a
    6bba:	2274                	lbu	a3,6(a2)
    6bbc:	253a                	lhu	a4,10(a0)
    6bbe:	312e                	lhu	a1,34(a0)
    6bc0:	2c66                	lhu	s1,30(s0)
    6bc2:	7622                	flw	fa2,40(sp)
    6bc4:	3a22                	lhu	s0,50(a2)
    6bc6:	6425                	lui	s0,0x9
    6bc8:	222c                	lbu	a1,2(a2)
    6bca:	2269                	jal	6d54 <__malloc_unlock+0x5fc>
    6bcc:	253a                	lhu	a4,10(a0)
    6bce:	2c64                	lbu	s1,30(s0)
    6bd0:	7022                	flw	ft0,40(sp)
    6bd2:	3a22                	lhu	s0,50(a2)
    6bd4:	6425                	lui	s0,0x9
    6bd6:	007d                	c.nop	31
    6bd8:	0a0d                	addi	s4,s4,3
    6bda:	3d3d                	jal	6a18 <__malloc_unlock+0x2c0>
    6bdc:	203d                	jal	6c0a <__malloc_unlock+0x4b2>
    6bde:	5355                	li	t1,-11
    6be0:	5241                	li	tp,-16
    6be2:	3154                	lbu	a3,5(a0)
    6be4:	4f20                	lw	s0,88(a4)
    6be6:	3128204b          	fnmsub.s	ft0,fa6,fs2,ft6,rdn
    6bea:	3531                	jal	69f6 <__malloc_unlock+0x29e>
    6bec:	3032                	lhu	a2,34(s0)
    6bee:	2c30                	lbu	a2,26(s0)
    6bf0:	4e38                	lw	a4,88(a2)
    6bf2:	2931                	jal	700e <MySerNumInfo+0xd6>
    6bf4:	3d20                	lbu	s0,27(a0)
    6bf6:	3d3d                	jal	6a34 <__malloc_unlock+0x2dc>
    6bf8:	0a0d                	addi	s4,s4,3
    6bfa:	0000                	unimp
    6bfc:	3025                	jal	6424 <_free_r+0x10>
    6bfe:	6c38                	flw	fa4,88(s0)
    6c00:	0058                	addi	a4,sp,4
    6c02:	0000                	unimp
    6c04:	7250                	flw	fa2,36(a2)
    6c06:	636f746f          	jal	s0,fe23c <_data_lma+0xf6fd0>
    6c0a:	69206c6f          	jal	s8,d29c <_data_lma+0x6030>
    6c0e:	696e                	flw	fs2,216(sp)
    6c10:	3a74                	lbu	a3,23(a2)
    6c12:	5520                	lw	s0,104(a0)
    6c14:	54524153          	0x54524153
    6c18:	2031                	jal	6c24 <__malloc_unlock+0x4cc>
    6c1a:	3131                	jal	6826 <__malloc_unlock+0xce>
    6c1c:	3235                	jal	6548 <_malloc_r+0x90>
    6c1e:	3030                	lbu	a2,3(s0)
    6c20:	3820                	lbu	s0,19(s0)
    6c22:	314e                	lhu	a1,36(a0)
    6c24:	2820                	lbu	s0,18(s0)
    6c26:	6f6e                	flw	ft10,216(sp)
    6c28:	7020                	flw	fs0,96(s0)
    6c2a:	7261                	lui	tp,0xffff8
    6c2c:	7469                	lui	s0,0xffffa
    6c2e:	2979                	jal	70cc <__clz_tab+0x74>
    6c30:	202c                	lbu	a1,2(s0)
    6c32:	6972                	flw	fs2,28(sp)
    6c34:	676e                	flw	fa4,216(sp)
    6c36:	6220                	flw	fs0,64(a2)
    6c38:	6675                	lui	a2,0x1d
    6c3a:	6566                	flw	fa0,88(sp)
    6c3c:	2072                	lhu	a2,6(s0)
    6c3e:	6425                	lui	s0,0x9
    6c40:	6220                	flw	fs0,64(a2)
    6c42:	7479                	lui	s0,0xffffe
    6c44:	7365                	lui	t1,0xffff9
    6c46:	0a0d                	addi	s4,s4,3
    6c48:	0000                	unimp
    6c4a:	0000                	unimp
    6c4c:	4f534a63          	blt	t1,s5,7140 <__clz_tab+0xe8>
    6c50:	204e                	lhu	a1,4(s0)
    6c52:	7261                	lui	tp,0xffff8
    6c54:	6e65                	lui	t3,0x19
    6c56:	3a61                	jal	65ee <_strtol_l.isra.0+0xe>
    6c58:	2520                	lbu	s0,10(a0)
    6c5a:	2064                	lbu	s1,6(s0)
    6c5c:	7962                	flw	fs2,56(sp)
    6c5e:	6574                	flw	fa3,76(a0)
    6c60:	74612073          	csrs	0x746,sp
    6c64:	3020                	lbu	s0,3(s0)
    6c66:	2578                	lbu	a4,14(a0)
    6c68:	3830                	lbu	a2,19(s0)
    6c6a:	2c58                	lbu	a4,28(s0)
    6c6c:	6320                	flw	fs0,64(a4)
    6c6e:	6968                	flw	fa0,84(a0)
    6c70:	2070                	lbu	a2,6(s0)
    6c72:	4449                	li	s0,18
    6c74:	203a                	lhu	a4,2(s0)
    6c76:	7325                	lui	t1,0xfffe9
    6c78:	0a0d                	addi	s4,s4,3
    6c7a:	0000                	unimp
    6c7c:	0000                	unimp
    6c7e:	447a                	lw	s0,156(sp)
    6c80:	0000                	unimp
    6c82:	4120                	lw	s0,64(a0)
    6c84:	0000                	unimp
    6c86:	41f0                	lw	a2,68(a1)
    6c88:	4f52505b          	0x4f52505b
    6c8c:	4f54                	lw	a3,28(a4)
    6c8e:	205d                	jal	6d34 <__malloc_unlock+0x5dc>
    6c90:	736a                	flw	ft6,184(sp)
    6c92:	70206e6f          	jal	t3,d394 <_data_lma+0x6128>
    6c96:	7261                	lui	tp,0xffff8
    6c98:	65206573          	csrrsi	a0,0x652,0
    6c9c:	7272                	flw	ft4,60(sp)
    6c9e:	203a                	lhu	a4,2(s0)
    6ca0:	7325                	lui	t1,0xfffe9
    6ca2:	0a0d                	addi	s4,s4,3
    6ca4:	0000                	unimp
    6ca6:	0000                	unimp
    6ca8:	6e49                	lui	t3,0x12
    6caa:	6176                	flw	ft2,92(sp)
    6cac:	696c                	flw	fa1,84(a0)
    6cae:	2064                	lbu	s1,6(s0)
    6cb0:	534a                	lw	t1,176(sp)
    6cb2:	00004e4f          	fnmadd.s	ft8,ft0,ft0,ft0,rmm
    6cb6:	0000                	unimp
    6cb8:	6146                	flw	ft2,80(sp)
    6cba:	6c75                	lui	s8,0x1d
    6cbc:	2074                	lbu	a3,6(s0)
    6cbe:	6361                	lui	t1,0x18
    6cc0:	6974                	flw	fa3,84(a0)
    6cc2:	6576                	flw	fa0,92(sp)
    6cc4:	e220                	fsw	fs0,64(a2)
    6cc6:	9480                	0x9480
    6cc8:	6320                	flw	fs0,64(a4)
    6cca:	656c                	flw	fa1,76(a0)
    6ccc:	7261                	lui	tp,0xffff8
    6cce:	6620                	flw	fs0,72(a2)
    6cd0:	7561                	lui	a0,0xffff8
    6cd2:	746c                	flw	fa1,108(s0)
    6cd4:	6620                	flw	fs0,72(a2)
    6cd6:	7269                	lui	tp,0xffffa
    6cd8:	00007473          	csrrci	s0,ustatus,0
    6cdc:	0049                	c.nop	18
    6cde:	0000                	unimp
    6ce0:	0056                	c.slli	zero,0x15
    6ce2:	0000                	unimp
    6ce4:	694d                	lui	s2,0x13
    6ce6:	6e697373          	csrrci	t1,0x6e6,18
    6cea:	69662067          	0x69662067
    6cee:	6c65                	lui	s8,0x19
    6cf0:	3a64                	lbu	s1,23(a2)
    6cf2:	4920                	lw	s0,80(a0)
    6cf4:	2820                	lbu	s0,18(s0)
    6cf6:	6572                	flw	fa0,28(sp)
    6cf8:	7571                	lui	a0,0xffffc
    6cfa:	7269                	lui	tp,0xffffa
    6cfc:	6465                	lui	s0,0x19
    6cfe:	6920                	flw	fs0,80(a0)
    6d00:	206e                	lhu	a1,6(s0)
    6d02:	6d204343          	0x6d204343
    6d06:	2965646f          	jal	s0,5cf9c <_data_lma+0x55d30>
    6d0a:	0000                	unimp
    6d0c:	2049                	jal	6d8e <__malloc_unlock+0x636>
    6d0e:	2074756f          	jal	a0,4e714 <_data_lma+0x474a8>
    6d12:	7220666f          	jal	a2,d434 <_data_lma+0x61c8>
    6d16:	6e61                	lui	t3,0x18
    6d18:	5b206567          	0x5b206567
    6d1c:	2e30                	lbu	a2,26(a2)
    6d1e:	2c30                	lbu	a2,26(s0)
    6d20:	3120                	lbu	s0,3(a0)
    6d22:	2e30                	lbu	a2,26(a2)
    6d24:	5d30                	lw	a2,120(a0)
    6d26:	0041                	c.nop	16
    6d28:	694d                	lui	s2,0x13
    6d2a:	6e697373          	csrrci	t1,0x6e6,18
    6d2e:	69662067          	0x69662067
    6d32:	6c65                	lui	s8,0x19
    6d34:	3a64                	lbu	s1,23(a2)
    6d36:	5620                	lw	s0,104(a2)
    6d38:	2820                	lbu	s0,18(s0)
    6d3a:	6572                	flw	fa0,28(sp)
    6d3c:	7571                	lui	a0,0xffffc
    6d3e:	7269                	lui	tp,0xffffa
    6d40:	6465                	lui	s0,0x19
    6d42:	6920                	flw	fs0,80(a0)
    6d44:	206e                	lhu	a1,6(s0)
    6d46:	6d205643          	0x6d205643
    6d4a:	2965646f          	jal	s0,5cfe0 <_data_lma+0x55d74>
    6d4e:	0000                	unimp
    6d50:	2056                	lhu	a3,4(s0)
    6d52:	2074756f          	jal	a0,4e758 <_data_lma+0x474ec>
    6d56:	7220666f          	jal	a2,d478 <_data_lma+0x620c>
    6d5a:	6e61                	lui	t3,0x18
    6d5c:	5b206567          	0x5b206567
    6d60:	2e30                	lbu	a2,26(a2)
    6d62:	2c30                	lbu	a2,26(s0)
    6d64:	3320                	lbu	s0,3(a4)
    6d66:	2e30                	lbu	a2,26(a2)
    6d68:	5d30                	lw	a2,120(a0)
    6d6a:	0056                	c.slli	zero,0x15
    6d6c:	694d                	lui	s2,0x13
    6d6e:	6e697373          	csrrci	t1,0x6e6,18
    6d72:	65722067          	0x65722067
    6d76:	7571                	lui	a0,0xffffc
    6d78:	7269                	lui	tp,0xffffa
    6d7a:	6465                	lui	s0,0x19
    6d7c:	6620                	flw	fs0,72(a2)
    6d7e:	6569                	lui	a0,0x1a
    6d80:	646c                	flw	fa1,76(s0)
    6d82:	203a                	lhu	a4,2(s0)
    6d84:	6f6d                	lui	t5,0x1b
    6d86:	6564                	flw	fs1,76(a0)
    6d88:	0000                	unimp
    6d8a:	0000                	unimp
    6d8c:	7954                	flw	fa3,52(a0)
    6d8e:	6570                	flw	fa2,76(a0)
    6d90:	432d                	li	t1,11
    6d92:	6f20                	flw	fs0,88(a4)
    6d94:	6c6e                	flw	fs8,216(sp)
    6d96:	2079                	jal	6e24 <__malloc_unlock+0x6cc>
    6d98:	6f6d                	lui	t5,0x1b
    6d9a:	6564                	flw	fs1,76(a0)
    6d9c:	6e20                	flw	fs0,88(a2)
    6d9e:	6920746f          	jal	s0,e430 <_data_lma+0x71c4>
    6da2:	706d                	c.lui	zero,0xffffb
    6da4:	656c                	flw	fa1,76(a0)
    6da6:	656d                	lui	a0,0x1b
    6da8:	746e                	flw	fs0,248(sp)
    6daa:	6465                	lui	s0,0x19
    6dac:	0000                	unimp
    6dae:	0000                	unimp
    6db0:	7954                	flw	fa3,52(a0)
    6db2:	6570                	flw	fa2,76(a0)
    6db4:	432d                	li	t1,11
    6db6:	2043432b          	0x2043432b
    6dba:	6f6d                	lui	t5,0x1b
    6dbc:	6564                	flw	fs1,76(a0)
    6dbe:	6e20                	flw	fs0,88(a2)
    6dc0:	6920746f          	jal	s0,e452 <_data_lma+0x71e6>
    6dc4:	706d                	c.lui	zero,0xffffb
    6dc6:	656c                	flw	fa1,76(a0)
    6dc8:	656d                	lui	a0,0x1b
    6dca:	746e                	flw	fs0,248(sp)
    6dcc:	6465                	lui	s0,0x19
    6dce:	0000                	unimp
    6dd0:	6e49                	lui	t3,0x12
    6dd2:	6176                	flw	ft2,92(sp)
    6dd4:	696c                	flw	fa1,84(a0)
    6dd6:	2064                	lbu	s1,6(s0)
    6dd8:	6f6d                	lui	t5,0x1b
    6dda:	6564                	flw	fs1,76(a0)
    6ddc:	e220                	fsw	fs0,64(a2)
    6dde:	9480                	0x9480
    6de0:	7520                	flw	fs0,104(a0)
    6de2:	31206573          	csrrsi	a0,0x312,0
    6de6:	2c31                	jal	7002 <MySerNumInfo+0xca>
    6de8:	3231                	jal	66f4 <_strtol_l.isra.0+0x114>
    6dea:	322c                	lbu	a1,3(a2)
    6dec:	2c30                	lbu	a2,26(s0)
    6dee:	3132                	lhu	a2,34(a0)
    6df0:	0000                	unimp
    6df2:	0000                	unimp
    6df4:	4f52505b          	0x4f52505b
    6df8:	4f54                	lw	a3,28(a4)
    6dfa:	205d                	jal	6ea0 <__malloc_unlock+0x748>
    6dfc:	7872                	flw	fa6,60(sp)
    6dfe:	7220                	flw	fs0,96(a2)
    6e00:	7365                	lui	t1,0xffff9
    6e02:	6f70                	flw	fa2,92(a4)
    6e04:	736e                	flw	ft6,248(sp)
    6e06:	3a65                	jal	67be <__malloc_unlock+0x66>
    6e08:	2520                	lbu	s0,10(a0)
    6e0a:	000a0d73          	0xa0d73
    6e0e:	0000                	unimp
    6e10:	6e55                	lui	t3,0x15
    6e12:	776f6e6b          	0x776f6e6b
    6e16:	206e                	lhu	a1,6(s0)
    6e18:	6d6d6f63          	bltu	s10,s6,74f6 <_data_lma+0x28a>
    6e1c:	6e61                	lui	t3,0x18
    6e1e:	0064                	addi	s1,sp,12
    6e20:	4f52505b          	0x4f52505b
    6e24:	4f54                	lw	a3,28(a4)
    6e26:	205d                	jal	6ecc <MyCfgDescr+0x14>
    6e28:	7266                	flw	ft4,120(sp)
    6e2a:	6d61                	lui	s10,0x18
    6e2c:	2065                	jal	6ed4 <MyCfgDescr+0x1c>
    6e2e:	7265                	lui	tp,0xffff9
    6e30:	2072                	lhu	a2,6(s0)
    6e32:	6425                	lui	s0,0x9
    6e34:	203a                	lhu	a4,2(s0)
    6e36:	7325                	lui	t1,0xfffe9
    6e38:	0a0d                	addi	s4,s4,3
    6e3a:	0000                	unimp
    6e3c:	253c                	lbu	a5,10(a0)
    6e3e:	64252c73          	csrrs	s8,0x642,a0
    6e42:	7b3e                	flw	fs6,236(sp)
    6e44:	6322                	flw	ft6,8(sp)
    6e46:	616d6d6f          	jal	s10,dd45c <_data_lma+0xd61f0>
    6e4a:	646e                	flw	fs0,216(sp)
    6e4c:	3a22                	lhu	s0,50(a2)
    6e4e:	2522                	lhu	s0,10(a0)
    6e50:	2264                	lbu	s1,6(a2)
    6e52:	222c                	lbu	a1,2(a2)
    6e54:	6361                	lui	t1,0x18
    6e56:	223a226b          	0x223a226b
    6e5a:	7265                	lui	tp,0xffff9
    6e5c:	6f72                	flw	ft10,28(sp)
    6e5e:	2272                	lhu	a2,6(a2)
    6e60:	222c                	lbu	a1,2(a2)
    6e62:	65646f63          	bltu	s0,s6,74c0 <_data_lma+0x254>
    6e66:	3a22                	lhu	s0,50(a2)
    6e68:	2522                	lhu	s0,10(a0)
    6e6a:	2264                	lbu	s1,6(a2)
    6e6c:	222c                	lbu	a1,2(a2)
    6e6e:	736d                	lui	t1,0xffffb
    6e70:	223a2267          	0x223a2267
    6e74:	7325                	lui	t1,0xfffe9
    6e76:	7d22                	flw	fs10,40(sp)
    6e78:	0000                	unimp
    6e7a:	0000                	unimp
    6e7c:	253c                	lbu	a5,10(a0)
    6e7e:	64252c73          	csrrs	s8,0x642,a0
    6e82:	7b3e                	flw	fs6,236(sp)
    6e84:	6322                	flw	ft6,8(sp)
    6e86:	616d6d6f          	jal	s10,dd49c <_data_lma+0xd6230>
    6e8a:	646e                	flw	fs0,216(sp)
    6e8c:	3a22                	lhu	s0,50(a2)
    6e8e:	2522                	lhu	s0,10(a0)
    6e90:	2264                	lbu	s1,6(a2)
    6e92:	222c                	lbu	a1,2(a2)
    6e94:	6361                	lui	t1,0x18
    6e96:	223a226b          	0x223a226b
    6e9a:	7d226b6f          	jal	s6,2d66c <_data_lma+0x26400>
    6e9e:	0000                	unimp
    6ea0:	5355                	li	t1,-11
    6ea2:	2d42                	lhu	s0,28(a0)
    6ea4:	20434443          	fmadd.s	fs0,ft6,ft4,ft4,rmm
    6ea8:	6e69                	lui	t3,0x1a
    6eaa:	7469                	lui	s0,0xffffa
    6eac:	6169                	addi	sp,sp,208
    6eae:	696c                	flw	fa1,84(a0)
    6eb0:	657a                	flw	fa0,156(sp)
    6eb2:	0d64                	addi	s1,sp,668
    6eb4:	0000                	unimp
	...

00006eb8 <MyCfgDescr>:
    6eb8:	0209 0043 0102 8000 0932 0004 0100 0202     ..C.....2.......
    6ec8:	0001 2405 1000 0501 0124 0100 2404 0202     ...$....$....$..
    6ed8:	2405 0006 0701 8105 4003 0100 0409 0001     .$.......@......
    6ee8:	0a02 0000 0700 0205 4002 0000 0507 0283     .........@......
    6ef8:	0040 0000                                   @...

00006efc <MyDevDescr>:
    6efc:	0112 0110 0002 4000 1a86 fe0c 0001 0201     .......@........
    6f0c:	0100 0000                                   ....

00006f10 <MyManuInfo>:
    6f10:	030e 0077 0063 0068 002e 0063 006e 0000     ..w.c.h...c.n...

00006f20 <MyProdInfo>:
    6f20:	0316 0055 0053 0042 0020 0053 0065 0072     ..U.S.B. .S.e.r.
    6f30:	0069 0061 006c 0000                         i.a.l...

00006f38 <MySerNumInfo>:
    6f38:	0316 0030 0031 0032 0033 0034 0035 0036     ..0.1.2.3.4.5.6.
    6f48:	0037 0038 0039 0000 6e28 6c75 296c 0000     7.8.9...(null)..
    6f58:	da9a ffff d91e ffff da2e ffff da36 ffff     ............6...
    6f68:	da2e ffff d94e ffff da2e ffff da36 ffff     ....N.......6...
    6f78:	d91e ffff d91e ffff d94e ffff da36 ffff     ........N...6...
    6f88:	da90 ffff da90 ffff da90 ffff d94e ffff     ............N...
    6f98:	e092 ffff df84 ffff df84 ffff df82 ffff     ................
    6fa8:	df8a ffff df8a ffff df50 ffff df82 ffff     ........P.......
    6fb8:	df8a ffff df50 ffff df8a ffff df82 ffff     ....P...........
    6fc8:	e07e ffff e07e ffff e07e ffff df50 ffff     ~...~...~...P...
    6fd8:	ef36 ffff ee60 ffff ef30 ffff ee68 ffff     6...`...0...h...
    6fe8:	ef30 ffff ee2e ffff ef30 ffff ee68 ffff     0.......0...h...
    6ff8:	ee60 ffff ee60 ffff ee2e ffff ee68 ffff     `...`.......h...
    7008:	ee6e ffff ee6e ffff ee6e ffff ee2e ffff     n...n...n.......
    7018:	ee20 ffff ee20 ffff eef0 ffff efcc ffff      ... ...........
    7028:	eef0 ffff edee ffff eef0 ffff efcc ffff     ................
    7038:	ee20 ffff ee20 ffff edee ffff efcc ffff      ... ...........
    7048:	ee2e ffff ee2e ffff ee2e ffff edee ffff     ................

00007058 <__clz_tab>:
    7058:	0100 0202 0303 0303 0404 0404 0404 0404     ................
    7068:	0505 0505 0505 0505 0505 0505 0505 0505     ................
    7078:	0606 0606 0606 0606 0606 0606 0606 0606     ................
    7088:	0606 0606 0606 0606 0606 0606 0606 0606     ................
    7098:	0707 0707 0707 0707 0707 0707 0707 0707     ................
    70a8:	0707 0707 0707 0707 0707 0707 0707 0707     ................
    70b8:	0707 0707 0707 0707 0707 0707 0707 0707     ................
    70c8:	0707 0707 0707 0707 0707 0707 0707 0707     ................
    70d8:	0808 0808 0808 0808 0808 0808 0808 0808     ................
    70e8:	0808 0808 0808 0808 0808 0808 0808 0808     ................
    70f8:	0808 0808 0808 0808 0808 0808 0808 0808     ................
    7108:	0808 0808 0808 0808 0808 0808 0808 0808     ................
    7118:	0808 0808 0808 0808 0808 0808 0808 0808     ................
    7128:	0808 0808 0808 0808 0808 0808 0808 0808     ................
    7138:	0808 0808 0808 0808 0808 0808 0808 0808     ................
    7148:	0808 0808 0808 0808 0808 0808 0808 0808     ................
    7158:	0043 0000 4f50 4953 0058 0000 002e 0000     C...POSIX.......

00007168 <_ctype_>:
    7168:	2000 2020 2020 2020 2020 2828 2828 2028     .         ((((( 
    7178:	2020 2020 2020 2020 2020 2020 2020 2020                     
    7188:	8820 1010 1010 1010 1010 1010 1010 1010      ...............
    7198:	0410 0404 0404 0404 0404 1004 1010 1010     ................
    71a8:	1010 4141 4141 4141 0101 0101 0101 0101     ..AAAAAA........
    71b8:	0101 0101 0101 0101 0101 0101 1010 1010     ................
    71c8:	1010 4242 4242 4242 0202 0202 0202 0202     ..BBBBBB........
    71d8:	0202 0202 0202 0202 0202 0202 1010 1010     ................
    71e8:	0020 0000 0000 0000 0000 0000 0000 0000      ...............
	...
