
CH32V303CBT.elf:     file format elf32-littleriscv
CH32V303CBT.elf
architecture: riscv:rv32, flags 0x00000112:
EXEC_P, HAS_SYMS, D_PAGED
start address 0x00000000

Program Header:
    LOAD off    0x00001000 vaddr 0x00000000 paddr 0x00000000 align 2**12
         filesz 0x000043ec memsz 0x000043ec flags r-x
    LOAD off    0x00006000 vaddr 0x20000000 paddr 0x000043ec align 2**12
         filesz 0x000000b8 memsz 0x00001714 flags rw-
    LOAD off    0x00006800 vaddr 0x20007800 paddr 0x20007800 align 2**12
         filesz 0x00000000 memsz 0x00000800 flags rw-

Sections:
Idx Name          Size      VMA       LMA       File off  Algn
  0 .init         00000004  00000000  00000000  00001000  2**1
                  CONTENTS, ALLOC, LOAD, READONLY, CODE
  1 .vector       000001bc  00000004  00000004  00001004  2**1
                  CONTENTS, ALLOC, LOAD, READONLY, CODE
  2 .text         0000422c  000001c0  000001c0  000011c0  2**2
                  CONTENTS, ALLOC, LOAD, READONLY, CODE
  3 .fini         00000000  000043ec  000043ec  000060b8  2**0
                  CONTENTS, ALLOC, LOAD, CODE
  4 .dalign       00000000  20000000  20000000  000060b8  2**0
                  CONTENTS
  5 .dlalign      00000000  000043ec  000043ec  000060b8  2**0
                  CONTENTS
  6 .data         000000b8  20000000  000043ec  00006000  2**2
                  CONTENTS, ALLOC, LOAD, DATA
  7 .bss          0000165c  200000b8  000044a4  000060b8  2**2
                  ALLOC
  8 .stack        00000800  20007800  20007800  00006800  2**0
                  ALLOC
  9 .debug_info   0001b7cf  00000000  00000000  000060b8  2**0
                  CONTENTS, READONLY, DEBUGGING
 10 .debug_abbrev 000049c7  00000000  00000000  00021887  2**0
                  CONTENTS, READONLY, DEBUGGING
 11 .debug_loc    00006bbf  00000000  00000000  0002624e  2**0
                  CONTENTS, READONLY, DEBUGGING
 12 .debug_aranges 00000c98  00000000  00000000  0002ce10  2**3
                  CONTENTS, READONLY, DEBUGGING
 13 .debug_ranges 00000f50  00000000  00000000  0002daa8  2**3
                  CONTENTS, READONLY, DEBUGGING
 14 .debug_line   000138aa  00000000  00000000  0002e9f8  2**0
                  CONTENTS, READONLY, DEBUGGING
 15 .debug_str    00004282  00000000  00000000  000422a2  2**0
                  CONTENTS, READONLY, DEBUGGING
 16 .comment      00000033  00000000  00000000  00046524  2**0
                  CONTENTS, READONLY
 17 .debug_frame  0000213c  00000000  00000000  00046558  2**2
                  CONTENTS, READONLY, DEBUGGING
SYMBOL TABLE:
00000000 l    d  .init	00000000 .init
00000004 l    d  .vector	00000000 .vector
000001c0 l    d  .text	00000000 .text
000043ec l    d  .fini	00000000 .fini
20000000 l    d  .dalign	00000000 .dalign
000043ec l    d  .dlalign	00000000 .dlalign
20000000 l    d  .data	00000000 .data
200000b8 l    d  .bss	00000000 .bss
20007800 l    d  .stack	00000000 .stack
00000000 l    d  .debug_info	00000000 .debug_info
00000000 l    d  .debug_abbrev	00000000 .debug_abbrev
00000000 l    d  .debug_loc	00000000 .debug_loc
00000000 l    d  .debug_aranges	00000000 .debug_aranges
00000000 l    d  .debug_ranges	00000000 .debug_ranges
00000000 l    d  .debug_line	00000000 .debug_line
00000000 l    d  .debug_str	00000000 .debug_str
00000000 l    d  .comment	00000000 .comment
00000000 l    d  .debug_frame	00000000 .debug_frame
00000000 l    df *ABS*	00000000 ./Startup/startup_ch32v30x_D8.o
00000004 l       .vector	00000000 _vector_base
00000000 l    df *ABS*	00000000 ch32v30x_it.c
00000000 l    df *ABS*	00000000 main.c
00000000 l    df *ABS*	00000000 system_ch32v30x.c
00000000 l    df *ABS*	00000000 ch32v30x_dbgmcu.c
00000000 l    df *ABS*	00000000 ch32v30x_dma.c
00000000 l    df *ABS*	00000000 ch32v30x_exti.c
00000000 l    df *ABS*	00000000 ch32v30x_gpio.c
00000000 l    df *ABS*	00000000 ch32v30x_i2c.c
00000000 l    df *ABS*	00000000 ch32v30x_misc.c
00000000 l    df *ABS*	00000000 ch32v30x_rcc.c
2000001c l     O .data	00000010 APBAHBPrescTable
20000094 l     O .data	00000004 ADCPrescTable
00000000 l    df *ABS*	00000000 ch32v30x_tim.c
00000000 l    df *ABS*	00000000 ch32v30x_usart.c
00000000 l    df *ABS*	00000000 cJSON.c
20000098 l     O .data	00000004 cJSON_free
2000009c l     O .data	00000004 cJSON_malloc
00000000 l    df *ABS*	00000000 ch32v30x_usbfs_device.c
200000a0 l     O .data	00000007 LineCoding
00000000 l    df *ABS*	00000000 dac8571.c
00000000 l    df *ABS*	00000000 i2c_util.c
00001568 l     F .text	0000003c i2c_timeout_start
000015a4 l     F .text	00000014 i2c_timeout_stop
000015b8 l     F .text	000000b8 i2c_wait_event
00001670 l     F .text	000000a2 i2c_write_once
00001712 l     F .text	0000006a i2c_wait_rxne
0000177c l     F .text	0000012a i2c_read_once
00000000 l    df *ABS*	00000000 ina226.c
00000000 l    df *ABS*	00000000 protocol.c
00001b1a l     F .text	00000022 cjson_arena_alloc
20000308 l     O .bss	00001000 cjson_pool
00001b3c l     F .text	00000002 cjson_arena_free
200000ec l     O .bss	00000004 cjson_pool_used
00000000 l    df *ABS*	00000000 usb_cdc.c
00000000 l    df *ABS*	00000000 debug.c
200000f8 l     O .bss	00000002 p_ms
200000fa l     O .bss	00000001 p_us
200000a8 l     O .data	00000004 curbrk.5518
00000000 l    df *ABS*	00000000 printfloat.c
00000000 l    df *ABS*	00000000 libgcc2.c
00000000 l    df *ABS*	00000000 libgcc2.c
00000000 l    df *ABS*	00000000 ledf2.c
00000000 l    df *ABS*	00000000 muldf3.c
00000000 l    df *ABS*	00000000 subdf3.c
00000000 l    df *ABS*	00000000 fixdfdi.c
00000000 l    df *ABS*	00000000 floatdidf.c
00000000 l    df *ABS*	00000000 libgcc2.c
00000000 l    df *ABS*	00000000 malloc.c
00000000 l    df *ABS*	00000000 memcpy.c
00000000 l    df *ABS*	00000000 nano-mallocr.c
00000000 l    df *ABS*	00000000 nano-mallocr.c
00000000 l    df *ABS*	00000000 sbrkr.c
00000000 l    df *ABS*	00000000 mlock.c
00000000 l    df *ABS*	00000000 usb_desc.c
00000000 l    df *ABS*	00000000 libgcc2.c
00000000 l    df *ABS*	00000000 impure.c
2000002c l     O .data	00000060 impure_data
00000000 l    df *ABS*	00000000 fan.c
00000000 l    df *ABS*	00000000 reent.c
00002270  w    F .text	000000fc printDouble
00000696  w      .text	00000000 EXTI2_IRQHandler
00001f3a g     F .text	00000016 putchar
200000f6 g     O .bss	00000002 rx_tail
00000696  w      .text	00000000 TIM8_TRG_COM_IRQHandler
00000696  w      .text	00000000 TIM8_CC_IRQHandler
0000428c g     O .text	00000016 MySerNumInfo
200000d8 g     O .bss	00000002 USBFS_SetupReqValue
00000730 g     F .text	00000014 DMA_Cmd
00000696  w      .text	00000000 UART8_IRQHandler
0000236c  w    F .text	00000358 print
00003bb4 g     F .text	000001b2 .hidden __floatdidf
000026c4  w    F .text	00000024 printf
20000890 g       .data	00000000 __global_pointer$
000001c8 g     F .text	00000028 .hidden __riscv_save_8
00000696  w      .text	00000000 TIM1_CC_IRQHandler
000009c0 g     F .text	00000008 I2C_ReceiveData
00000222 g     F .text	00000010 HardFault_Handler
200000e4 g     O .bss	00000004 tacho_period_ticks
00002070  w    F .text	000000e6 printInt
00004040 g     F .text	00000002 __malloc_unlock
00000214 g     F .text	0000000c .hidden __riscv_restore_3
00000696  w      .text	00000000 TIM6_IRQHandler
00000696  w      .text	00000000 SysTick_Handler
00000a34 g     F .text	0000005c NVIC_Init
00000696  w      .text	00000000 PVD_IRQHandler
00000696  w      .text	00000000 SDIO_IRQHandler
00000696  w      .text	00000000 TIM9_BRK_IRQHandler
00000200 g     F .text	00000020 .hidden __riscv_restore_10
200000bc g     O .bss	00000002 last_dac_value
00000696  w      .text	00000000 DMA2_Channel8_IRQHandler
00000220 g     F .text	00000002 NMI_Handler
00000696  w      .text	00000000 EXTI3_IRQHandler
000001c8 g     F .text	00000028 .hidden __riscv_save_11
00000726 g     F .text	0000000a DBGMCU_GetCHIPID
00001a88 g     F .text	0000006c i2c_util_read
00000d72 g     F .text	00000042 USBFS_RCC_Init
00000d1c g     F .text	0000000a USART_GetFlagStatus
00000696  w      .text	00000000 DMA2_Channel9_IRQHandler
00000696  w      .text	00000000 TIM10_CC_IRQHandler
20001710 g     O .bss	00000004 errno
200000b8 g       .bss	00000000 _sbss
00000800 g       *ABS*	00000000 __stack_size
200000d4 g     O .bss	00000002 USBFS_SetupReqLen
00001e76 g     F .text	0000005a USART_Printf_Init
00000f60 g     F .text	000005e4 USBFS_IRQHandler
000018a6 g     F .text	0000008c i2c_util_init
00000214 g     F .text	0000000c .hidden __riscv_restore_2
00001d0a g     F .text	00000042 ring_buffer_pop
00004250 g     O .text	00000012 MyDevDescr
00003de8 g     F .text	000000b2 memcpy
00002156  w    F .text	0000011a printLongLongInt
00002e4e g     F .text	000000b6 .hidden __ltdf2
00000696  w      .text	00000000 EXTI0_IRQHandler
00000696  w      .text	00000000 I2C2_EV_IRQHandler
00000696  w      .text	00000000 TIM10_TRG_COM_IRQHandler
20000204 g     O .bss	00000101 USART_DMA_CTRL
000026e8  w    F .text	0000004a puts
20000090 g     O .data	00000004 SystemCoreClock
20000144 g     O .bss	00000040 USBFS_EP1_Buf
00000d14 g     F .text	00000008 USART_ReceiveData
00003dd4 g     F .text	0000000a malloc
00001af4 g     F .text	00000026 ina226_check_alert
00001a22 g     F .text	00000066 i2c_util_write
00000004 g       .init	00000000 _einit
00000c26 g     F .text	0000000c TIM_ClearITPendingBit
00000744 g     F .text	00000004 DMA_SetCurrDataCounter
00000bb4 g     F .text	0000001e RCC_APB2PeriphClockCmd
000001c0 g     F .text	00000030 .hidden __riscv_save_12
00000696  w      .text	00000000 ADC1_2_IRQHandler
00000786 g     F .text	000000c0 GPIO_Init
00000696  w      .text	00000000 Break_Point_Handler
200000f4 g     O .bss	00000001 rx_overflow
00000200 g     F .text	00000020 .hidden __riscv_restore_11
200000c0 g     O .bss	00000004 NVIC_Priority_Group
00000696  w      .text	00000000 SPI1_IRQHandler
00000cc0 g     F .text	00000016 USART_Cmd
0000400c g     F .text	00000032 _sbrk_r
000001f0 g     F .text	0000000c .hidden __riscv_save_1
00000696  w      .text	00000000 TAMPER_IRQHandler
200000b0 g     O .data	00000004 MyLangDescr
00000214 g     F .text	0000000c .hidden __riscv_restore_0
000001d6 g     F .text	0000001a .hidden __riscv_save_7
200000ea g     O .bss	00000001 tacho_valid
00000774 g     F .text	00000008 DMA_ClearITPendingBit
00000696  w      .text	00000000 TIM8_UP_IRQHandler
00000bd2 g     F .text	0000001e RCC_APB1PeriphClockCmd
00000696  w      .text	00000000 Ecall_M_Mode_Handler
0000420c g     O .text	00000043 MyCfgDescr
20007800 g       .stack	00000000 _heap_end
200000b8 g     O .bss	00000002 fault_source_mask
00002ac4 g     F .text	0000038a .hidden __umoddi3
00001e0a g     F .text	00000036 Delay_Us
0000020a g     F .text	00000016 .hidden __riscv_restore_5
00001b3e g     F .text	0000012c protocol_init
00000696  w      .text	00000000 DMA2_Channel2_IRQHandler
00000b96 g     F .text	0000001e RCC_AHBPeriphClockCmd
00002732 g     F .text	00000392 .hidden __udivdi3
00000696  w      .text	00000000 DMA1_Channel4_IRQHandler
000009bc g     F .text	00000004 I2C_SendData
00001f10 g     F .text	0000002a _sbrk
00004264 g     O .text	0000000e MyManuInfo
0000085a g     F .text	000000fc I2C_Init
00000696  w      .text	00000000 TIM9_UP_IRQHandler
0000020a g     F .text	00000016 .hidden __riscv_restore_6
00000696  w      .text	00000000 USART3_IRQHandler
0000077c g     F .text	0000000a EXTI_ClearITPendingBit
00000696  w      .text	00000000 RTC_IRQHandler
200000c5 g     O .bss	00000001 USBFS_DevConfig
20001714 g       .bss	00000000 _ebss
00000d26 g     F .text	0000003c USART_GetITStatus
00001d4c g     F .text	0000001e usb_cdc_init
00000696  w      .text	00000000 DMA1_Channel7_IRQHandler
00000696  w      .text	00000000 CAN1_RX1_IRQHandler
00001de0 g     F .text	0000002a Delay_Init
00000696  w      .text	00000000 UART5_IRQHandler
200000e0 g     O .bss	00000004 tacho_last_capture
200000f0 g     O .bss	00000001 rx_framing_err
200000d2 g     O .bss	00000002 USBFS_SetupReqIndex
00000696  w      .text	00000000 TIM4_IRQHandler
00002e4e g     F .text	000000b6 .hidden __ledf2
000001c8 g     F .text	00000028 .hidden __riscv_save_9
00000850 g     F .text	0000000a GPIO_WriteBit
00000696  w      .text	00000000 DMA2_Channel1_IRQHandler
200000d6 g     O .bss	00000001 USBFS_SetupReqType
0000096e g     F .text	0000001a I2C_GenerateSTART
000001d6 g     F .text	0000001a .hidden __riscv_save_4
00000696  w      .text	00000000 I2C1_EV_IRQHandler
00000c0e g     F .text	00000018 TIM_GetITStatus
200000c8 g     O .bss	00000008 USBFS_Endp_Busy
00001932 g     F .text	000000f0 i2c_util_bus_recovery
00000a90 g     F .text	00000106 RCC_GetClocksFreq
00000696  w      .text	00000000 DMA1_Channel6_IRQHandler
00003d66 g     F .text	0000006e .hidden __clzsi2
00000696  w      .text	00000000 UART4_IRQHandler
00000696  w      .text	00000000 DMA2_Channel4_IRQHandler
00000c32 g     F .text	0000008e USART_Init
00003e9a g     F .text	000000a4 _free_r
000002e0 g     F .text	0000004e TIM3_IRQHandler
00000696  w      .text	00000000 RCC_IRQHandler
000001f0 g     F .text	0000000c .hidden __riscv_save_3
00000696  w      .text	00000000 TIM1_TRG_COM_IRQHandler
00000696  w      .text	00000000 DMA1_Channel1_IRQHandler
00000000 g       .init	00000000 _start
00000696  w      .text	00000000 DMA2_Channel7_IRQHandler
2000000c g     O .data	00000010 AHBPrescTable
000009f0 g     F .text	00000032 I2C_GetFlagStatus
00000e76 g     F .text	000000ea USBFS_Endp_DataUp
200000e8 g     O .bss	00000002 tacho_timeout
00001f98  w    F .text	000000d8 prints
00000696  w      .text	00000000 EXTI15_10_IRQHandler
00000d62 g     F .text	00000010 cJSON_InitHooks
00000cd6 g     F .text	00000036 USART_ITConfig
200000d0 g     O .bss	00000001 USBFS_SetupReqCode
20000184 g     O .bss	00000040 USBFS_EP2_Buf
20000000 g     O .data	0000000a devs
00000956 g     F .text	00000018 I2C_Cmd
00000696  w      .text	00000000 TIM7_IRQHandler
200000c6 g     O .bss	00000001 USBFS_DevEnumStatus
00000a22 g     F .text	0000000c I2C_ClearFlag
20000000 g       .dalign	00000000 _data_vma
00000696  w      .text	00000000 TIM5_IRQHandler
00000696  w      .text	00000000 EXTI9_5_IRQHandler
200000c4 g     O .bss	00000001 USBFS_DevAddr
00002f04 g     F .text	000004b8 .hidden __muldf3
000001c8 g     F .text	00000028 .hidden __riscv_save_10
000009c8 g     F .text	00000012 I2C_Send7bitAddress
0000403e g     F .text	00000002 __malloc_lock
0000020a g     F .text	00000016 .hidden __riscv_restore_4
00000200 g     F .text	00000020 .hidden __riscv_restore_8
000001d6 g     F .text	0000001a .hidden __riscv_save_6
00000696  w      .text	00000000 SPI2_IRQHandler
00000200 g     F .text	00000020 .hidden __riscv_restore_9
0000020a g     F .text	00000016 .hidden __riscv_restore_7
0000032e g     F .text	000000f4 main
00000696  w      .text	00000000 TIM10_BRK_IRQHandler
00000696  w      .text	00000000 TIM9_CC_IRQHandler
00001c6a g     F .text	000000a0 ring_buffer_push_huge
00000696  w      .text	00000000 DMA2_Channel5_IRQHandler
00003f3e g     F .text	000000ce _malloc_r
200000c7 g     O .bss	00000001 USBFS_DevSleepStatus
000004b2 g     F .text	00000068 DMA1_Channel5_IRQHandler
00000232 g     F .text	000000ae EXTI4_IRQHandler
00001e40 g     F .text	00000036 Delay_Ms
00000e20 g     F .text	00000056 USBFS_Device_Init
00000696  w      .text	00000000 USB_LP_CAN1_RX0_IRQHandler
00004274 g     O .text	00000016 MyProdInfo
00000c0a g     F .text	00000004 TIM_GetCapture2
00000db4 g     F .text	0000006c USBFS_Device_Endp_Init
0000051a g     F .text	000000ea SystemInit
00000696  w      .text	00000000 RNG_IRQHandler
00001f50  w    F .text	00000048 printchar
00000696  w      .text	00000000 USB_HP_CAN1_TX_IRQHandler
000042ec g     O .text	00000100 .hidden __clz_tab
200000ba g     O .bss	00000001 fault_triggered
00000000 g       .init	00000000 _sinit
00003af8 g     F .text	000000bc .hidden __fixdfdi
00000696  w      .text	00000000 DMA1_Channel3_IRQHandler
200000ac g     O .data	00000004 _impure_ptr
00000696  w      .text	00000000 TIM1_UP_IRQHandler
00001d6a g     F .text	00000076 usb_cdc_write
00000696  w      .text	00000000 WWDG_IRQHandler
00000696  w      .text	00000000 DMA2_Channel11_IRQHandler
00000696  w      .text	00000000 Ecall_U_Mode_Handler
00000696  w      .text	00000000 DMA2_Channel6_IRQHandler
00000696  w      .text	00000000 TIM2_IRQHandler
20008000 g       .stack	00000000 _eusrstack
000001f0 g     F .text	0000000c .hidden __riscv_save_2
00000696  w      .text	00000000 SW_Handler
00000696  w      .text	00000000 TIM1_BRK_IRQHandler
00000d0c g     F .text	00000008 USART_SendData
00001544 g     F .text	00000024 dac8571_set_output
00000696  w      .text	00000000 DMA2_Channel10_IRQHandler
00000696  w      .text	00000000 EXTI1_IRQHandler
000001d6 g     F .text	0000001a .hidden __riscv_save_5
00001ed0 g     F .text	00000040 _write
20000104 g     O .bss	00000040 USBFS_EP0_Buf
200000b8 g       .data	00000000 _edata
200000dc g     O .bss	00000004 pUSBFS_Descr
20001714 g       .bss	00000000 _end
00000696  w      .text	00000000 RTCAlarm_IRQHandler
000043ec g       .dlalign	00000000 _data_lma
00000696  w      .text	00000000 TIM10_UP_IRQHandler
00000696  w      .text	00000000 TIM9_TRG_COM_IRQHandler
00000696  w      .text	00000000 UART7_IRQHandler
00000bf0 g     F .text	0000001a RCC_USBFSCLKConfig
200000f2 g     O .bss	00000002 rx_head
00000696  w      .text	00000000 USART2_IRQHandler
00000696  w      .text	00000000 UART6_IRQHandler
00000604 g     F .text	00000092 SystemCoreClockUpdate
00000696  w      .text	00000000 I2C2_ER_IRQHandler
00000696  w      .text	00000000 DMA1_Channel2_IRQHandler
000001fc g     F .text	00000024 .hidden __riscv_restore_12
00000696  w      .text	00000000 TIM8_BRK_IRQHandler
00000748 g     F .text	0000002c DMA_ClearFlag
00000698  w      .text	00000000 handle_reset
00000696  w      .text	00000000 CAN1_SCE_IRQHandler
000001f0 g     F .text	0000000c .hidden __riscv_save_0
00000696  w      .text	00000000 FLASH_IRQHandler
00000422 g     F .text	00000090 USART1_IRQHandler
000009a2 g     F .text	0000001a I2C_AcknowledgeConfig
00000696  w      .text	00000000 SPI3_IRQHandler
200000f5 g     O .bss	00000001 rx_parity_err
20000100 g     O .bss	00000004 __malloc_sbrk_start
000009da g     F .text	00000016 I2C_CheckEvent
00000988 g     F .text	0000001a I2C_GenerateSTOP
00000696  w      .text	00000000 I2C1_ER_IRQHandler
200001c4 g     O .bss	00000040 USBFS_EP3_Buf
00000a2e g     F .text	00000006 NVIC_PriorityGroupConfig
200000fc g     O .bss	00000004 __malloc_free_list
00000214 g     F .text	0000000c .hidden __riscv_restore_1
000033bc g     F .text	0000073c .hidden __subdf3
00000846 g     F .text	0000000a GPIO_ReadInputDataBit
20001308 g     O .bss	00000406 ring_buffer
00003dde g     F .text	0000000a free
00000696  w      .text	00000000 DMA2_Channel3_IRQHandler



Disassembly of section .init:

00000000 <_sinit>:
   0:	6980006f          	j	698 <handle_reset>

Disassembly of section .vector:

00000004 <_vector_base>:
	...
   c:	0220                	addi	s0,sp,264
   e:	0000                	unimp
  10:	0222                	slli	tp,tp,0x8
  12:	0000                	unimp
  14:	0000                	unimp
  16:	0000                	unimp
  18:	0696                	slli	a3,a3,0x5
	...
  22:	0000                	unimp
  24:	0696                	slli	a3,a3,0x5
  26:	0000                	unimp
  28:	0696                	slli	a3,a3,0x5
	...
  32:	0000                	unimp
  34:	0696                	slli	a3,a3,0x5
  36:	0000                	unimp
  38:	0000                	unimp
  3a:	0000                	unimp
  3c:	0696                	slli	a3,a3,0x5
  3e:	0000                	unimp
  40:	0000                	unimp
  42:	0000                	unimp
  44:	0696                	slli	a3,a3,0x5
  46:	0000                	unimp
  48:	0696                	slli	a3,a3,0x5
  4a:	0000                	unimp
  4c:	0696                	slli	a3,a3,0x5
  4e:	0000                	unimp
  50:	0696                	slli	a3,a3,0x5
  52:	0000                	unimp
  54:	0696                	slli	a3,a3,0x5
  56:	0000                	unimp
  58:	0696                	slli	a3,a3,0x5
  5a:	0000                	unimp
  5c:	0696                	slli	a3,a3,0x5
  5e:	0000                	unimp
  60:	0696                	slli	a3,a3,0x5
  62:	0000                	unimp
  64:	0696                	slli	a3,a3,0x5
  66:	0000                	unimp
  68:	0696                	slli	a3,a3,0x5
  6a:	0000                	unimp
  6c:	0232                	slli	tp,tp,0xc
  6e:	0000                	unimp
  70:	0696                	slli	a3,a3,0x5
  72:	0000                	unimp
  74:	0696                	slli	a3,a3,0x5
  76:	0000                	unimp
  78:	0696                	slli	a3,a3,0x5
  7a:	0000                	unimp
  7c:	0696                	slli	a3,a3,0x5
  7e:	0000                	unimp
  80:	04b2                	slli	s1,s1,0xc
  82:	0000                	unimp
  84:	0696                	slli	a3,a3,0x5
  86:	0000                	unimp
  88:	0696                	slli	a3,a3,0x5
  8a:	0000                	unimp
  8c:	0696                	slli	a3,a3,0x5
  8e:	0000                	unimp
  90:	0696                	slli	a3,a3,0x5
  92:	0000                	unimp
  94:	0696                	slli	a3,a3,0x5
  96:	0000                	unimp
  98:	0696                	slli	a3,a3,0x5
  9a:	0000                	unimp
  9c:	0696                	slli	a3,a3,0x5
  9e:	0000                	unimp
  a0:	0696                	slli	a3,a3,0x5
  a2:	0000                	unimp
  a4:	0696                	slli	a3,a3,0x5
  a6:	0000                	unimp
  a8:	0696                	slli	a3,a3,0x5
  aa:	0000                	unimp
  ac:	0696                	slli	a3,a3,0x5
  ae:	0000                	unimp
  b0:	0696                	slli	a3,a3,0x5
  b2:	0000                	unimp
  b4:	0696                	slli	a3,a3,0x5
  b6:	0000                	unimp
  b8:	02e0                	addi	s0,sp,332
  ba:	0000                	unimp
  bc:	0696                	slli	a3,a3,0x5
  be:	0000                	unimp
  c0:	0696                	slli	a3,a3,0x5
  c2:	0000                	unimp
  c4:	0696                	slli	a3,a3,0x5
  c6:	0000                	unimp
  c8:	0696                	slli	a3,a3,0x5
  ca:	0000                	unimp
  cc:	0696                	slli	a3,a3,0x5
  ce:	0000                	unimp
  d0:	0696                	slli	a3,a3,0x5
  d2:	0000                	unimp
  d4:	0696                	slli	a3,a3,0x5
  d6:	0000                	unimp
  d8:	0422                	slli	s0,s0,0x8
  da:	0000                	unimp
  dc:	0696                	slli	a3,a3,0x5
  de:	0000                	unimp
  e0:	0696                	slli	a3,a3,0x5
  e2:	0000                	unimp
  e4:	0696                	slli	a3,a3,0x5
  e6:	0000                	unimp
  e8:	0696                	slli	a3,a3,0x5
  ea:	0000                	unimp
  ec:	0000                	unimp
  ee:	0000                	unimp
  f0:	0696                	slli	a3,a3,0x5
  f2:	0000                	unimp
  f4:	0696                	slli	a3,a3,0x5
  f6:	0000                	unimp
  f8:	0696                	slli	a3,a3,0x5
  fa:	0000                	unimp
  fc:	0696                	slli	a3,a3,0x5
  fe:	0000                	unimp
 100:	0696                	slli	a3,a3,0x5
 102:	0000                	unimp
 104:	0000                	unimp
 106:	0000                	unimp
 108:	0696                	slli	a3,a3,0x5
 10a:	0000                	unimp
 10c:	0696                	slli	a3,a3,0x5
 10e:	0000                	unimp
 110:	0696                	slli	a3,a3,0x5
 112:	0000                	unimp
 114:	0696                	slli	a3,a3,0x5
 116:	0000                	unimp
 118:	0696                	slli	a3,a3,0x5
 11a:	0000                	unimp
 11c:	0696                	slli	a3,a3,0x5
 11e:	0000                	unimp
 120:	0696                	slli	a3,a3,0x5
 122:	0000                	unimp
 124:	0696                	slli	a3,a3,0x5
 126:	0000                	unimp
 128:	0696                	slli	a3,a3,0x5
 12a:	0000                	unimp
 12c:	0696                	slli	a3,a3,0x5
 12e:	0000                	unimp
 130:	0696                	slli	a3,a3,0x5
 132:	0000                	unimp
 134:	0696                	slli	a3,a3,0x5
	...
 14e:	0000                	unimp
 150:	0f60                	addi	s0,sp,924
	...
 15e:	0000                	unimp
 160:	0696                	slli	a3,a3,0x5
 162:	0000                	unimp
 164:	0696                	slli	a3,a3,0x5
 166:	0000                	unimp
 168:	0696                	slli	a3,a3,0x5
 16a:	0000                	unimp
 16c:	0696                	slli	a3,a3,0x5
 16e:	0000                	unimp
 170:	0696                	slli	a3,a3,0x5
 172:	0000                	unimp
 174:	0696                	slli	a3,a3,0x5
 176:	0000                	unimp
 178:	0696                	slli	a3,a3,0x5
 17a:	0000                	unimp
 17c:	0696                	slli	a3,a3,0x5
 17e:	0000                	unimp
 180:	0696                	slli	a3,a3,0x5
 182:	0000                	unimp
 184:	0696                	slli	a3,a3,0x5
 186:	0000                	unimp
 188:	0696                	slli	a3,a3,0x5
 18a:	0000                	unimp
 18c:	0696                	slli	a3,a3,0x5
 18e:	0000                	unimp
 190:	0696                	slli	a3,a3,0x5
 192:	0000                	unimp
 194:	0696                	slli	a3,a3,0x5
 196:	0000                	unimp
 198:	0696                	slli	a3,a3,0x5
 19a:	0000                	unimp
 19c:	0696                	slli	a3,a3,0x5
 19e:	0000                	unimp
 1a0:	0696                	slli	a3,a3,0x5
	...

Disassembly of section .text:

000001c0 <__riscv_save_12>:
     1c0:	7139                	addi	sp,sp,-64
     1c2:	4301                	li	t1,0
     1c4:	c66e                	sw	s11,12(sp)
     1c6:	a019                	j	1cc <__riscv_save_10+0x4>

000001c8 <__riscv_save_10>:
     1c8:	7139                	addi	sp,sp,-64
     1ca:	5341                	li	t1,-16
     1cc:	c86a                	sw	s10,16(sp)
     1ce:	ca66                	sw	s9,20(sp)
     1d0:	cc62                	sw	s8,24(sp)
     1d2:	ce5e                	sw	s7,28(sp)
     1d4:	a019                	j	1da <__riscv_save_4+0x4>

000001d6 <__riscv_save_4>:
     1d6:	7139                	addi	sp,sp,-64
     1d8:	5301                	li	t1,-32
     1da:	d05a                	sw	s6,32(sp)
     1dc:	d256                	sw	s5,36(sp)
     1de:	d452                	sw	s4,40(sp)
     1e0:	d64e                	sw	s3,44(sp)
     1e2:	d84a                	sw	s2,48(sp)
     1e4:	da26                	sw	s1,52(sp)
     1e6:	dc22                	sw	s0,56(sp)
     1e8:	de06                	sw	ra,60(sp)
     1ea:	40610133          	sub	sp,sp,t1
     1ee:	8282                	jr	t0

000001f0 <__riscv_save_0>:
     1f0:	1141                	addi	sp,sp,-16
     1f2:	c04a                	sw	s2,0(sp)
     1f4:	c226                	sw	s1,4(sp)
     1f6:	c422                	sw	s0,8(sp)
     1f8:	c606                	sw	ra,12(sp)
     1fa:	8282                	jr	t0

000001fc <__riscv_restore_12>:
     1fc:	4db2                	lw	s11,12(sp)
     1fe:	0141                	addi	sp,sp,16

00000200 <__riscv_restore_10>:
     200:	4d02                	lw	s10,0(sp)
     202:	4c92                	lw	s9,4(sp)
     204:	4c22                	lw	s8,8(sp)
     206:	4bb2                	lw	s7,12(sp)
     208:	0141                	addi	sp,sp,16

0000020a <__riscv_restore_4>:
     20a:	4b02                	lw	s6,0(sp)
     20c:	4a92                	lw	s5,4(sp)
     20e:	4a22                	lw	s4,8(sp)
     210:	49b2                	lw	s3,12(sp)
     212:	0141                	addi	sp,sp,16

00000214 <__riscv_restore_0>:
     214:	4902                	lw	s2,0(sp)
     216:	4492                	lw	s1,4(sp)
     218:	4422                	lw	s0,8(sp)
     21a:	40b2                	lw	ra,12(sp)
     21c:	0141                	addi	sp,sp,16
     21e:	8082                	ret

00000220 <NMI_Handler>:
     220:	a001                	j	220 <NMI_Handler>

00000222 <HardFault_Handler>:
     222:	beef07b7          	lui	a5,0xbeef0
     226:	e000e737          	lui	a4,0xe000e
     22a:	08078793          	addi	a5,a5,128 # beef0080 <_eusrstack+0x9eee8080>
     22e:	c73c                	sw	a5,72(a4)
     230:	a001                	j	230 <HardFault_Handler+0xe>

00000232 <EXTI4_IRQHandler>:
     232:	7179                	addi	sp,sp,-48
     234:	d622                	sw	s0,44(sp)
     236:	d24a                	sw	s2,36(sp)
     238:	20000937          	lui	s2,0x20000
     23c:	d426                	sw	s1,40(sp)
     23e:	d04e                	sw	s3,32(sp)
     240:	ce52                	sw	s4,28(sp)
     242:	cc56                	sw	s5,24(sp)
     244:	82818793          	addi	a5,gp,-2008 # 200000b8 <_edata>
     248:	00090493          	mv	s1,s2
     24c:	00079023          	sh	zero,0(a5)
     250:	00848a13          	addi	s4,s1,8
     254:	82818413          	addi	s0,gp,-2008 # 200000b8 <_edata>
     258:	00090993          	mv	s3,s2
     25c:	4a85                	li	s5,1
     25e:	00e10593          	addi	a1,sp,14
     262:	8526                	mv	a0,s1
     264:	00011723          	sh	zero,14(sp)
     268:	08d010ef          	jal	ra,1af4 <ina226_check_alert>
     26c:	ed09                	bnez	a0,286 <EXTI4_IRQHandler+0x54>
     26e:	00e11783          	lh	a5,14(sp)
     272:	0007da63          	bgez	a5,286 <EXTI4_IRQHandler+0x54>
     276:	309c                	lbu	a5,1(s1)
     278:	201a                	lhu	a4,0(s0)
     27a:	00fa97b3          	sll	a5,s5,a5
     27e:	8fd9                	or	a5,a5,a4
     280:	07c2                	slli	a5,a5,0x10
     282:	83c1                	srli	a5,a5,0x10
     284:	a01e                	sh	a5,0(s0)
     286:	0489                	addi	s1,s1,2
     288:	fd449be3          	bne	s1,s4,25e <EXTI4_IRQHandler+0x2c>
     28c:	08800493          	li	s1,136
     290:	8004b073          	csrc	0x800,s1
     294:	0000100f          	fence.i
     298:	4501                	li	a0,0
     29a:	2aa010ef          	jal	ra,1544 <dac8571_set_output>
     29e:	8004a073          	csrs	0x800,s1
     2a2:	4705                	li	a4,1
     2a4:	82e18523          	sb	a4,-2006(gp) # 200000ba <fault_triggered>
     2a8:	200e                	lhu	a1,0(s0)
     2aa:	0069c803          	lbu	a6,6(s3)
     2ae:	82c1d603          	lhu	a2,-2004(gp) # 200000bc <last_dac_value>
     2b2:	0029c703          	lbu	a4,2(s3)
     2b6:	0049c783          	lbu	a5,4(s3)
     2ba:	00094683          	lbu	a3,0(s2) # 20000000 <_data_vma>
     2be:	00004537          	lui	a0,0x4
     2c2:	04450513          	addi	a0,a0,68 # 4044 <__malloc_unlock+0x4>
     2c6:	3fe020ef          	jal	ra,26c4 <printf>
     2ca:	4541                	li	a0,16
     2cc:	2945                	jal	77c <EXTI_ClearITPendingBit>
     2ce:	5432                	lw	s0,44(sp)
     2d0:	54a2                	lw	s1,40(sp)
     2d2:	5912                	lw	s2,36(sp)
     2d4:	5982                	lw	s3,32(sp)
     2d6:	4a72                	lw	s4,28(sp)
     2d8:	4ae2                	lw	s5,24(sp)
     2da:	6145                	addi	sp,sp,48
     2dc:	30200073          	mret

000002e0 <TIM3_IRQHandler>:
     2e0:	1141                	addi	sp,sp,-16
     2e2:	c622                	sw	s0,12(sp)
     2e4:	40000437          	lui	s0,0x40000
     2e8:	4591                	li	a1,4
     2ea:	40040513          	addi	a0,s0,1024 # 40000400 <_eusrstack+0x1fff8400>
     2ee:	c426                	sw	s1,8(sp)
     2f0:	11f000ef          	jal	ra,c0e <TIM_GetITStatus>
     2f4:	c905                	beqz	a0,324 <TIM3_IRQHandler+0x44>
     2f6:	40040513          	addi	a0,s0,1024
     2fa:	111000ef          	jal	ra,c0a <TIM_GetCapture2>
     2fe:	84aa                	mv	s1,a0
     300:	4591                	li	a1,4
     302:	40040513          	addi	a0,s0,1024
     306:	121000ef          	jal	ra,c26 <TIM_ClearITPendingBit>
     30a:	8501a783          	lw	a5,-1968(gp) # 200000e0 <tacho_last_capture>
     30e:	40f487b3          	sub	a5,s1,a5
     312:	84f1aa23          	sw	a5,-1964(gp) # 200000e4 <tacho_period_ticks>
     316:	8491a823          	sw	s1,-1968(gp) # 200000e0 <tacho_last_capture>
     31a:	4705                	li	a4,1
     31c:	84e18d23          	sb	a4,-1958(gp) # 200000ea <tacho_valid>
     320:	84019c23          	sh	zero,-1960(gp) # 200000e8 <tacho_timeout>
     324:	4432                	lw	s0,12(sp)
     326:	44a2                	lw	s1,8(sp)
     328:	0141                	addi	sp,sp,16
     32a:	30200073          	mret

0000032e <main>:
     32e:	ec3ff2ef          	jal	t0,1f0 <__riscv_save_0>
     332:	4509                	li	a0,2
     334:	2ded                	jal	a2e <NVIC_PriorityGroupConfig>
     336:	24f9                	jal	604 <SystemCoreClockUpdate>
     338:	2a9010ef          	jal	ra,1de0 <Delay_Init>
     33c:	211010ef          	jal	ra,1d4c <usb_cdc_init>
     340:	00004537          	lui	a0,0x4
     344:	08450513          	addi	a0,a0,132 # 4084 <__malloc_unlock+0x44>
     348:	3a0020ef          	jal	ra,26e8 <puts>
     34c:	200007b7          	lui	a5,0x20000
     350:	0907a583          	lw	a1,144(a5) # 20000090 <SystemCoreClock>
     354:	00004537          	lui	a0,0x4
     358:	0ac50513          	addi	a0,a0,172 # 40ac <__malloc_unlock+0x6c>
     35c:	368020ef          	jal	ra,26c4 <printf>
     360:	26d9                	jal	726 <DBGMCU_GetCHIPID>
     362:	85aa                	mv	a1,a0
     364:	00004537          	lui	a0,0x4
     368:	0bc50513          	addi	a0,a0,188 # 40bc <__malloc_unlock+0x7c>
     36c:	358020ef          	jal	ra,26c4 <printf>
     370:	1f500413          	li	s0,501
     374:	8926                	mv	s2,s1
     376:	8361c783          	lbu	a5,-1994(gp) # 200000c6 <USBFS_DevEnumStatus>
     37a:	0ff7f793          	andi	a5,a5,255
     37e:	e399                	bnez	a5,384 <main+0x56>
     380:	147d                	addi	s0,s0,-1
     382:	e051                	bnez	s0,406 <main+0xd8>
     384:	8361c783          	lbu	a5,-1994(gp) # 200000c6 <USBFS_DevEnumStatus>
     388:	0ff7f793          	andi	a5,a5,255
     38c:	c3c9                	beqz	a5,40e <main+0xe0>
     38e:	00004537          	lui	a0,0x4
     392:	0cc50513          	addi	a0,a0,204 # 40cc <__malloc_unlock+0x8c>
     396:	352020ef          	jal	ra,26e8 <puts>
     39a:	00004537          	lui	a0,0x4
     39e:	10050513          	addi	a0,a0,256 # 4100 <__malloc_unlock+0xc0>
     3a2:	346020ef          	jal	ra,26e8 <puts>
     3a6:	500010ef          	jal	ra,18a6 <i2c_util_init>
     3aa:	00004537          	lui	a0,0x4
     3ae:	11050513          	addi	a0,a0,272 # 4110 <__malloc_unlock+0xd0>
     3b2:	336020ef          	jal	ra,26e8 <puts>
     3b6:	6571                	lui	a0,0x1c
     3b8:	20050513          	addi	a0,a0,512 # 1c200 <_data_lma+0x17e14>
     3bc:	20001437          	lui	s0,0x20001
     3c0:	2b7010ef          	jal	ra,1e76 <USART_Printf_Init>
     3c4:	30840413          	addi	s0,s0,776 # 20001308 <ring_buffer>
     3c8:	776010ef          	jal	ra,1b3e <protocol_init>
     3cc:	000044b7          	lui	s1,0x4
     3d0:	00004937          	lui	s2,0x4
     3d4:	40445783          	lhu	a5,1028(s0)
     3d8:	07c2                	slli	a5,a5,0x10
     3da:	83c1                	srli	a5,a5,0x10
     3dc:	c385                	beqz	a5,3fc <main+0xce>
     3de:	40445583          	lhu	a1,1028(s0)
     3e2:	11c48513          	addi	a0,s1,284 # 411c <__malloc_unlock+0xdc>
     3e6:	2de020ef          	jal	ra,26c4 <printf>
     3ea:	40445783          	lhu	a5,1028(s0)
     3ee:	07c2                	slli	a5,a5,0x10
     3f0:	83c1                	srli	a5,a5,0x10
     3f2:	e39d                	bnez	a5,418 <main+0xea>
     3f4:	12c90513          	addi	a0,s2,300 # 412c <__malloc_unlock+0xec>
     3f8:	2f0020ef          	jal	ra,26e8 <puts>
     3fc:	3e800513          	li	a0,1000
     400:	241010ef          	jal	ra,1e40 <Delay_Ms>
     404:	bfc1                	j	3d4 <main+0xa6>
     406:	4529                	li	a0,10
     408:	239010ef          	jal	ra,1e40 <Delay_Ms>
     40c:	b7ad                	j	376 <main+0x48>
     40e:	00004537          	lui	a0,0x4
     412:	0e050513          	addi	a0,a0,224 # 40e0 <__malloc_unlock+0xa0>
     416:	b741                	j	396 <main+0x68>
     418:	0f3010ef          	jal	ra,1d0a <ring_buffer_pop>
     41c:	31f010ef          	jal	ra,1f3a <putchar>
     420:	b7e9                	j	3ea <main+0xbc>

00000422 <USART1_IRQHandler>:
     422:	1101                	addi	sp,sp,-32
     424:	c84e                	sw	s3,16(sp)
     426:	400149b7          	lui	s3,0x40014
     42a:	42400593          	li	a1,1060
     42e:	80098513          	addi	a0,s3,-2048 # 40013800 <_eusrstack+0x2000b800>
     432:	ce22                	sw	s0,28(sp)
     434:	cc26                	sw	s1,24(sp)
     436:	ca4a                	sw	s2,20(sp)
     438:	c652                	sw	s4,12(sp)
     43a:	0ed000ef          	jal	ra,d26 <USART_GetITStatus>
     43e:	c135                	beqz	a0,4a2 <USART1_IRQHandler+0x80>
     440:	40020937          	lui	s2,0x40020
     444:	05c92a03          	lw	s4,92(s2) # 4002005c <_eusrstack+0x2001805c>
     448:	9741c403          	lbu	s0,-1676(gp) # 20000204 <USART_DMA_CTRL>
     44c:	05890913          	addi	s2,s2,88
     450:	4581                	li	a1,0
     452:	0ff47413          	andi	s0,s0,255
     456:	00143793          	seqz	a5,s0
     45a:	854a                	mv	a0,s2
     45c:	96f18a23          	sb	a5,-1676(gp) # 20000204 <USART_DMA_CTRL>
     460:	2cc1                	jal	730 <DMA_Cmd>
     462:	08000593          	li	a1,128
     466:	854a                	mv	a0,s2
     468:	2cf1                	jal	744 <DMA_SetCurrDataCounter>
     46a:	9741c783          	lbu	a5,-1676(gp) # 20000204 <USART_DMA_CTRL>
     46e:	97418493          	addi	s1,gp,-1676 # 20000204 <USART_DMA_CTRL>
     472:	4585                	li	a1,1
     474:	079e                	slli	a5,a5,0x7
     476:	0785                	addi	a5,a5,1
     478:	97a6                	add	a5,a5,s1
     47a:	00f92623          	sw	a5,12(s2)
     47e:	854a                	mv	a0,s2
     480:	2c45                	jal	730 <DMA_Cmd>
     482:	80098513          	addi	a0,s3,-2048
     486:	08f000ef          	jal	ra,d14 <USART_ReceiveData>
     48a:	08000593          	li	a1,128
     48e:	414585b3          	sub	a1,a1,s4
     492:	00741513          	slli	a0,s0,0x7
     496:	0505                	addi	a0,a0,1
     498:	05c2                	slli	a1,a1,0x10
     49a:	81c1                	srli	a1,a1,0x10
     49c:	9526                	add	a0,a0,s1
     49e:	7cc010ef          	jal	ra,1c6a <ring_buffer_push_huge>
     4a2:	4472                	lw	s0,28(sp)
     4a4:	44e2                	lw	s1,24(sp)
     4a6:	4952                	lw	s2,20(sp)
     4a8:	49c2                	lw	s3,16(sp)
     4aa:	4a32                	lw	s4,12(sp)
     4ac:	6105                	addi	sp,sp,32
     4ae:	30200073          	mret

000004b2 <DMA1_Channel5_IRQHandler>:
     4b2:	1141                	addi	sp,sp,-16
     4b4:	c426                	sw	s1,8(sp)
     4b6:	c622                	sw	s0,12(sp)
     4b8:	9741c403          	lbu	s0,-1676(gp) # 20000204 <USART_DMA_CTRL>
     4bc:	c24a                	sw	s2,4(sp)
     4be:	40020937          	lui	s2,0x40020
     4c2:	0ff47413          	andi	s0,s0,255
     4c6:	00143793          	seqz	a5,s0
     4ca:	05890513          	addi	a0,s2,88 # 40020058 <_eusrstack+0x20018058>
     4ce:	4581                	li	a1,0
     4d0:	96f18a23          	sb	a5,-1676(gp) # 20000204 <USART_DMA_CTRL>
     4d4:	2cb1                	jal	730 <DMA_Cmd>
     4d6:	05890513          	addi	a0,s2,88
     4da:	08000593          	li	a1,128
     4de:	249d                	jal	744 <DMA_SetCurrDataCounter>
     4e0:	9741c783          	lbu	a5,-1676(gp) # 20000204 <USART_DMA_CTRL>
     4e4:	97418493          	addi	s1,gp,-1676 # 20000204 <USART_DMA_CTRL>
     4e8:	05890513          	addi	a0,s2,88
     4ec:	079e                	slli	a5,a5,0x7
     4ee:	0785                	addi	a5,a5,1
     4f0:	97a6                	add	a5,a5,s1
     4f2:	c55c                	sw	a5,12(a0)
     4f4:	4585                	li	a1,1
     4f6:	2c2d                	jal	730 <DMA_Cmd>
     4f8:	00741513          	slli	a0,s0,0x7
     4fc:	0505                	addi	a0,a0,1
     4fe:	9526                	add	a0,a0,s1
     500:	08000593          	li	a1,128
     504:	766010ef          	jal	ra,1c6a <ring_buffer_push_huge>
     508:	00020537          	lui	a0,0x20
     50c:	24a5                	jal	774 <DMA_ClearITPendingBit>
     50e:	4432                	lw	s0,12(sp)
     510:	44a2                	lw	s1,8(sp)
     512:	4912                	lw	s2,4(sp)
     514:	0141                	addi	sp,sp,16
     516:	30200073          	mret

0000051a <SystemInit>:
     51a:	400217b7          	lui	a5,0x40021
     51e:	4398                	lw	a4,0(a5)
     520:	f0ff06b7          	lui	a3,0xf0ff0
     524:	1141                	addi	sp,sp,-16
     526:	00176713          	ori	a4,a4,1
     52a:	c398                	sw	a4,0(a5)
     52c:	43d8                	lw	a4,4(a5)
     52e:	00020637          	lui	a2,0x20
     532:	8f75                	and	a4,a4,a3
     534:	c3d8                	sw	a4,4(a5)
     536:	4398                	lw	a4,0(a5)
     538:	fef706b7          	lui	a3,0xfef70
     53c:	16fd                	addi	a3,a3,-1
     53e:	8f75                	and	a4,a4,a3
     540:	c398                	sw	a4,0(a5)
     542:	4398                	lw	a4,0(a5)
     544:	fffc06b7          	lui	a3,0xfffc0
     548:	16fd                	addi	a3,a3,-1
     54a:	8f75                	and	a4,a4,a3
     54c:	c398                	sw	a4,0(a5)
     54e:	43d8                	lw	a4,4(a5)
     550:	ff0106b7          	lui	a3,0xff010
     554:	16fd                	addi	a3,a3,-1
     556:	8f75                	and	a4,a4,a3
     558:	c3d8                	sw	a4,4(a5)
     55a:	009f0737          	lui	a4,0x9f0
     55e:	c798                	sw	a4,8(a5)
     560:	c402                	sw	zero,8(sp)
     562:	c602                	sw	zero,12(sp)
     564:	4398                	lw	a4,0(a5)
     566:	66c1                	lui	a3,0x10
     568:	8f55                	or	a4,a4,a3
     56a:	c398                	sw	a4,0(a5)
     56c:	400216b7          	lui	a3,0x40021
     570:	6705                	lui	a4,0x1
     572:	429c                	lw	a5,0(a3)
     574:	8ff1                	and	a5,a5,a2
     576:	c63e                	sw	a5,12(sp)
     578:	47a2                	lw	a5,8(sp)
     57a:	0785                	addi	a5,a5,1
     57c:	c43e                	sw	a5,8(sp)
     57e:	47b2                	lw	a5,12(sp)
     580:	e781                	bnez	a5,588 <SystemInit+0x6e>
     582:	47a2                	lw	a5,8(sp)
     584:	fee797e3          	bne	a5,a4,572 <SystemInit+0x58>
     588:	400217b7          	lui	a5,0x40021
     58c:	439c                	lw	a5,0(a5)
     58e:	00e79713          	slli	a4,a5,0xe
     592:	06075763          	bgez	a4,600 <SystemInit+0xe6>
     596:	4785                	li	a5,1
     598:	c63e                	sw	a5,12(sp)
     59a:	4732                	lw	a4,12(sp)
     59c:	4785                	li	a5,1
     59e:	04f71f63          	bne	a4,a5,5fc <SystemInit+0xe2>
     5a2:	400217b7          	lui	a5,0x40021
     5a6:	43d8                	lw	a4,4(a5)
     5a8:	ffc106b7          	lui	a3,0xffc10
     5ac:	16fd                	addi	a3,a3,-1
     5ae:	c3d8                	sw	a4,4(a5)
     5b0:	43d8                	lw	a4,4(a5)
     5b2:	c3d8                	sw	a4,4(a5)
     5b4:	43d8                	lw	a4,4(a5)
     5b6:	40076713          	ori	a4,a4,1024
     5ba:	c3d8                	sw	a4,4(a5)
     5bc:	43d8                	lw	a4,4(a5)
     5be:	8f75                	and	a4,a4,a3
     5c0:	c3d8                	sw	a4,4(a5)
     5c2:	43d8                	lw	a4,4(a5)
     5c4:	002906b7          	lui	a3,0x290
     5c8:	8f55                	or	a4,a4,a3
     5ca:	c3d8                	sw	a4,4(a5)
     5cc:	4398                	lw	a4,0(a5)
     5ce:	010006b7          	lui	a3,0x1000
     5d2:	8f55                	or	a4,a4,a3
     5d4:	c398                	sw	a4,0(a5)
     5d6:	4398                	lw	a4,0(a5)
     5d8:	00671693          	slli	a3,a4,0x6
     5dc:	fe06dde3          	bgez	a3,5d6 <SystemInit+0xbc>
     5e0:	43d8                	lw	a4,4(a5)
     5e2:	400216b7          	lui	a3,0x40021
     5e6:	9b71                	andi	a4,a4,-4
     5e8:	c3d8                	sw	a4,4(a5)
     5ea:	43d8                	lw	a4,4(a5)
     5ec:	00276713          	ori	a4,a4,2
     5f0:	c3d8                	sw	a4,4(a5)
     5f2:	4721                	li	a4,8
     5f4:	42dc                	lw	a5,4(a3)
     5f6:	8bb1                	andi	a5,a5,12
     5f8:	fee79ee3          	bne	a5,a4,5f4 <SystemInit+0xda>
     5fc:	0141                	addi	sp,sp,16
     5fe:	8082                	ret
     600:	c602                	sw	zero,12(sp)
     602:	bf61                	j	59a <SystemInit+0x80>

00000604 <SystemCoreClockUpdate>:
     604:	400216b7          	lui	a3,0x40021
     608:	42dc                	lw	a5,4(a3)
     60a:	20000737          	lui	a4,0x20000
     60e:	4611                	li	a2,4
     610:	8bb1                	andi	a5,a5,12
     612:	09070713          	addi	a4,a4,144 # 20000090 <SystemCoreClock>
     616:	00c78563          	beq	a5,a2,620 <SystemCoreClockUpdate+0x1c>
     61a:	4621                	li	a2,8
     61c:	02c78863          	beq	a5,a2,64c <SystemCoreClockUpdate+0x48>
     620:	007a17b7          	lui	a5,0x7a1
     624:	20078793          	addi	a5,a5,512 # 7a1200 <_data_lma+0x79ce14>
     628:	c31c                	sw	a5,0(a4)
     62a:	400217b7          	lui	a5,0x40021
     62e:	43dc                	lw	a5,4(a5)
     630:	8391                	srli	a5,a5,0x4
     632:	00f7f693          	andi	a3,a5,15
     636:	200007b7          	lui	a5,0x20000
     63a:	00c78793          	addi	a5,a5,12 # 2000000c <AHBPrescTable>
     63e:	97b6                	add	a5,a5,a3
     640:	2394                	lbu	a3,0(a5)
     642:	431c                	lw	a5,0(a4)
     644:	00d7d7b3          	srl	a5,a5,a3
     648:	c31c                	sw	a5,0(a4)
     64a:	8082                	ret
     64c:	42dc                	lw	a5,4(a3)
     64e:	42d4                	lw	a3,4(a3)
     650:	6641                	lui	a2,0x10
     652:	83c9                	srli	a5,a5,0x12
     654:	8bbd                	andi	a5,a5,15
     656:	8ef1                	and	a3,a3,a2
     658:	0789                	addi	a5,a5,2
     65a:	4645                	li	a2,17
     65c:	00c79363          	bne	a5,a2,662 <SystemCoreClockUpdate+0x5e>
     660:	47c9                	li	a5,18
     662:	ee81                	bnez	a3,67a <SystemCoreClockUpdate+0x76>
     664:	400246b7          	lui	a3,0x40024
     668:	8006a683          	lw	a3,-2048(a3) # 40023800 <_eusrstack+0x2001b800>
     66c:	8ac1                	andi	a3,a3,16
     66e:	ce89                	beqz	a3,688 <SystemCoreClockUpdate+0x84>
     670:	007a16b7          	lui	a3,0x7a1
     674:	20068693          	addi	a3,a3,512 # 7a1200 <_data_lma+0x79ce14>
     678:	a821                	j	690 <SystemCoreClockUpdate+0x8c>
     67a:	400216b7          	lui	a3,0x40021
     67e:	42d4                	lw	a3,4(a3)
     680:	00e69613          	slli	a2,a3,0xe
     684:	fe0656e3          	bgez	a2,670 <SystemCoreClockUpdate+0x6c>
     688:	003d16b7          	lui	a3,0x3d1
     68c:	90068693          	addi	a3,a3,-1792 # 3d0900 <_data_lma+0x3cc514>
     690:	02d787b3          	mul	a5,a5,a3
     694:	bf51                	j	628 <SystemCoreClockUpdate+0x24>

00000696 <ADC1_2_IRQHandler>:
     696:	a001                	j	696 <ADC1_2_IRQHandler>

00000698 <handle_reset>:
     698:	20000197          	auipc	gp,0x20000
     69c:	1f818193          	addi	gp,gp,504 # 20000890 <__global_pointer$>
     6a0:	20008117          	auipc	sp,0x20008
     6a4:	96010113          	addi	sp,sp,-1696 # 20008000 <_eusrstack>
     6a8:	00004517          	auipc	a0,0x4
     6ac:	d4450513          	addi	a0,a0,-700 # 43ec <_data_lma>
     6b0:	20000597          	auipc	a1,0x20000
     6b4:	95058593          	addi	a1,a1,-1712 # 20000000 <_data_vma>
     6b8:	82818613          	addi	a2,gp,-2008 # 200000b8 <_edata>
     6bc:	00c5fa63          	bgeu	a1,a2,6d0 <handle_reset+0x38>
     6c0:	00052283          	lw	t0,0(a0)
     6c4:	0055a023          	sw	t0,0(a1)
     6c8:	0511                	addi	a0,a0,4
     6ca:	0591                	addi	a1,a1,4
     6cc:	fec5eae3          	bltu	a1,a2,6c0 <handle_reset+0x28>
     6d0:	82818513          	addi	a0,gp,-2008 # 200000b8 <_edata>
     6d4:	20001597          	auipc	a1,0x20001
     6d8:	04058593          	addi	a1,a1,64 # 20001714 <_ebss>
     6dc:	00b57763          	bgeu	a0,a1,6ea <handle_reset+0x52>
     6e0:	00052023          	sw	zero,0(a0)
     6e4:	0511                	addi	a0,a0,4
     6e6:	feb56de3          	bltu	a0,a1,6e0 <handle_reset+0x48>
     6ea:	42fd                	li	t0,31
     6ec:	bc029073          	csrw	0xbc0,t0
     6f0:	42ad                	li	t0,11
     6f2:	80429073          	csrw	0x804,t0
     6f6:	000062b7          	lui	t0,0x6
     6fa:	08828293          	addi	t0,t0,136 # 6088 <_data_lma+0x1c9c>
     6fe:	30029073          	csrw	mstatus,t0
     702:	00000297          	auipc	t0,0x0
     706:	90228293          	addi	t0,t0,-1790 # 4 <_einit>
     70a:	0032e293          	ori	t0,t0,3
     70e:	30529073          	csrw	mtvec,t0
     712:	e09ff0ef          	jal	ra,51a <SystemInit>
     716:	00000297          	auipc	t0,0x0
     71a:	c1828293          	addi	t0,t0,-1000 # 32e <main>
     71e:	34129073          	csrw	mepc,t0
     722:	30200073          	mret

00000726 <DBGMCU_GetCHIPID>:
     726:	1ffff7b7          	lui	a5,0x1ffff
     72a:	7047a503          	lw	a0,1796(a5) # 1ffff704 <_data_lma+0x1fffb318>
     72e:	8082                	ret

00000730 <DMA_Cmd>:
     730:	411c                	lw	a5,0(a0)
     732:	c589                	beqz	a1,73c <DMA_Cmd+0xc>
     734:	0017e793          	ori	a5,a5,1
     738:	c11c                	sw	a5,0(a0)
     73a:	8082                	ret
     73c:	6741                	lui	a4,0x10
     73e:	1779                	addi	a4,a4,-2
     740:	8ff9                	and	a5,a5,a4
     742:	bfdd                	j	738 <DMA_Cmd+0x8>

00000744 <DMA_SetCurrDataCounter>:
     744:	c14c                	sw	a1,4(a0)
     746:	8082                	ret

00000748 <DMA_ClearFlag>:
     748:	00351793          	slli	a5,a0,0x3
     74c:	0007d763          	bgez	a5,75a <DMA_ClearFlag+0x12>
     750:	400207b7          	lui	a5,0x40020
     754:	40a7a223          	sw	a0,1028(a5) # 40020404 <_eusrstack+0x20018404>
     758:	8082                	ret
     75a:	00251793          	slli	a5,a0,0x2
     75e:	0007d763          	bgez	a5,76c <DMA_ClearFlag+0x24>
     762:	400207b7          	lui	a5,0x40020
     766:	4ca7aa23          	sw	a0,1236(a5) # 400204d4 <_eusrstack+0x200184d4>
     76a:	8082                	ret
     76c:	400207b7          	lui	a5,0x40020
     770:	c3c8                	sw	a0,4(a5)
     772:	8082                	ret

00000774 <DMA_ClearITPendingBit>:
     774:	a7dff2ef          	jal	t0,1f0 <__riscv_save_0>
     778:	3fc1                	jal	748 <DMA_ClearFlag>
     77a:	bc69                	j	214 <__riscv_restore_0>

0000077c <EXTI_ClearITPendingBit>:
     77c:	400107b7          	lui	a5,0x40010
     780:	40a7aa23          	sw	a0,1044(a5) # 40010414 <_eusrstack+0x20008414>
     784:	8082                	ret

00000786 <GPIO_Init>:
     786:	459c                	lw	a5,8(a1)
     788:	0107f713          	andi	a4,a5,16
     78c:	00f7f813          	andi	a6,a5,15
     790:	c701                	beqz	a4,798 <GPIO_Init+0x12>
     792:	41d8                	lw	a4,4(a1)
     794:	00e86833          	or	a6,a6,a4
     798:	218e                	lhu	a1,0(a1)
     79a:	0ff5f713          	andi	a4,a1,255
     79e:	c339                	beqz	a4,7e4 <GPIO_Init+0x5e>
     7a0:	4118                	lw	a4,0(a0)
     7a2:	4681                	li	a3,0
     7a4:	4e85                	li	t4,1
     7a6:	4f3d                	li	t5,15
     7a8:	02800f93          	li	t6,40
     7ac:	04800293          	li	t0,72
     7b0:	4e21                	li	t3,8
     7b2:	00de9633          	sll	a2,t4,a3
     7b6:	00c5f8b3          	and	a7,a1,a2
     7ba:	03161163          	bne	a2,a7,7dc <GPIO_Init+0x56>
     7be:	00269893          	slli	a7,a3,0x2
     7c2:	011f1333          	sll	t1,t5,a7
     7c6:	fff34313          	not	t1,t1
     7ca:	00e37733          	and	a4,t1,a4
     7ce:	011818b3          	sll	a7,a6,a7
     7d2:	00e8e733          	or	a4,a7,a4
     7d6:	05f79f63          	bne	a5,t6,834 <__stack_size+0x34>
     7da:	c950                	sw	a2,20(a0)
     7dc:	0685                	addi	a3,a3,1
     7de:	fdc69ae3          	bne	a3,t3,7b2 <GPIO_Init+0x2c>
     7e2:	c118                	sw	a4,0(a0)
     7e4:	0ff00713          	li	a4,255
     7e8:	04b77563          	bgeu	a4,a1,832 <__stack_size+0x32>
     7ec:	4154                	lw	a3,4(a0)
     7ee:	4621                	li	a2,8
     7f0:	4e85                	li	t4,1
     7f2:	4f3d                	li	t5,15
     7f4:	02800f93          	li	t6,40
     7f8:	04800293          	li	t0,72
     7fc:	4e41                	li	t3,16
     7fe:	00ce98b3          	sll	a7,t4,a2
     802:	0115f733          	and	a4,a1,a7
     806:	02e89263          	bne	a7,a4,82a <__stack_size+0x2a>
     80a:	00261713          	slli	a4,a2,0x2
     80e:	1701                	addi	a4,a4,-32
     810:	00ef1333          	sll	t1,t5,a4
     814:	fff34313          	not	t1,t1
     818:	00d376b3          	and	a3,t1,a3
     81c:	00e81733          	sll	a4,a6,a4
     820:	8ed9                	or	a3,a3,a4
     822:	01f79d63          	bne	a5,t6,83c <__stack_size+0x3c>
     826:	01152a23          	sw	a7,20(a0)
     82a:	0605                	addi	a2,a2,1
     82c:	fdc619e3          	bne	a2,t3,7fe <GPIO_Init+0x78>
     830:	c154                	sw	a3,4(a0)
     832:	8082                	ret
     834:	fa5794e3          	bne	a5,t0,7dc <GPIO_Init+0x56>
     838:	c910                	sw	a2,16(a0)
     83a:	b74d                	j	7dc <GPIO_Init+0x56>
     83c:	fe5797e3          	bne	a5,t0,82a <__stack_size+0x2a>
     840:	01152823          	sw	a7,16(a0)
     844:	b7dd                	j	82a <__stack_size+0x2a>

00000846 <GPIO_ReadInputDataBit>:
     846:	4508                	lw	a0,8(a0)
     848:	8d6d                	and	a0,a0,a1
     84a:	00a03533          	snez	a0,a0
     84e:	8082                	ret

00000850 <GPIO_WriteBit>:
     850:	c219                	beqz	a2,856 <GPIO_WriteBit+0x6>
     852:	c90c                	sw	a1,16(a0)
     854:	8082                	ret
     856:	c94c                	sw	a1,20(a0)
     858:	8082                	ret

0000085a <I2C_Init>:
     85a:	997ff2ef          	jal	t0,1f0 <__riscv_save_0>
     85e:	7179                	addi	sp,sp,-48
     860:	2146                	lhu	s1,4(a0)
     862:	842a                	mv	s0,a0
     864:	0868                	addi	a0,sp,28
     866:	c62e                	sw	a1,12(sp)
     868:	2425                	jal	a90 <RCC_GetClocksFreq>
     86a:	5792                	lw	a5,36(sp)
     86c:	000f4737          	lui	a4,0xf4
     870:	24070713          	addi	a4,a4,576 # f4240 <_data_lma+0xefe54>
     874:	02e7d733          	divu	a4,a5,a4
     878:	04c2                	slli	s1,s1,0x10
     87a:	80c1                	srli	s1,s1,0x10
     87c:	fc04f493          	andi	s1,s1,-64
     880:	04c2                	slli	s1,s1,0x10
     882:	03c00693          	li	a3,60
     886:	80c1                	srli	s1,s1,0x10
     888:	45b2                	lw	a1,12(sp)
     88a:	00e6f463          	bgeu	a3,a4,892 <I2C_Init+0x38>
     88e:	03c00713          	li	a4,60
     892:	01071613          	slli	a2,a4,0x10
     896:	8241                	srli	a2,a2,0x10
     898:	8cd1                	or	s1,s1,a2
     89a:	a046                	sh	s1,4(s0)
     89c:	2016                	lhu	a3,0(s0)
     89e:	6561                	lui	a0,0x18
     8a0:	6a050513          	addi	a0,a0,1696 # 186a0 <_data_lma+0x142b4>
     8a4:	06c2                	slli	a3,a3,0x10
     8a6:	82c1                	srli	a3,a3,0x10
     8a8:	9af9                	andi	a3,a3,-2
     8aa:	06c2                	slli	a3,a3,0x10
     8ac:	82c1                	srli	a3,a3,0x10
     8ae:	a016                	sh	a3,0(s0)
     8b0:	4194                	lw	a3,0(a1)
     8b2:	04d56863          	bltu	a0,a3,902 <I2C_Init+0xa8>
     8b6:	0686                	slli	a3,a3,0x1
     8b8:	02d7d7b3          	divu	a5,a5,a3
     8bc:	4691                	li	a3,4
     8be:	01079713          	slli	a4,a5,0x10
     8c2:	8341                	srli	a4,a4,0x10
     8c4:	87ba                	mv	a5,a4
     8c6:	00d77363          	bgeu	a4,a3,8cc <I2C_Init+0x72>
     8ca:	4791                	li	a5,4
     8cc:	0605                	addi	a2,a2,1
     8ce:	0642                	slli	a2,a2,0x10
     8d0:	07c2                	slli	a5,a5,0x10
     8d2:	8241                	srli	a2,a2,0x10
     8d4:	83c1                	srli	a5,a5,0x10
     8d6:	b012                	sh	a2,32(s0)
     8d8:	ac5e                	sh	a5,28(s0)
     8da:	201e                	lhu	a5,0(s0)
     8dc:	21da                	lhu	a4,4(a1)
     8de:	25b6                	lhu	a3,10(a1)
     8e0:	0017e793          	ori	a5,a5,1
     8e4:	a01e                	sh	a5,0(s0)
     8e6:	201e                	lhu	a5,0(s0)
     8e8:	8f55                	or	a4,a4,a3
     8ea:	07c2                	slli	a5,a5,0x10
     8ec:	83c1                	srli	a5,a5,0x10
     8ee:	bf57f793          	andi	a5,a5,-1035
     8f2:	8fd9                	or	a5,a5,a4
     8f4:	a01e                	sh	a5,0(s0)
     8f6:	259a                	lhu	a4,8(a1)
     8f8:	25de                	lhu	a5,12(a1)
     8fa:	8fd9                	or	a5,a5,a4
     8fc:	a41e                	sh	a5,8(s0)
     8fe:	6145                	addi	sp,sp,48
     900:	ba11                	j	214 <__riscv_restore_0>
     902:	21ea                	lhu	a0,6(a1)
     904:	6631                	lui	a2,0xc
     906:	167d                	addi	a2,a2,-1
     908:	02c51d63          	bne	a0,a2,942 <I2C_Init+0xe8>
     90c:	460d                	li	a2,3
     90e:	02c686b3          	mul	a3,a3,a2
     912:	02d7d7b3          	divu	a5,a5,a3
     916:	07c2                	slli	a5,a5,0x10
     918:	83c1                	srli	a5,a5,0x10
     91a:	01479693          	slli	a3,a5,0x14
     91e:	e299                	bnez	a3,924 <I2C_Init+0xca>
     920:	0017e793          	ori	a5,a5,1
     924:	66a1                	lui	a3,0x8
     926:	8fd5                	or	a5,a5,a3
     928:	12c00693          	li	a3,300
     92c:	02d70733          	mul	a4,a4,a3
     930:	3e800693          	li	a3,1000
     934:	02d74733          	div	a4,a4,a3
     938:	0705                	addi	a4,a4,1
     93a:	0742                	slli	a4,a4,0x10
     93c:	8341                	srli	a4,a4,0x10
     93e:	b01a                	sh	a4,32(s0)
     940:	bf61                	j	8d8 <I2C_Init+0x7e>
     942:	4665                	li	a2,25
     944:	02c686b3          	mul	a3,a3,a2
     948:	02d7d7b3          	divu	a5,a5,a3
     94c:	6691                	lui	a3,0x4
     94e:	07c2                	slli	a5,a5,0x10
     950:	83c1                	srli	a5,a5,0x10
     952:	8fd5                	or	a5,a5,a3
     954:	b7d9                	j	91a <I2C_Init+0xc0>

00000956 <I2C_Cmd>:
     956:	211e                	lhu	a5,0(a0)
     958:	c589                	beqz	a1,962 <I2C_Cmd+0xc>
     95a:	0017e793          	ori	a5,a5,1
     95e:	a11e                	sh	a5,0(a0)
     960:	8082                	ret
     962:	07c2                	slli	a5,a5,0x10
     964:	83c1                	srli	a5,a5,0x10
     966:	9bf9                	andi	a5,a5,-2
     968:	07c2                	slli	a5,a5,0x10
     96a:	83c1                	srli	a5,a5,0x10
     96c:	bfcd                	j	95e <I2C_Cmd+0x8>

0000096e <I2C_GenerateSTART>:
     96e:	211e                	lhu	a5,0(a0)
     970:	c589                	beqz	a1,97a <I2C_GenerateSTART+0xc>
     972:	1007e793          	ori	a5,a5,256
     976:	a11e                	sh	a5,0(a0)
     978:	8082                	ret
     97a:	07c2                	slli	a5,a5,0x10
     97c:	83c1                	srli	a5,a5,0x10
     97e:	eff7f793          	andi	a5,a5,-257
     982:	07c2                	slli	a5,a5,0x10
     984:	83c1                	srli	a5,a5,0x10
     986:	bfc5                	j	976 <I2C_GenerateSTART+0x8>

00000988 <I2C_GenerateSTOP>:
     988:	211e                	lhu	a5,0(a0)
     98a:	c589                	beqz	a1,994 <I2C_GenerateSTOP+0xc>
     98c:	2007e793          	ori	a5,a5,512
     990:	a11e                	sh	a5,0(a0)
     992:	8082                	ret
     994:	07c2                	slli	a5,a5,0x10
     996:	83c1                	srli	a5,a5,0x10
     998:	dff7f793          	andi	a5,a5,-513
     99c:	07c2                	slli	a5,a5,0x10
     99e:	83c1                	srli	a5,a5,0x10
     9a0:	bfc5                	j	990 <I2C_GenerateSTOP+0x8>

000009a2 <I2C_AcknowledgeConfig>:
     9a2:	211e                	lhu	a5,0(a0)
     9a4:	c589                	beqz	a1,9ae <I2C_AcknowledgeConfig+0xc>
     9a6:	4007e793          	ori	a5,a5,1024
     9aa:	a11e                	sh	a5,0(a0)
     9ac:	8082                	ret
     9ae:	07c2                	slli	a5,a5,0x10
     9b0:	83c1                	srli	a5,a5,0x10
     9b2:	bff7f793          	andi	a5,a5,-1025
     9b6:	07c2                	slli	a5,a5,0x10
     9b8:	83c1                	srli	a5,a5,0x10
     9ba:	bfc5                	j	9aa <I2C_AcknowledgeConfig+0x8>

000009bc <I2C_SendData>:
     9bc:	a90e                	sh	a1,16(a0)
     9be:	8082                	ret

000009c0 <I2C_ReceiveData>:
     9c0:	290a                	lhu	a0,16(a0)
     9c2:	0ff57513          	andi	a0,a0,255
     9c6:	8082                	ret

000009c8 <I2C_Send7bitAddress>:
     9c8:	0fe5f793          	andi	a5,a1,254
     9cc:	c219                	beqz	a2,9d2 <I2C_Send7bitAddress+0xa>
     9ce:	0015e793          	ori	a5,a1,1
     9d2:	07c2                	slli	a5,a5,0x10
     9d4:	83c1                	srli	a5,a5,0x10
     9d6:	a91e                	sh	a5,16(a0)
     9d8:	8082                	ret

000009da <I2C_CheckEvent>:
     9da:	295e                	lhu	a5,20(a0)
     9dc:	2d0a                	lhu	a0,24(a0)
     9de:	0542                	slli	a0,a0,0x10
     9e0:	8d5d                	or	a0,a0,a5
     9e2:	8d6d                	and	a0,a0,a1
     9e4:	0522                	slli	a0,a0,0x8
     9e6:	8121                	srli	a0,a0,0x8
     9e8:	8d0d                	sub	a0,a0,a1
     9ea:	00153513          	seqz	a0,a0
     9ee:	8082                	ret

000009f0 <I2C_GetFlagStatus>:
     9f0:	1141                	addi	sp,sp,-16
     9f2:	c402                	sw	zero,8(sp)
     9f4:	c602                	sw	zero,12(sp)
     9f6:	01c5d793          	srli	a5,a1,0x1c
     9fa:	c62a                	sw	a0,12(sp)
     9fc:	c43e                	sw	a5,8(sp)
     9fe:	47a2                	lw	a5,8(sp)
     a00:	05a2                	slli	a1,a1,0x8
     a02:	81a1                	srli	a1,a1,0x8
     a04:	cb99                	beqz	a5,a1a <I2C_GetFlagStatus+0x2a>
     a06:	47b2                	lw	a5,12(sp)
     a08:	07d1                	addi	a5,a5,20
     a0a:	c63e                	sw	a5,12(sp)
     a0c:	47b2                	lw	a5,12(sp)
     a0e:	4388                	lw	a0,0(a5)
     a10:	0141                	addi	sp,sp,16
     a12:	8d6d                	and	a0,a0,a1
     a14:	00a03533          	snez	a0,a0
     a18:	8082                	ret
     a1a:	47b2                	lw	a5,12(sp)
     a1c:	81c1                	srli	a1,a1,0x10
     a1e:	07e1                	addi	a5,a5,24
     a20:	b7ed                	j	a0a <I2C_GetFlagStatus+0x1a>

00000a22 <I2C_ClearFlag>:
     a22:	fff5c593          	not	a1,a1
     a26:	05c2                	slli	a1,a1,0x10
     a28:	81c1                	srli	a1,a1,0x10
     a2a:	a94e                	sh	a1,20(a0)
     a2c:	8082                	ret

00000a2e <NVIC_PriorityGroupConfig>:
     a2e:	82a1a823          	sw	a0,-2000(gp) # 200000c0 <NVIC_Priority_Group>
     a32:	8082                	ret

00000a34 <NVIC_Init>:
     a34:	8301a703          	lw	a4,-2000(gp) # 200000c0 <NVIC_Priority_Group>
     a38:	4789                	li	a5,2
     a3a:	2110                	lbu	a2,0(a0)
     a3c:	02f71163          	bne	a4,a5,a5e <NVIC_Init+0x2a>
     a40:	3114                	lbu	a3,1(a0)
     a42:	478d                	li	a5,3
     a44:	00d7ed63          	bltu	a5,a3,a5e <NVIC_Init+0x2a>
     a48:	213c                	lbu	a5,2(a0)
     a4a:	069a                	slli	a3,a3,0x6
     a4c:	e000e737          	lui	a4,0xe000e
     a50:	0796                	slli	a5,a5,0x5
     a52:	8fd5                	or	a5,a5,a3
     a54:	0ff7f793          	andi	a5,a5,255
     a58:	9732                	add	a4,a4,a2
     a5a:	40f70023          	sb	a5,1024(a4) # e000e400 <_eusrstack+0xc0006400>
     a5e:	4154                	lw	a3,4(a0)
     a60:	4705                	li	a4,1
     a62:	00565793          	srli	a5,a2,0x5
     a66:	00c71733          	sll	a4,a4,a2
     a6a:	ca89                	beqz	a3,a7c <NVIC_Init+0x48>
     a6c:	04078793          	addi	a5,a5,64
     a70:	078a                	slli	a5,a5,0x2
     a72:	e000e6b7          	lui	a3,0xe000e
     a76:	97b6                	add	a5,a5,a3
     a78:	c398                	sw	a4,0(a5)
     a7a:	8082                	ret
     a7c:	06078793          	addi	a5,a5,96
     a80:	e000e6b7          	lui	a3,0xe000e
     a84:	078a                	slli	a5,a5,0x2
     a86:	97b6                	add	a5,a5,a3
     a88:	c398                	sw	a4,0(a5)
     a8a:	0000100f          	fence.i
     a8e:	8082                	ret

00000a90 <RCC_GetClocksFreq>:
     a90:	40021737          	lui	a4,0x40021
     a94:	435c                	lw	a5,4(a4)
     a96:	4691                	li	a3,4
     a98:	8bb1                	andi	a5,a5,12
     a9a:	00d78563          	beq	a5,a3,aa4 <RCC_GetClocksFreq+0x14>
     a9e:	46a1                	li	a3,8
     aa0:	06d78263          	beq	a5,a3,b04 <RCC_GetClocksFreq+0x74>
     aa4:	007a17b7          	lui	a5,0x7a1
     aa8:	20078793          	addi	a5,a5,512 # 7a1200 <_data_lma+0x79ce14>
     aac:	c11c                	sw	a5,0(a0)
     aae:	40021637          	lui	a2,0x40021
     ab2:	425c                	lw	a5,4(a2)
     ab4:	20000737          	lui	a4,0x20000
     ab8:	01c70713          	addi	a4,a4,28 # 2000001c <APBAHBPrescTable>
     abc:	8391                	srli	a5,a5,0x4
     abe:	8bbd                	andi	a5,a5,15
     ac0:	97ba                	add	a5,a5,a4
     ac2:	2394                	lbu	a3,0(a5)
     ac4:	411c                	lw	a5,0(a0)
     ac6:	00d7d7b3          	srl	a5,a5,a3
     aca:	c15c                	sw	a5,4(a0)
     acc:	4254                	lw	a3,4(a2)
     ace:	82a1                	srli	a3,a3,0x8
     ad0:	8a9d                	andi	a3,a3,7
     ad2:	96ba                	add	a3,a3,a4
     ad4:	2294                	lbu	a3,0(a3)
     ad6:	00d7d6b3          	srl	a3,a5,a3
     ada:	c514                	sw	a3,8(a0)
     adc:	4254                	lw	a3,4(a2)
     ade:	82ad                	srli	a3,a3,0xb
     ae0:	8a9d                	andi	a3,a3,7
     ae2:	9736                	add	a4,a4,a3
     ae4:	2318                	lbu	a4,0(a4)
     ae6:	00e7d7b3          	srl	a5,a5,a4
     aea:	c55c                	sw	a5,12(a0)
     aec:	4258                	lw	a4,4(a2)
     aee:	8339                	srli	a4,a4,0xe
     af0:	00377693          	andi	a3,a4,3
     af4:	80418713          	addi	a4,gp,-2044 # 20000094 <ADCPrescTable>
     af8:	9736                	add	a4,a4,a3
     afa:	2318                	lbu	a4,0(a4)
     afc:	02e7d7b3          	divu	a5,a5,a4
     b00:	c91c                	sw	a5,16(a0)
     b02:	8082                	ret
     b04:	435c                	lw	a5,4(a4)
     b06:	4354                	lw	a3,4(a4)
     b08:	6741                	lui	a4,0x10
     b0a:	83c9                	srli	a5,a5,0x12
     b0c:	8ef9                	and	a3,a3,a4
     b0e:	1ffff737          	lui	a4,0x1ffff
     b12:	70c72703          	lw	a4,1804(a4) # 1ffff70c <_data_lma+0x1fffb320>
     b16:	8bbd                	andi	a5,a5,15
     b18:	0789                	addi	a5,a5,2
     b1a:	01171613          	slli	a2,a4,0x11
     b1e:	00064863          	bltz	a2,b2e <RCC_GetClocksFreq+0x9e>
     b22:	4645                	li	a2,17
     b24:	4701                	li	a4,0
     b26:	02c79263          	bne	a5,a2,b4a <RCC_GetClocksFreq+0xba>
     b2a:	47c9                	li	a5,18
     b2c:	a839                	j	b4a <RCC_GetClocksFreq+0xba>
     b2e:	4709                	li	a4,2
     b30:	02e78963          	beq	a5,a4,b62 <RCC_GetClocksFreq+0xd2>
     b34:	473d                	li	a4,15
     b36:	02e78863          	beq	a5,a4,b66 <RCC_GetClocksFreq+0xd6>
     b3a:	4741                	li	a4,16
     b3c:	02e78863          	beq	a5,a4,b6c <RCC_GetClocksFreq+0xdc>
     b40:	4645                	li	a2,17
     b42:	4701                	li	a4,0
     b44:	00c79363          	bne	a5,a2,b4a <RCC_GetClocksFreq+0xba>
     b48:	47c1                	li	a5,16
     b4a:	e685                	bnez	a3,b72 <RCC_GetClocksFreq+0xe2>
     b4c:	400246b7          	lui	a3,0x40024
     b50:	8006a683          	lw	a3,-2048(a3) # 40023800 <_eusrstack+0x2001b800>
     b54:	8ac1                	andi	a3,a3,16
     b56:	c68d                	beqz	a3,b80 <RCC_GetClocksFreq+0xf0>
     b58:	007a16b7          	lui	a3,0x7a1
     b5c:	20068693          	addi	a3,a3,512 # 7a1200 <_data_lma+0x79ce14>
     b60:	a025                	j	b88 <RCC_GetClocksFreq+0xf8>
     b62:	4701                	li	a4,0
     b64:	b7d9                	j	b2a <RCC_GetClocksFreq+0x9a>
     b66:	4705                	li	a4,1
     b68:	47b5                	li	a5,13
     b6a:	b7c5                	j	b4a <RCC_GetClocksFreq+0xba>
     b6c:	4701                	li	a4,0
     b6e:	47bd                	li	a5,15
     b70:	bfe9                	j	b4a <RCC_GetClocksFreq+0xba>
     b72:	400216b7          	lui	a3,0x40021
     b76:	42d4                	lw	a3,4(a3)
     b78:	00e69613          	slli	a2,a3,0xe
     b7c:	fc065ee3          	bgez	a2,b58 <RCC_GetClocksFreq+0xc8>
     b80:	003d16b7          	lui	a3,0x3d1
     b84:	90068693          	addi	a3,a3,-1792 # 3d0900 <_data_lma+0x3cc514>
     b88:	02d787b3          	mul	a5,a5,a3
     b8c:	c11c                	sw	a5,0(a0)
     b8e:	d305                	beqz	a4,aae <RCC_GetClocksFreq+0x1e>
     b90:	411c                	lw	a5,0(a0)
     b92:	8385                	srli	a5,a5,0x1
     b94:	bf21                	j	aac <RCC_GetClocksFreq+0x1c>

00000b96 <RCC_AHBPeriphClockCmd>:
     b96:	c599                	beqz	a1,ba4 <RCC_AHBPeriphClockCmd+0xe>
     b98:	40021737          	lui	a4,0x40021
     b9c:	4b5c                	lw	a5,20(a4)
     b9e:	8d5d                	or	a0,a0,a5
     ba0:	cb48                	sw	a0,20(a4)
     ba2:	8082                	ret
     ba4:	400217b7          	lui	a5,0x40021
     ba8:	4bd8                	lw	a4,20(a5)
     baa:	fff54513          	not	a0,a0
     bae:	8d79                	and	a0,a0,a4
     bb0:	cbc8                	sw	a0,20(a5)
     bb2:	8082                	ret

00000bb4 <RCC_APB2PeriphClockCmd>:
     bb4:	c599                	beqz	a1,bc2 <RCC_APB2PeriphClockCmd+0xe>
     bb6:	40021737          	lui	a4,0x40021
     bba:	4f1c                	lw	a5,24(a4)
     bbc:	8d5d                	or	a0,a0,a5
     bbe:	cf08                	sw	a0,24(a4)
     bc0:	8082                	ret
     bc2:	400217b7          	lui	a5,0x40021
     bc6:	4f98                	lw	a4,24(a5)
     bc8:	fff54513          	not	a0,a0
     bcc:	8d79                	and	a0,a0,a4
     bce:	cf88                	sw	a0,24(a5)
     bd0:	8082                	ret

00000bd2 <RCC_APB1PeriphClockCmd>:
     bd2:	c599                	beqz	a1,be0 <RCC_APB1PeriphClockCmd+0xe>
     bd4:	40021737          	lui	a4,0x40021
     bd8:	4f5c                	lw	a5,28(a4)
     bda:	8d5d                	or	a0,a0,a5
     bdc:	cf48                	sw	a0,28(a4)
     bde:	8082                	ret
     be0:	400217b7          	lui	a5,0x40021
     be4:	4fd8                	lw	a4,28(a5)
     be6:	fff54513          	not	a0,a0
     bea:	8d79                	and	a0,a0,a4
     bec:	cfc8                	sw	a0,28(a5)
     bee:	8082                	ret

00000bf0 <RCC_USBFSCLKConfig>:
     bf0:	400217b7          	lui	a5,0x40021
     bf4:	43d8                	lw	a4,4(a5)
     bf6:	ff4006b7          	lui	a3,0xff400
     bfa:	16fd                	addi	a3,a3,-1
     bfc:	8f75                	and	a4,a4,a3
     bfe:	c3d8                	sw	a4,4(a5)
     c00:	43d8                	lw	a4,4(a5)
     c02:	055a                	slli	a0,a0,0x16
     c04:	8d59                	or	a0,a0,a4
     c06:	c3c8                	sw	a0,4(a5)
     c08:	8082                	ret

00000c0a <TIM_GetCapture2>:
     c0a:	3d0a                	lhu	a0,56(a0)
     c0c:	8082                	ret

00000c0e <TIM_GetITStatus>:
     c0e:	291e                	lhu	a5,16(a0)
     c10:	254a                	lhu	a0,12(a0)
     c12:	8fed                	and	a5,a5,a1
     c14:	0542                	slli	a0,a0,0x10
     c16:	8141                	srli	a0,a0,0x10
     c18:	c789                	beqz	a5,c22 <TIM_GetITStatus+0x14>
     c1a:	8d6d                	and	a0,a0,a1
     c1c:	00a03533          	snez	a0,a0
     c20:	8082                	ret
     c22:	4501                	li	a0,0
     c24:	8082                	ret

00000c26 <TIM_ClearITPendingBit>:
     c26:	fff5c593          	not	a1,a1
     c2a:	05c2                	slli	a1,a1,0x10
     c2c:	81c1                	srli	a1,a1,0x10
     c2e:	a90e                	sh	a1,16(a0)
     c30:	8082                	ret

00000c32 <USART_Init>:
     c32:	dbeff2ef          	jal	t0,1f0 <__riscv_save_0>
     c36:	2916                	lhu	a3,16(a0)
     c38:	77f5                	lui	a5,0xffffd
     c3a:	17fd                	addi	a5,a5,-1
     c3c:	8ff5                	and	a5,a5,a3
     c3e:	21f6                	lhu	a3,6(a1)
     c40:	25da                	lhu	a4,12(a1)
     c42:	7179                	addi	sp,sp,-48
     c44:	8fd5                	or	a5,a5,a3
     c46:	a91e                	sh	a5,16(a0)
     c48:	2556                	lhu	a3,12(a0)
     c4a:	77fd                	lui	a5,0xfffff
     c4c:	9f378793          	addi	a5,a5,-1549 # ffffe9f3 <_eusrstack+0xdfff69f3>
     c50:	8ff5                	and	a5,a5,a3
     c52:	21d6                	lhu	a3,4(a1)
     c54:	842a                	mv	s0,a0
     c56:	c62e                	sw	a1,12(sp)
     c58:	8fd5                	or	a5,a5,a3
     c5a:	2596                	lhu	a3,8(a1)
     c5c:	8fd5                	or	a5,a5,a3
     c5e:	25b6                	lhu	a3,10(a1)
     c60:	8fd5                	or	a5,a5,a3
     c62:	a55e                	sh	a5,12(a0)
     c64:	295e                	lhu	a5,20(a0)
     c66:	07c2                	slli	a5,a5,0x10
     c68:	83c1                	srli	a5,a5,0x10
     c6a:	cff7f793          	andi	a5,a5,-769
     c6e:	8fd9                	or	a5,a5,a4
     c70:	a95e                	sh	a5,20(a0)
     c72:	0868                	addi	a0,sp,28
     c74:	3d31                	jal	a90 <RCC_GetClocksFreq>
     c76:	400147b7          	lui	a5,0x40014
     c7a:	80078793          	addi	a5,a5,-2048 # 40013800 <_eusrstack+0x2000b800>
     c7e:	45b2                	lw	a1,12(sp)
     c80:	02f41e63          	bne	s0,a5,cbc <USART_Init+0x8a>
     c84:	57a2                	lw	a5,40(sp)
     c86:	4765                	li	a4,25
     c88:	02e787b3          	mul	a5,a5,a4
     c8c:	4198                	lw	a4,0(a1)
     c8e:	06400693          	li	a3,100
     c92:	070a                	slli	a4,a4,0x2
     c94:	02e7d7b3          	divu	a5,a5,a4
     c98:	02d7d733          	divu	a4,a5,a3
     c9c:	02d7f7b3          	remu	a5,a5,a3
     ca0:	0712                	slli	a4,a4,0x4
     ca2:	0792                	slli	a5,a5,0x4
     ca4:	03278793          	addi	a5,a5,50
     ca8:	02d7d7b3          	divu	a5,a5,a3
     cac:	8bbd                	andi	a5,a5,15
     cae:	8fd9                	or	a5,a5,a4
     cb0:	07c2                	slli	a5,a5,0x10
     cb2:	83c1                	srli	a5,a5,0x10
     cb4:	a41e                	sh	a5,8(s0)
     cb6:	6145                	addi	sp,sp,48
     cb8:	d5cff06f          	j	214 <__riscv_restore_0>
     cbc:	5792                	lw	a5,36(sp)
     cbe:	b7e1                	j	c86 <USART_Init+0x54>

00000cc0 <USART_Cmd>:
     cc0:	c591                	beqz	a1,ccc <USART_Cmd+0xc>
     cc2:	255e                	lhu	a5,12(a0)
     cc4:	6709                	lui	a4,0x2
     cc6:	8fd9                	or	a5,a5,a4
     cc8:	a55e                	sh	a5,12(a0)
     cca:	8082                	ret
     ccc:	255a                	lhu	a4,12(a0)
     cce:	77f9                	lui	a5,0xffffe
     cd0:	17fd                	addi	a5,a5,-1
     cd2:	8ff9                	and	a5,a5,a4
     cd4:	bfd5                	j	cc8 <USART_Cmd+0x8>

00000cd6 <USART_ITConfig>:
     cd6:	0ff5f713          	andi	a4,a1,255
     cda:	4785                	li	a5,1
     cdc:	8315                	srli	a4,a4,0x5
     cde:	00b795b3          	sll	a1,a5,a1
     ce2:	00f71963          	bne	a4,a5,cf4 <USART_ITConfig+0x1e>
     ce6:	00c50793          	addi	a5,a0,12
     cea:	4398                	lw	a4,0(a5)
     cec:	ce01                	beqz	a2,d04 <USART_ITConfig+0x2e>
     cee:	8dd9                	or	a1,a1,a4
     cf0:	c38c                	sw	a1,0(a5)
     cf2:	8082                	ret
     cf4:	4689                	li	a3,2
     cf6:	01450793          	addi	a5,a0,20
     cfa:	fed718e3          	bne	a4,a3,cea <USART_ITConfig+0x14>
     cfe:	01050793          	addi	a5,a0,16
     d02:	b7e5                	j	cea <USART_ITConfig+0x14>
     d04:	fff5c593          	not	a1,a1
     d08:	8df9                	and	a1,a1,a4
     d0a:	b7dd                	j	cf0 <USART_ITConfig+0x1a>

00000d0c <USART_SendData>:
     d0c:	1ff5f593          	andi	a1,a1,511
     d10:	a14e                	sh	a1,4(a0)
     d12:	8082                	ret

00000d14 <USART_ReceiveData>:
     d14:	214a                	lhu	a0,4(a0)
     d16:	1ff57513          	andi	a0,a0,511
     d1a:	8082                	ret

00000d1c <USART_GetFlagStatus>:
     d1c:	210a                	lhu	a0,0(a0)
     d1e:	8d6d                	and	a0,a0,a1
     d20:	00a03533          	snez	a0,a0
     d24:	8082                	ret

00000d26 <USART_GetITStatus>:
     d26:	0ff5f713          	andi	a4,a1,255
     d2a:	4685                	li	a3,1
     d2c:	8315                	srli	a4,a4,0x5
     d2e:	00b697b3          	sll	a5,a3,a1
     d32:	02d71163          	bne	a4,a3,d54 <USART_GetITStatus+0x2e>
     d36:	255a                	lhu	a4,12(a0)
     d38:	8ff9                	and	a5,a5,a4
     d3a:	211a                	lhu	a4,0(a0)
     d3c:	4501                	li	a0,0
     d3e:	0742                	slli	a4,a4,0x10
     d40:	8341                	srli	a4,a4,0x10
     d42:	cb81                	beqz	a5,d52 <USART_GetITStatus+0x2c>
     d44:	4505                	li	a0,1
     d46:	81a1                	srli	a1,a1,0x8
     d48:	00b515b3          	sll	a1,a0,a1
     d4c:	8f6d                	and	a4,a4,a1
     d4e:	00e03533          	snez	a0,a4
     d52:	8082                	ret
     d54:	4689                	li	a3,2
     d56:	00d71463          	bne	a4,a3,d5e <USART_GetITStatus+0x38>
     d5a:	291a                	lhu	a4,16(a0)
     d5c:	bff1                	j	d38 <USART_GetITStatus+0x12>
     d5e:	295a                	lhu	a4,20(a0)
     d60:	bfe1                	j	d38 <USART_GetITStatus+0x12>

00000d62 <cJSON_InitHooks>:
     d62:	c519                	beqz	a0,d70 <cJSON_InitHooks+0xe>
     d64:	4118                	lw	a4,0(a0)
     d66:	80e1a623          	sw	a4,-2036(gp) # 2000009c <cJSON_malloc>
     d6a:	4158                	lw	a4,4(a0)
     d6c:	80e1a423          	sw	a4,-2040(gp) # 20000098 <cJSON_free>
     d70:	8082                	ret

00000d72 <USBFS_RCC_Init>:
     d72:	c7eff2ef          	jal	t0,1f0 <__riscv_save_0>
     d76:	200007b7          	lui	a5,0x20000
     d7a:	0907a703          	lw	a4,144(a5) # 20000090 <SystemCoreClock>
     d7e:	089547b7          	lui	a5,0x8954
     d82:	40078793          	addi	a5,a5,1024 # 8954400 <_data_lma+0x8950014>
     d86:	4509                	li	a0,2
     d88:	02f70063          	beq	a4,a5,da8 <USBFS_RCC_Init+0x36>
     d8c:	05b8e7b7          	lui	a5,0x5b8e
     d90:	80078793          	addi	a5,a5,-2048 # 5b8d800 <_data_lma+0x5b89414>
     d94:	4505                	li	a0,1
     d96:	00f70963          	beq	a4,a5,da8 <USBFS_RCC_Init+0x36>
     d9a:	02dc77b7          	lui	a5,0x2dc7
     d9e:	c0078793          	addi	a5,a5,-1024 # 2dc6c00 <_data_lma+0x2dc2814>
     da2:	00f71463          	bne	a4,a5,daa <USBFS_RCC_Init+0x38>
     da6:	4501                	li	a0,0
     da8:	35a1                	jal	bf0 <RCC_USBFSCLKConfig>
     daa:	4585                	li	a1,1
     dac:	6505                	lui	a0,0x1
     dae:	33e5                	jal	b96 <RCC_AHBPeriphClockCmd>
     db0:	c64ff06f          	j	214 <__riscv_restore_0>

00000db4 <USBFS_Device_Endp_Init>:
     db4:	500007b7          	lui	a5,0x50000
     db8:	04000713          	li	a4,64
     dbc:	a7d8                	sb	a4,12(a5)
     dbe:	04800713          	li	a4,72
     dc2:	b7d8                	sb	a4,13(a5)
     dc4:	87418713          	addi	a4,gp,-1932 # 20000104 <USBFS_EP0_Buf>
     dc8:	cb98                	sw	a4,16(a5)
     dca:	8b418713          	addi	a4,gp,-1868 # 20000144 <USBFS_EP1_Buf>
     dce:	cbd8                	sw	a4,20(a5)
     dd0:	8f418713          	addi	a4,gp,-1804 # 20000184 <USBFS_EP2_Buf>
     dd4:	cf98                	sw	a4,24(a5)
     dd6:	93418713          	addi	a4,gp,-1740 # 200001c4 <USBFS_EP3_Buf>
     dda:	cfd8                	sw	a4,28(a5)
     ddc:	020789a3          	sb	zero,51(a5) # 50000033 <_eusrstack+0x2fff8033>
     de0:	02078da3          	sb	zero,59(a5)
     de4:	02079a23          	sh	zero,52(a5)
     de8:	02079e23          	sh	zero,60(a5)
     dec:	4709                	li	a4,2
     dee:	02e78923          	sb	a4,50(a5)
     df2:	02e78b23          	sb	a4,54(a5)
     df6:	02e78f23          	sb	a4,62(a5)
     dfa:	83818793          	addi	a5,gp,-1992 # 200000c8 <USBFS_Endp_Busy>
     dfe:	00078023          	sb	zero,0(a5)
     e02:	000780a3          	sb	zero,1(a5)
     e06:	00078123          	sb	zero,2(a5)
     e0a:	000781a3          	sb	zero,3(a5)
     e0e:	00078223          	sb	zero,4(a5)
     e12:	000782a3          	sb	zero,5(a5)
     e16:	00078323          	sb	zero,6(a5)
     e1a:	000783a3          	sb	zero,7(a5)
     e1e:	8082                	ret

00000e20 <USBFS_Device_Init>:
     e20:	bd0ff2ef          	jal	t0,1f0 <__riscv_save_0>
     e24:	50000437          	lui	s0,0x50000
     e28:	4799                	li	a5,6
     e2a:	a01c                	sb	a5,0(s0)
     e2c:	c51d                	beqz	a0,e5a <USBFS_Device_Init+0x3a>
     e2e:	4529                	li	a0,10
     e30:	7db000ef          	jal	ra,1e0a <Delay_Us>
     e34:	479d                	li	a5,7
     e36:	00040023          	sb	zero,0(s0) # 50000000 <_eusrstack+0x2fff8000>
     e3a:	a03c                	sb	a5,2(s0)
     e3c:	02900793          	li	a5,41
     e40:	a01c                	sb	a5,0(s0)
     e42:	3f8d                	jal	db4 <USBFS_Device_Endp_Init>
     e44:	f8100793          	li	a5,-127
     e48:	b01c                	sb	a5,1(s0)
     e4a:	00080737          	lui	a4,0x80
     e4e:	e000e7b7          	lui	a5,0xe000e
     e52:	10e7a423          	sw	a4,264(a5) # e000e108 <_eusrstack+0xc0006108>
     e56:	bbeff06f          	j	214 <__riscv_restore_0>
     e5a:	4529                	li	a0,10
     e5c:	7af000ef          	jal	ra,1e0a <Delay_Us>
     e60:	e000e7b7          	lui	a5,0xe000e
     e64:	00040023          	sb	zero,0(s0)
     e68:	00080737          	lui	a4,0x80
     e6c:	18e7a423          	sw	a4,392(a5) # e000e188 <_eusrstack+0xc0006188>
     e70:	0000100f          	fence.i
     e74:	b7cd                	j	e56 <USBFS_Device_Init+0x36>

00000e76 <USBFS_Endp_DataUp>:
     e76:	fff50793          	addi	a5,a0,-1 # fff <USBFS_IRQHandler+0x9f>
     e7a:	0ff7f793          	andi	a5,a5,255
     e7e:	4819                	li	a6,6
     e80:	0cf86d63          	bltu	a6,a5,f5a <USBFS_Endp_DataUp+0xe4>
     e84:	b52ff2ef          	jal	t0,1d6 <__riscv_save_4>
     e88:	83818793          	addi	a5,gp,-1992 # 200000c8 <USBFS_Endp_Busy>
     e8c:	97aa                	add	a5,a5,a0
     e8e:	239c                	lbu	a5,0(a5)
     e90:	83818493          	addi	s1,gp,-1992 # 200000c8 <USBFS_Endp_Busy>
     e94:	4705                	li	a4,1
     e96:	0ff7f793          	andi	a5,a5,255
     e9a:	ebcd                	bnez	a5,f4c <USBFS_Endp_DataUp+0xd6>
     e9c:	4785                	li	a5,1
     e9e:	00f50563          	beq	a0,a5,ea8 <USBFS_Endp_DataUp+0x32>
     ea2:	4711                	li	a4,4
     ea4:	00e51c63          	bne	a0,a4,ebc <USBFS_Endp_DataUp+0x46>
     ea8:	500007b7          	lui	a5,0x50000
     eac:	27dc                	lbu	a5,12(a5)
     eae:	4705                	li	a4,1
     eb0:	0ff7f793          	andi	a5,a5,255
     eb4:	02e51e63          	bne	a0,a4,ef0 <USBFS_Endp_DataUp+0x7a>
     eb8:	8391                	srli	a5,a5,0x4
     eba:	a81d                	j	ef0 <USBFS_Endp_DataUp+0x7a>
     ebc:	ffe50713          	addi	a4,a0,-2
     ec0:	0ff77713          	andi	a4,a4,255
     ec4:	00e7e963          	bltu	a5,a4,ed6 <USBFS_Endp_DataUp+0x60>
     ec8:	500007b7          	lui	a5,0x50000
     ecc:	37dc                	lbu	a5,13(a5)
     ece:	470d                	li	a4,3
     ed0:	0ff7f793          	andi	a5,a5,255
     ed4:	b7c5                	j	eb4 <USBFS_Endp_DataUp+0x3e>
     ed6:	ffb50713          	addi	a4,a0,-5
     eda:	0ff77713          	andi	a4,a4,255
     ede:	04e7e063          	bltu	a5,a4,f1e <USBFS_Endp_DataUp+0xa8>
     ee2:	500007b7          	lui	a5,0x50000
     ee6:	27fc                	lbu	a5,14(a5)
     ee8:	0ff7f793          	andi	a5,a5,255
     eec:	fd0506e3          	beq	a0,a6,eb8 <USBFS_Endp_DataUp+0x42>
     ef0:	0047f813          	andi	a6,a5,4
     ef4:	4701                	li	a4,0
     ef6:	04080b63          	beqz	a6,f4c <USBFS_Endp_DataUp+0xd6>
     efa:	14000437          	lui	s0,0x14000
     efe:	0411                	addi	s0,s0,4
     f00:	942a                	add	s0,s0,a0
     f02:	8ba1                	andi	a5,a5,8
     f04:	89b2                	mv	s3,a2
     f06:	892a                	mv	s2,a0
     f08:	040a                	slli	s0,s0,0x2
     f0a:	c385                	beqz	a5,f2a <USBFS_Endp_DataUp+0xb4>
     f0c:	4008                	lw	a0,0(s0)
     f0e:	200007b7          	lui	a5,0x20000
     f12:	04078793          	addi	a5,a5,64 # 20000040 <impure_data+0x14>
     f16:	953e                	add	a0,a0,a5
     f18:	6d1020ef          	jal	ra,3de8 <memcpy>
     f1c:	a819                	j	f32 <USBFS_Endp_DataUp+0xbc>
     f1e:	500007b7          	lui	a5,0x50000
     f22:	37fc                	lbu	a5,15(a5)
     f24:	0ff7f793          	andi	a5,a5,255
     f28:	b7e1                	j	ef0 <USBFS_Endp_DataUp+0x7a>
     f2a:	e685                	bnez	a3,f52 <USBFS_Endp_DataUp+0xdc>
     f2c:	05c2                	slli	a1,a1,0x10
     f2e:	81c1                	srli	a1,a1,0x10
     f30:	c00c                	sw	a1,0(s0)
     f32:	4785                	li	a5,1
     f34:	01248533          	add	a0,s1,s2
     f38:	a11c                	sb	a5,0(a0)
     f3a:	03341023          	sh	s3,32(s0) # 14000020 <_data_lma+0x13ffbc34>
     f3e:	02244783          	lbu	a5,34(s0)
     f42:	4701                	li	a4,0
     f44:	0fc7f793          	andi	a5,a5,252
     f48:	02f40123          	sb	a5,34(s0)
     f4c:	853a                	mv	a0,a4
     f4e:	abcff06f          	j	20a <__riscv_restore_4>
     f52:	4008                	lw	a0,0(s0)
     f54:	200007b7          	lui	a5,0x20000
     f58:	bf7d                	j	f16 <USBFS_Endp_DataUp+0xa0>
     f5a:	4705                	li	a4,1
     f5c:	853a                	mv	a0,a4
     f5e:	8082                	ret

00000f60 <USBFS_IRQHandler>:
     f60:	1101                	addi	sp,sp,-32
     f62:	ce22                	sw	s0,28(sp)
     f64:	cc26                	sw	s1,24(sp)
     f66:	ca4a                	sw	s2,20(sp)
     f68:	c84e                	sw	s3,16(sp)
     f6a:	c652                	sw	s4,12(sp)
     f6c:	c456                	sw	s5,8(sp)
     f6e:	50000437          	lui	s0,0x50000
     f72:	2078                	lbu	a4,6(s0)
     f74:	307c                	lbu	a5,7(s0)
     f76:	0ff77713          	andi	a4,a4,255
     f7a:	00277693          	andi	a3,a4,2
     f7e:	56068763          	beqz	a3,14ec <USBFS_IRQHandler+0x58c>
     f82:	0ff7f793          	andi	a5,a5,255
     f86:	0307f713          	andi	a4,a5,48
     f8a:	02000593          	li	a1,32
     f8e:	02b70963          	beq	a4,a1,fc0 <USBFS_IRQHandler+0x60>
     f92:	03000693          	li	a3,48
     f96:	18d70263          	beq	a4,a3,111a <USBFS_IRQHandler+0x1ba>
     f9a:	eb61                	bnez	a4,106a <USBFS_IRQHandler+0x10a>
     f9c:	03f7f713          	andi	a4,a5,63
     fa0:	12070863          	beqz	a4,10d0 <USBFS_IRQHandler+0x170>
     fa4:	4789                	li	a5,2
     fa6:	0cf71263          	bne	a4,a5,106a <USBFS_IRQHandler+0x10a>
     faa:	03b44783          	lbu	a5,59(s0) # 5000003b <_eusrstack+0x2fff803b>
     fae:	0047c793          	xori	a5,a5,4
     fb2:	02f40da3          	sb	a5,59(s0)
     fb6:	83818793          	addi	a5,gp,-1992 # 200000c8 <USBFS_Endp_Busy>
     fba:	00078123          	sb	zero,2(a5) # 20000002 <_data_vma+0x2>
     fbe:	a075                	j	106a <USBFS_IRQHandler+0x10a>
     fc0:	03f7f793          	andi	a5,a5,63
     fc4:	02100693          	li	a3,33
     fc8:	0ad78e63          	beq	a5,a3,1084 <USBFS_IRQHandler+0x124>
     fcc:	02300693          	li	a3,35
     fd0:	0cd78d63          	beq	a5,a3,10aa <USBFS_IRQHandler+0x14a>
     fd4:	08e79b63          	bne	a5,a4,106a <USBFS_IRQHandler+0x10a>
     fd8:	84418793          	addi	a5,gp,-1980 # 200000d4 <USBFS_SetupReqLen>
     fdc:	239e                	lhu	a5,0(a5)
     fde:	84418493          	addi	s1,gp,-1980 # 200000d4 <USBFS_SetupReqLen>
     fe2:	07c2                	slli	a5,a5,0x10
     fe4:	83c1                	srli	a5,a5,0x10
     fe6:	e781                	bnez	a5,fee <USBFS_IRQHandler+0x8e>
     fe8:	4791                	li	a5,4
     fea:	02f409a3          	sb	a5,51(s0)
     fee:	8461c783          	lbu	a5,-1978(gp) # 200000d6 <USBFS_SetupReqType>
     ff2:	0607f793          	andi	a5,a5,96
     ff6:	ebb5                	bnez	a5,106a <USBFS_IRQHandler+0x10a>
     ff8:	8401c783          	lbu	a5,-1984(gp) # 200000d0 <USBFS_SetupReqCode>
     ffc:	4715                	li	a4,5
     ffe:	0ff7f793          	andi	a5,a5,255
    1002:	04e78b63          	beq	a5,a4,1058 <USBFS_IRQHandler+0xf8>
    1006:	4719                	li	a4,6
    1008:	06e79163          	bne	a5,a4,106a <USBFS_IRQHandler+0x10a>
    100c:	209e                	lhu	a5,0(s1)
    100e:	03f00713          	li	a4,63
    1012:	04000413          	li	s0,64
    1016:	00f76563          	bltu	a4,a5,1020 <USBFS_IRQHandler+0xc0>
    101a:	2082                	lhu	s0,0(s1)
    101c:	0442                	slli	s0,s0,0x10
    101e:	8041                	srli	s0,s0,0x10
    1020:	84c18913          	addi	s2,gp,-1972 # 200000dc <pUSBFS_Descr>
    1024:	00092983          	lw	s3,0(s2)
    1028:	8622                	mv	a2,s0
    102a:	85ce                	mv	a1,s3
    102c:	87418513          	addi	a0,gp,-1932 # 20000104 <USBFS_EP0_Buf>
    1030:	5b9020ef          	jal	ra,3de8 <memcpy>
    1034:	209e                	lhu	a5,0(s1)
    1036:	99a2                	add	s3,s3,s0
    1038:	01392023          	sw	s3,0(s2)
    103c:	8f81                	sub	a5,a5,s0
    103e:	07c2                	slli	a5,a5,0x10
    1040:	83c1                	srli	a5,a5,0x10
    1042:	a09e                	sh	a5,0(s1)
    1044:	500007b7          	lui	a5,0x50000
    1048:	bb82                	sh	s0,48(a5)
    104a:	0327c703          	lbu	a4,50(a5) # 50000032 <_eusrstack+0x2fff8032>
    104e:	00474713          	xori	a4,a4,4
    1052:	02e78923          	sb	a4,50(a5)
    1056:	a811                	j	106a <USBFS_IRQHandler+0x10a>
    1058:	50000737          	lui	a4,0x50000
    105c:	333c                	lbu	a5,3(a4)
    105e:	8341c683          	lbu	a3,-1996(gp) # 200000c4 <USBFS_DevAddr>
    1062:	0807f793          	andi	a5,a5,128
    1066:	8fd5                	or	a5,a5,a3
    1068:	b33c                	sb	a5,3(a4)
    106a:	500007b7          	lui	a5,0x50000
    106e:	4709                	li	a4,2
    1070:	a3f8                	sb	a4,6(a5)
    1072:	4472                	lw	s0,28(sp)
    1074:	44e2                	lw	s1,24(sp)
    1076:	4952                	lw	s2,20(sp)
    1078:	49c2                	lw	s3,16(sp)
    107a:	4a32                	lw	s4,12(sp)
    107c:	4aa2                	lw	s5,8(sp)
    107e:	6105                	addi	sp,sp,32
    1080:	30200073          	mret
    1084:	03644783          	lbu	a5,54(s0)
    1088:	0047c793          	xori	a5,a5,4
    108c:	02f40b23          	sb	a5,54(s0)
    1090:	03644783          	lbu	a5,54(s0)
    1094:	0fc7f793          	andi	a5,a5,252
    1098:	0027e793          	ori	a5,a5,2
    109c:	02f40b23          	sb	a5,54(s0)
    10a0:	83818793          	addi	a5,gp,-1992 # 200000c8 <USBFS_Endp_Busy>
    10a4:	000780a3          	sb	zero,1(a5) # 50000001 <_eusrstack+0x2fff8001>
    10a8:	b7c9                	j	106a <USBFS_IRQHandler+0x10a>
    10aa:	03e44783          	lbu	a5,62(s0)
    10ae:	0047c793          	xori	a5,a5,4
    10b2:	02f40f23          	sb	a5,62(s0)
    10b6:	03e44783          	lbu	a5,62(s0)
    10ba:	0fc7f793          	andi	a5,a5,252
    10be:	0027e793          	ori	a5,a5,2
    10c2:	02f40f23          	sb	a5,62(s0)
    10c6:	83818793          	addi	a5,gp,-1992 # 200000c8 <USBFS_Endp_Busy>
    10ca:	000781a3          	sb	zero,3(a5)
    10ce:	bf71                	j	106a <USBFS_IRQHandler+0x10a>
    10d0:	241a                	lhu	a4,8(s0)
    10d2:	0407f793          	andi	a5,a5,64
    10d6:	dbd1                	beqz	a5,106a <USBFS_IRQHandler+0x10a>
    10d8:	8461c783          	lbu	a5,-1978(gp) # 200000d6 <USBFS_SetupReqType>
    10dc:	84418693          	addi	a3,gp,-1980 # 200000d4 <USBFS_SetupReqLen>
    10e0:	0607f793          	andi	a5,a5,96
    10e4:	c38d                	beqz	a5,1106 <USBFS_IRQHandler+0x1a6>
    10e6:	00069023          	sh	zero,0(a3) # ff400000 <_eusrstack+0xdf3f8000>
    10ea:	8401c783          	lbu	a5,-1984(gp) # 200000d0 <USBFS_SetupReqCode>
    10ee:	00f59c63          	bne	a1,a5,1106 <USBFS_IRQHandler+0x1a6>
    10f2:	87418713          	addi	a4,gp,-1932 # 20000104 <USBFS_EP0_Buf>
    10f6:	2370                	lbu	a2,6(a4)
    10f8:	430c                	lw	a1,0(a4)
    10fa:	235a                	lhu	a4,4(a4)
    10fc:	81018793          	addi	a5,gp,-2032 # 200000a0 <LineCoding>
    1100:	c38c                	sw	a1,0(a5)
    1102:	a3da                	sh	a4,4(a5)
    1104:	a3f0                	sb	a2,6(a5)
    1106:	229e                	lhu	a5,0(a3)
    1108:	07c2                	slli	a5,a5,0x10
    110a:	83c1                	srli	a5,a5,0x10
    110c:	ffb9                	bnez	a5,106a <USBFS_IRQHandler+0x10a>
    110e:	500007b7          	lui	a5,0x50000
    1112:	02079823          	sh	zero,48(a5) # 50000030 <_eusrstack+0x2fff8030>
    1116:	4711                	li	a4,4
    1118:	bf2d                	j	1052 <USBFS_IRQHandler+0xf2>
    111a:	4799                	li	a5,6
    111c:	02f40923          	sb	a5,50(s0)
    1120:	02f409a3          	sb	a5,51(s0)
    1124:	87418693          	addi	a3,gp,-1932 # 20000104 <USBFS_EP0_Buf>
    1128:	229c                	lbu	a5,0(a3)
    112a:	84618613          	addi	a2,gp,-1978 # 200000d6 <USBFS_SetupReqType>
    112e:	a21c                	sb	a5,0(a2)
    1130:	329c                	lbu	a5,1(a3)
    1132:	0066d803          	lhu	a6,6(a3)
    1136:	84018713          	addi	a4,gp,-1984 # 200000d0 <USBFS_SetupReqCode>
    113a:	a31c                	sb	a5,0(a4)
    113c:	0026d883          	lhu	a7,2(a3)
    1140:	84418793          	addi	a5,gp,-1980 # 200000d4 <USBFS_SetupReqLen>
    1144:	01079023          	sh	a6,0(a5)
    1148:	84818813          	addi	a6,gp,-1976 # 200000d8 <USBFS_SetupReqValue>
    114c:	01181023          	sh	a7,0(a6)
    1150:	0046d883          	lhu	a7,4(a3)
    1154:	84218813          	addi	a6,gp,-1982 # 200000d2 <USBFS_SetupReqIndex>
    1158:	01181023          	sh	a7,0(a6)
    115c:	00064803          	lbu	a6,0(a2) # 40021000 <_eusrstack+0x20019000>
    1160:	84418913          	addi	s2,gp,-1980 # 200000d4 <USBFS_SetupReqLen>
    1164:	84618993          	addi	s3,gp,-1978 # 200000d6 <USBFS_SetupReqType>
    1168:	06087813          	andi	a6,a6,96
    116c:	87418613          	addi	a2,gp,-1932 # 20000104 <USBFS_EP0_Buf>
    1170:	84818793          	addi	a5,gp,-1976 # 200000d8 <USBFS_SetupReqValue>
    1174:	84218693          	addi	a3,gp,-1982 # 200000d2 <USBFS_SetupReqIndex>
    1178:	0a080263          	beqz	a6,121c <USBFS_IRQHandler+0x2bc>
    117c:	0009c783          	lbu	a5,0(s3)
    1180:	84c18493          	addi	s1,gp,-1972 # 200000dc <pUSBFS_Descr>
    1184:	0207f793          	andi	a5,a5,32
    1188:	cfbd                	beqz	a5,1206 <USBFS_IRQHandler+0x2a6>
    118a:	231c                	lbu	a5,0(a4)
    118c:	02100713          	li	a4,33
    1190:	0ff7f793          	andi	a5,a5,255
    1194:	06e78563          	beq	a5,a4,11fe <USBFS_IRQHandler+0x29e>
    1198:	04f76b63          	bltu	a4,a5,11ee <USBFS_IRQHandler+0x28e>
    119c:	4401                	li	s0,0
    119e:	00b78463          	beq	a5,a1,11a6 <USBFS_IRQHandler+0x246>
    11a2:	0ff00413          	li	s0,255
    11a6:	00095783          	lhu	a5,0(s2)
    11aa:	03f00713          	li	a4,63
    11ae:	04000a13          	li	s4,64
    11b2:	00f76763          	bltu	a4,a5,11c0 <USBFS_IRQHandler+0x260>
    11b6:	00095a03          	lhu	s4,0(s2)
    11ba:	0a42                	slli	s4,s4,0x10
    11bc:	010a5a13          	srli	s4,s4,0x10
    11c0:	0004aa83          	lw	s5,0(s1)
    11c4:	8652                	mv	a2,s4
    11c6:	87418513          	addi	a0,gp,-1932 # 20000104 <USBFS_EP0_Buf>
    11ca:	85d6                	mv	a1,s5
    11cc:	9a56                	add	s4,s4,s5
    11ce:	41b020ef          	jal	ra,3de8 <memcpy>
    11d2:	0144a023          	sw	s4,0(s1)
    11d6:	0ff00793          	li	a5,255
    11da:	10f41363          	bne	s0,a5,12e0 <USBFS_IRQHandler+0x380>
    11de:	500007b7          	lui	a5,0x50000
    11e2:	471d                	li	a4,7
    11e4:	02e78923          	sb	a4,50(a5) # 50000032 <_eusrstack+0x2fff8032>
    11e8:	02e789a3          	sb	a4,51(a5)
    11ec:	bdbd                	j	106a <USBFS_IRQHandler+0x10a>
    11ee:	02300713          	li	a4,35
    11f2:	0ff00413          	li	s0,255
    11f6:	faf768e3          	bltu	a4,a5,11a6 <USBFS_IRQHandler+0x246>
    11fa:	4401                	li	s0,0
    11fc:	b76d                	j	11a6 <USBFS_IRQHandler+0x246>
    11fe:	81018793          	addi	a5,gp,-2032 # 200000a0 <LineCoding>
    1202:	c09c                	sw	a5,0(s1)
    1204:	bfdd                	j	11fa <USBFS_IRQHandler+0x29a>
    1206:	0009c403          	lbu	s0,0(s3)
    120a:	8019                	srli	s0,s0,0x6
    120c:	00144413          	xori	s0,s0,1
    1210:	8805                	andi	s0,s0,1
    1212:	40800433          	neg	s0,s0
    1216:	0ff47413          	andi	s0,s0,255
    121a:	b771                	j	11a6 <USBFS_IRQHandler+0x246>
    121c:	2318                	lbu	a4,0(a4)
    121e:	45ad                	li	a1,11
    1220:	0ff77713          	andi	a4,a4,255
    1224:	fae5ede3          	bltu	a1,a4,11de <USBFS_IRQHandler+0x27e>
    1228:	6591                	lui	a1,0x4
    122a:	070a                	slli	a4,a4,0x2
    122c:	13458593          	addi	a1,a1,308 # 4134 <__malloc_unlock+0xf4>
    1230:	972e                	add	a4,a4,a1
    1232:	4318                	lw	a4,0(a4)
    1234:	8702                	jr	a4
    1236:	239a                	lhu	a4,0(a5)
    1238:	4689                	li	a3,2
    123a:	8321                	srli	a4,a4,0x8
    123c:	84c18493          	addi	s1,gp,-1972 # 200000dc <pUSBFS_Descr>
    1240:	02d70663          	beq	a4,a3,126c <USBFS_IRQHandler+0x30c>
    1244:	460d                	li	a2,3
    1246:	02c70e63          	beq	a4,a2,1282 <USBFS_IRQHandler+0x322>
    124a:	4785                	li	a5,1
    124c:	04f71663          	bne	a4,a5,1298 <USBFS_IRQHandler+0x338>
    1250:	6791                	lui	a5,0x4
    1252:	25078713          	addi	a4,a5,592 # 4250 <MyDevDescr>
    1256:	2507c783          	lbu	a5,592(a5)
    125a:	c098                	sw	a4,0(s1)
    125c:	4401                	li	s0,0
    125e:	00095703          	lhu	a4,0(s2)
    1262:	f4e7f2e3          	bgeu	a5,a4,11a6 <USBFS_IRQHandler+0x246>
    1266:	00f91023          	sh	a5,0(s2)
    126a:	bf35                	j	11a6 <USBFS_IRQHandler+0x246>
    126c:	6711                	lui	a4,0x4
    126e:	20c70713          	addi	a4,a4,524 # 420c <MyCfgDescr>
    1272:	333c                	lbu	a5,3(a4)
    1274:	c098                	sw	a4,0(s1)
    1276:	2338                	lbu	a4,2(a4)
    1278:	07a2                	slli	a5,a5,0x8
    127a:	97ba                	add	a5,a5,a4
    127c:	07c2                	slli	a5,a5,0x10
    127e:	83c1                	srli	a5,a5,0x10
    1280:	bff1                	j	125c <USBFS_IRQHandler+0x2fc>
    1282:	239e                	lhu	a5,0(a5)
    1284:	4605                	li	a2,1
    1286:	0ff7f793          	andi	a5,a5,255
    128a:	02c78163          	beq	a5,a2,12ac <USBFS_IRQHandler+0x34c>
    128e:	cb89                	beqz	a5,12a0 <USBFS_IRQHandler+0x340>
    1290:	02d78563          	beq	a5,a3,12ba <USBFS_IRQHandler+0x35a>
    1294:	02e78a63          	beq	a5,a4,12c8 <USBFS_IRQHandler+0x368>
    1298:	4781                	li	a5,0
    129a:	0ff00413          	li	s0,255
    129e:	b7c1                	j	125e <USBFS_IRQHandler+0x2fe>
    12a0:	82018713          	addi	a4,gp,-2016 # 200000b0 <MyLangDescr>
    12a4:	c098                	sw	a4,0(s1)
    12a6:	8201c783          	lbu	a5,-2016(gp) # 200000b0 <MyLangDescr>
    12aa:	bf4d                	j	125c <USBFS_IRQHandler+0x2fc>
    12ac:	6791                	lui	a5,0x4
    12ae:	26478713          	addi	a4,a5,612 # 4264 <MyManuInfo>
    12b2:	c098                	sw	a4,0(s1)
    12b4:	2647c783          	lbu	a5,612(a5)
    12b8:	b755                	j	125c <USBFS_IRQHandler+0x2fc>
    12ba:	6791                	lui	a5,0x4
    12bc:	27478713          	addi	a4,a5,628 # 4274 <MyProdInfo>
    12c0:	c098                	sw	a4,0(s1)
    12c2:	2747c783          	lbu	a5,628(a5)
    12c6:	bf59                	j	125c <USBFS_IRQHandler+0x2fc>
    12c8:	6791                	lui	a5,0x4
    12ca:	28c78713          	addi	a4,a5,652 # 428c <MySerNumInfo>
    12ce:	c098                	sw	a4,0(s1)
    12d0:	28c7c783          	lbu	a5,652(a5)
    12d4:	b761                	j	125c <USBFS_IRQHandler+0x2fc>
    12d6:	239e                	lhu	a5,0(a5)
    12d8:	0ff7f793          	andi	a5,a5,255
    12dc:	82f18a23          	sb	a5,-1996(gp) # 200000c4 <USBFS_DevAddr>
    12e0:	0009c783          	lbu	a5,0(s3)
    12e4:	07e2                	slli	a5,a5,0x18
    12e6:	87e1                	srai	a5,a5,0x18
    12e8:	1e07d863          	bgez	a5,14d8 <USBFS_IRQHandler+0x578>
    12ec:	00095703          	lhu	a4,0(s2)
    12f0:	04000793          	li	a5,64
    12f4:	00e7e663          	bltu	a5,a4,1300 <USBFS_IRQHandler+0x3a0>
    12f8:	00095783          	lhu	a5,0(s2)
    12fc:	07c2                	slli	a5,a5,0x10
    12fe:	83c1                	srli	a5,a5,0x10
    1300:	00095703          	lhu	a4,0(s2)
    1304:	8f1d                	sub	a4,a4,a5
    1306:	0742                	slli	a4,a4,0x10
    1308:	8341                	srli	a4,a4,0x10
    130a:	00e91023          	sh	a4,0(s2)
    130e:	50000737          	lui	a4,0x50000
    1312:	bb1e                	sh	a5,48(a4)
    1314:	4791                	li	a5,4
    1316:	02f70923          	sb	a5,50(a4) # 50000032 <_eusrstack+0x2fff8032>
    131a:	bb81                	j	106a <USBFS_IRQHandler+0x10a>
    131c:	8351c783          	lbu	a5,-1995(gp) # 200000c5 <USBFS_DevConfig>
    1320:	a21c                	sb	a5,0(a2)
    1322:	00095703          	lhu	a4,0(s2)
    1326:	4785                	li	a5,1
    1328:	fae7fce3          	bgeu	a5,a4,12e0 <USBFS_IRQHandler+0x380>
    132c:	00f91023          	sh	a5,0(s2)
    1330:	bf45                	j	12e0 <USBFS_IRQHandler+0x380>
    1332:	239e                	lhu	a5,0(a5)
    1334:	0ff7f793          	andi	a5,a5,255
    1338:	82f18aa3          	sb	a5,-1995(gp) # 200000c5 <USBFS_DevConfig>
    133c:	4705                	li	a4,1
    133e:	82e18b23          	sb	a4,-1994(gp) # 200000c6 <USBFS_DevEnumStatus>
    1342:	bf79                	j	12e0 <USBFS_IRQHandler+0x380>
    1344:	0009c703          	lbu	a4,0(s3)
    1348:	8b7d                	andi	a4,a4,31
    134a:	ef11                	bnez	a4,1366 <USBFS_IRQHandler+0x406>
    134c:	239e                	lhu	a5,0(a5)
    134e:	4705                	li	a4,1
    1350:	0ff7f793          	andi	a5,a5,255
    1354:	f8e796e3          	bne	a5,a4,12e0 <USBFS_IRQHandler+0x380>
    1358:	83718793          	addi	a5,gp,-1993 # 200000c7 <USBFS_DevSleepStatus>
    135c:	2398                	lbu	a4,0(a5)
    135e:	0fe77713          	andi	a4,a4,254
    1362:	a398                	sb	a4,0(a5)
    1364:	bfb5                	j	12e0 <USBFS_IRQHandler+0x380>
    1366:	0009c703          	lbu	a4,0(s3)
    136a:	4609                	li	a2,2
    136c:	8b7d                	andi	a4,a4,31
    136e:	e6c718e3          	bne	a4,a2,11de <USBFS_IRQHandler+0x27e>
    1372:	239e                	lhu	a5,0(a5)
    1374:	0ff7f793          	andi	a5,a5,255
    1378:	e60793e3          	bnez	a5,11de <USBFS_IRQHandler+0x27e>
    137c:	229e                	lhu	a5,0(a3)
    137e:	08100693          	li	a3,129
    1382:	0ff7f793          	andi	a5,a5,255
    1386:	00d78d63          	beq	a5,a3,13a0 <USBFS_IRQHandler+0x440>
    138a:	08300693          	li	a3,131
    138e:	00d78e63          	beq	a5,a3,13aa <USBFS_IRQHandler+0x44a>
    1392:	e4e796e3          	bne	a5,a4,11de <USBFS_IRQHandler+0x27e>
    1396:	500007b7          	lui	a5,0x50000
    139a:	02078da3          	sb	zero,59(a5) # 5000003b <_eusrstack+0x2fff803b>
    139e:	b789                	j	12e0 <USBFS_IRQHandler+0x380>
    13a0:	500007b7          	lui	a5,0x50000
    13a4:	02e78b23          	sb	a4,54(a5) # 50000036 <_eusrstack+0x2fff8036>
    13a8:	bf25                	j	12e0 <USBFS_IRQHandler+0x380>
    13aa:	500007b7          	lui	a5,0x50000
    13ae:	02e78f23          	sb	a4,62(a5) # 5000003e <_eusrstack+0x2fff803e>
    13b2:	b73d                	j	12e0 <USBFS_IRQHandler+0x380>
    13b4:	0009c703          	lbu	a4,0(s3)
    13b8:	8b7d                	andi	a4,a4,31
    13ba:	e705                	bnez	a4,13e2 <USBFS_IRQHandler+0x482>
    13bc:	239e                	lhu	a5,0(a5)
    13be:	4705                	li	a4,1
    13c0:	0ff7f793          	andi	a5,a5,255
    13c4:	e0e79de3          	bne	a5,a4,11de <USBFS_IRQHandler+0x27e>
    13c8:	6791                	lui	a5,0x4
    13ca:	2137c783          	lbu	a5,531(a5) # 4213 <MyCfgDescr+0x7>
    13ce:	0207f793          	andi	a5,a5,32
    13d2:	e00786e3          	beqz	a5,11de <USBFS_IRQHandler+0x27e>
    13d6:	83718793          	addi	a5,gp,-1993 # 200000c7 <USBFS_DevSleepStatus>
    13da:	2398                	lbu	a4,0(a5)
    13dc:	00176713          	ori	a4,a4,1
    13e0:	b749                	j	1362 <USBFS_IRQHandler+0x402>
    13e2:	0009c703          	lbu	a4,0(s3)
    13e6:	4609                	li	a2,2
    13e8:	8b7d                	andi	a4,a4,31
    13ea:	dec71ae3          	bne	a4,a2,11de <USBFS_IRQHandler+0x27e>
    13ee:	239e                	lhu	a5,0(a5)
    13f0:	0ff7f793          	andi	a5,a5,255
    13f4:	de0795e3          	bnez	a5,11de <USBFS_IRQHandler+0x27e>
    13f8:	229e                	lhu	a5,0(a3)
    13fa:	08100693          	li	a3,129
    13fe:	0ff7f793          	andi	a5,a5,255
    1402:	02d78163          	beq	a5,a3,1424 <USBFS_IRQHandler+0x4c4>
    1406:	08300693          	li	a3,131
    140a:	02d78663          	beq	a5,a3,1436 <USBFS_IRQHandler+0x4d6>
    140e:	dce798e3          	bne	a5,a4,11de <USBFS_IRQHandler+0x27e>
    1412:	50000737          	lui	a4,0x50000
    1416:	03b74783          	lbu	a5,59(a4) # 5000003b <_eusrstack+0x2fff803b>
    141a:	0037e793          	ori	a5,a5,3
    141e:	02f70da3          	sb	a5,59(a4)
    1422:	bd7d                	j	12e0 <USBFS_IRQHandler+0x380>
    1424:	50000737          	lui	a4,0x50000
    1428:	03674783          	lbu	a5,54(a4) # 50000036 <_eusrstack+0x2fff8036>
    142c:	0037e793          	ori	a5,a5,3
    1430:	02f70b23          	sb	a5,54(a4)
    1434:	b575                	j	12e0 <USBFS_IRQHandler+0x380>
    1436:	50000737          	lui	a4,0x50000
    143a:	03e74783          	lbu	a5,62(a4) # 5000003e <_eusrstack+0x2fff803e>
    143e:	0037e793          	ori	a5,a5,3
    1442:	02f70f23          	sb	a5,62(a4)
    1446:	bd69                	j	12e0 <USBFS_IRQHandler+0x380>
    1448:	00060023          	sb	zero,0(a2)
    144c:	bdd9                	j	1322 <USBFS_IRQHandler+0x3c2>
    144e:	0009c783          	lbu	a5,0(s3)
    1452:	00061023          	sh	zero,0(a2)
    1456:	8bfd                	andi	a5,a5,31
    1458:	e385                	bnez	a5,1478 <USBFS_IRQHandler+0x518>
    145a:	8371c783          	lbu	a5,-1993(gp) # 200000c7 <USBFS_DevSleepStatus>
    145e:	4401                	li	s0,0
    1460:	8b85                	andi	a5,a5,1
    1462:	c399                	beqz	a5,1468 <USBFS_IRQHandler+0x508>
    1464:	4789                	li	a5,2
    1466:	a21c                	sb	a5,0(a2)
    1468:	00095703          	lhu	a4,0(s2)
    146c:	4789                	li	a5,2
    146e:	d6e7f4e3          	bgeu	a5,a4,11d6 <USBFS_IRQHandler+0x276>
    1472:	00f91023          	sh	a5,0(s2)
    1476:	b385                	j	11d6 <USBFS_IRQHandler+0x276>
    1478:	0009c703          	lbu	a4,0(s3)
    147c:	4789                	li	a5,2
    147e:	0ff00413          	li	s0,255
    1482:	8b7d                	andi	a4,a4,31
    1484:	fef712e3          	bne	a4,a5,1468 <USBFS_IRQHandler+0x508>
    1488:	229e                	lhu	a5,0(a3)
    148a:	08100693          	li	a3,129
    148e:	0ff7f793          	andi	a5,a5,255
    1492:	02d78163          	beq	a5,a3,14b4 <USBFS_IRQHandler+0x554>
    1496:	08300693          	li	a3,131
    149a:	02d78a63          	beq	a5,a3,14ce <USBFS_IRQHandler+0x56e>
    149e:	fce795e3          	bne	a5,a4,1468 <USBFS_IRQHandler+0x508>
    14a2:	500007b7          	lui	a5,0x50000
    14a6:	03b7c783          	lbu	a5,59(a5) # 5000003b <_eusrstack+0x2fff803b>
    14aa:	8b8d                	andi	a5,a5,3
    14ac:	470d                	li	a4,3
    14ae:	00e79e63          	bne	a5,a4,14ca <USBFS_IRQHandler+0x56a>
    14b2:	a811                	j	14c6 <USBFS_IRQHandler+0x566>
    14b4:	500007b7          	lui	a5,0x50000
    14b8:	0367c783          	lbu	a5,54(a5) # 50000036 <_eusrstack+0x2fff8036>
    14bc:	470d                	li	a4,3
    14be:	4401                	li	s0,0
    14c0:	8b8d                	andi	a5,a5,3
    14c2:	fae793e3          	bne	a5,a4,1468 <USBFS_IRQHandler+0x508>
    14c6:	4785                	li	a5,1
    14c8:	a21c                	sb	a5,0(a2)
    14ca:	4401                	li	s0,0
    14cc:	bf71                	j	1468 <USBFS_IRQHandler+0x508>
    14ce:	500007b7          	lui	a5,0x50000
    14d2:	03e7c783          	lbu	a5,62(a5) # 5000003e <_eusrstack+0x2fff803e>
    14d6:	bfd1                	j	14aa <USBFS_IRQHandler+0x54a>
    14d8:	00095783          	lhu	a5,0(s2)
    14dc:	07c2                	slli	a5,a5,0x10
    14de:	83c1                	srli	a5,a5,0x10
    14e0:	c20787e3          	beqz	a5,110e <USBFS_IRQHandler+0x1ae>
    14e4:	500007b7          	lui	a5,0x50000
    14e8:	4711                	li	a4,4
    14ea:	b9fd                	j	11e8 <USBFS_IRQHandler+0x288>
    14ec:	00177793          	andi	a5,a4,1
    14f0:	c385                	beqz	a5,1510 <USBFS_IRQHandler+0x5b0>
    14f2:	82018aa3          	sb	zero,-1995(gp) # 200000c5 <USBFS_DevConfig>
    14f6:	82018a23          	sb	zero,-1996(gp) # 200000c4 <USBFS_DevAddr>
    14fa:	82018ba3          	sb	zero,-1993(gp) # 200000c7 <USBFS_DevSleepStatus>
    14fe:	82018b23          	sb	zero,-1994(gp) # 200000c6 <USBFS_DevEnumStatus>
    1502:	000401a3          	sb	zero,3(s0)
    1506:	8afff0ef          	jal	ra,db4 <USBFS_Device_Endp_Init>
    150a:	4785                	li	a5,1
    150c:	a07c                	sb	a5,6(s0)
    150e:	b695                	j	1072 <USBFS_IRQHandler+0x112>
    1510:	00477793          	andi	a5,a4,4
    1514:	c795                	beqz	a5,1540 <USBFS_IRQHandler+0x5e0>
    1516:	4791                	li	a5,4
    1518:	a07c                	sb	a5,6(s0)
    151a:	4529                	li	a0,10
    151c:	0ef000ef          	jal	ra,1e0a <Delay_Us>
    1520:	3058                	lbu	a4,5(s0)
    1522:	83718793          	addi	a5,gp,-1993 # 200000c7 <USBFS_DevSleepStatus>
    1526:	8b11                	andi	a4,a4,4
    1528:	c719                	beqz	a4,1536 <USBFS_IRQHandler+0x5d6>
    152a:	2398                	lbu	a4,0(a5)
    152c:	00276713          	ori	a4,a4,2
    1530:	a398                	sb	a4,0(a5)
    1532:	239c                	lbu	a5,0(a5)
    1534:	be3d                	j	1072 <USBFS_IRQHandler+0x112>
    1536:	2398                	lbu	a4,0(a5)
    1538:	0fd77713          	andi	a4,a4,253
    153c:	a398                	sb	a4,0(a5)
    153e:	be15                	j	1072 <USBFS_IRQHandler+0x112>
    1540:	a078                	sb	a4,6(s0)
    1542:	be05                	j	1072 <USBFS_IRQHandler+0x112>

00001544 <dac8571_set_output>:
    1544:	cadfe2ef          	jal	t0,1f0 <__riscv_save_0>
    1548:	1141                	addi	sp,sp,-16
    154a:	00855793          	srli	a5,a0,0x8
    154e:	8748                	sb	a0,14(sp)
    1550:	006c                	addi	a1,sp,12
    1552:	46a9                	li	a3,10
    1554:	460d                	li	a2,3
    1556:	04c00513          	li	a0,76
    155a:	86dc                	sb	a5,13(sp)
    155c:	00010623          	sb	zero,12(sp)
    1560:	21c9                	jal	1a22 <i2c_util_write>
    1562:	0141                	addi	sp,sp,16
    1564:	cb1fe06f          	j	214 <__riscv_restore_0>

00001568 <i2c_timeout_start>:
    1568:	e000f7b7          	lui	a5,0xe000f
    156c:	43d8                	lw	a4,4(a5)
    156e:	567d                	li	a2,-1
    1570:	56fd                	li	a3,-1
    1572:	9b79                	andi	a4,a4,-2
    1574:	c3d8                	sw	a4,4(a5)
    1576:	cb90                	sw	a2,16(a5)
    1578:	cbd4                	sw	a3,20(a5)
    157a:	4398                	lw	a4,0(a5)
    157c:	1141                	addi	sp,sp,-16
    157e:	01076713          	ori	a4,a4,16
    1582:	c398                	sw	a4,0(a5)
    1584:	4398                	lw	a4,0(a5)
    1586:	02176713          	ori	a4,a4,33
    158a:	c398                	sw	a4,0(a5)
    158c:	c602                	sw	zero,12(sp)
    158e:	474d                	li	a4,19
    1590:	47b2                	lw	a5,12(sp)
    1592:	00f75463          	bge	a4,a5,159a <i2c_timeout_start+0x32>
    1596:	0141                	addi	sp,sp,16
    1598:	8082                	ret
    159a:	0001                	nop
    159c:	47b2                	lw	a5,12(sp)
    159e:	0785                	addi	a5,a5,1
    15a0:	c63e                	sw	a5,12(sp)
    15a2:	b7fd                	j	1590 <i2c_timeout_start+0x28>

000015a4 <i2c_timeout_stop>:
    15a4:	e000f7b7          	lui	a5,0xe000f
    15a8:	4398                	lw	a4,0(a5)
    15aa:	4681                	li	a3,0
    15ac:	9b79                	andi	a4,a4,-2
    15ae:	c398                	sw	a4,0(a5)
    15b0:	c794                	sw	a3,8(a5)
    15b2:	4701                	li	a4,0
    15b4:	c7d8                	sw	a4,12(a5)
    15b6:	8082                	ret

000015b8 <i2c_wait_event>:
    15b8:	c11fe2ef          	jal	t0,1c8 <__riscv_save_10>
    15bc:	40005937          	lui	s2,0x40005
    15c0:	010009b7          	lui	s3,0x1000
    15c4:	007a1a37          	lui	s4,0x7a1
    15c8:	8aaa                	mv	s5,a0
    15ca:	8b2e                	mv	s6,a1
    15cc:	8bb2                	mv	s7,a2
    15ce:	40090493          	addi	s1,s2,1024 # 40005400 <_eusrstack+0x1fffd400>
    15d2:	10000437          	lui	s0,0x10000
    15d6:	19fd                	addi	s3,s3,-1
    15d8:	20000c37          	lui	s8,0x20000
    15dc:	200a0a13          	addi	s4,s4,512 # 7a1200 <_data_lma+0x79ce14>
    15e0:	85d6                	mv	a1,s5
    15e2:	8526                	mv	a0,s1
    15e4:	bf6ff0ef          	jal	ra,9da <I2C_CheckEvent>
    15e8:	c119                	beqz	a0,15ee <i2c_wait_event+0x36>
    15ea:	4501                	li	a0,0
    15ec:	a005                	j	160c <i2c_wait_event+0x54>
    15ee:	40040593          	addi	a1,s0,1024 # 10000400 <_data_lma+0xfffc014>
    15f2:	8526                	mv	a0,s1
    15f4:	bfcff0ef          	jal	ra,9f0 <I2C_GetFlagStatus>
    15f8:	4c85                	li	s9,1
    15fa:	01951b63          	bne	a0,s9,1610 <i2c_wait_event+0x58>
    15fe:	40090513          	addi	a0,s2,1024
    1602:	40040593          	addi	a1,s0,1024
    1606:	c1cff0ef          	jal	ra,a22 <I2C_ClearFlag>
    160a:	5575                	li	a0,-3
    160c:	bf5fe06f          	j	200 <__riscv_restore_10>
    1610:	10040593          	addi	a1,s0,256
    1614:	8526                	mv	a0,s1
    1616:	bdaff0ef          	jal	ra,9f0 <I2C_GetFlagStatus>
    161a:	01951a63          	bne	a0,s9,162e <i2c_wait_event+0x76>
    161e:	10040593          	addi	a1,s0,256
    1622:	40090513          	addi	a0,s2,1024
    1626:	bfcff0ef          	jal	ra,a22 <I2C_ClearFlag>
    162a:	557d                	li	a0,-1
    162c:	b7c5                	j	160c <i2c_wait_event+0x54>
    162e:	20040593          	addi	a1,s0,512
    1632:	8526                	mv	a0,s1
    1634:	bbcff0ef          	jal	ra,9f0 <I2C_GetFlagStatus>
    1638:	01951563          	bne	a0,s9,1642 <i2c_wait_event+0x8a>
    163c:	20040593          	addi	a1,s0,512
    1640:	b7cd                	j	1622 <i2c_wait_event+0x6a>
    1642:	e000f7b7          	lui	a5,0xe000f
    1646:	4798                	lw	a4,8(a5)
    1648:	47dc                	lw	a5,12(a5)
    164a:	090c2783          	lw	a5,144(s8) # 20000090 <SystemCoreClock>
    164e:	3e800693          	li	a3,1000
    1652:	01377733          	and	a4,a4,s3
    1656:	0347d7b3          	divu	a5,a5,s4
    165a:	41670733          	sub	a4,a4,s6
    165e:	01377733          	and	a4,a4,s3
    1662:	02d787b3          	mul	a5,a5,a3
    1666:	02f75733          	divu	a4,a4,a5
    166a:	f7776be3          	bltu	a4,s7,15e0 <i2c_wait_event+0x28>
    166e:	bf75                	j	162a <i2c_wait_event+0x72>

00001670 <i2c_write_once>:
    1670:	b59fe2ef          	jal	t0,1c8 <__riscv_save_10>
    1674:	400059b7          	lui	s3,0x40005
    1678:	892a                	mv	s2,a0
    167a:	842e                	mv	s0,a1
    167c:	40098513          	addi	a0,s3,1024 # 40005400 <_eusrstack+0x1fffd400>
    1680:	4585                	li	a1,1
    1682:	8ab6                	mv	s5,a3
    1684:	8b3a                	mv	s6,a4
    1686:	8a32                	mv	s4,a2
    1688:	ae6ff0ef          	jal	ra,96e <I2C_GenerateSTART>
    168c:	00030537          	lui	a0,0x30
    1690:	865a                	mv	a2,s6
    1692:	85d6                	mv	a1,s5
    1694:	0505                	addi	a0,a0,1
    1696:	370d                	jal	15b8 <i2c_wait_event>
    1698:	84aa                	mv	s1,a0
    169a:	e131                	bnez	a0,16de <i2c_write_once+0x6e>
    169c:	00191593          	slli	a1,s2,0x1
    16a0:	4601                	li	a2,0
    16a2:	0fe5f593          	andi	a1,a1,254
    16a6:	40098513          	addi	a0,s3,1024
    16aa:	b1eff0ef          	jal	ra,9c8 <I2C_Send7bitAddress>
    16ae:	00070937          	lui	s2,0x70
    16b2:	865a                	mv	a2,s6
    16b4:	85d6                	mv	a1,s5
    16b6:	08290513          	addi	a0,s2,130 # 70082 <_data_lma+0x6bc96>
    16ba:	3dfd                	jal	15b8 <i2c_wait_event>
    16bc:	84aa                	mv	s1,a0
    16be:	e105                	bnez	a0,16de <i2c_write_once+0x6e>
    16c0:	400059b7          	lui	s3,0x40005
    16c4:	9a22                	add	s4,s4,s0
    16c6:	40098c13          	addi	s8,s3,1024 # 40005400 <_eusrstack+0x1fffd400>
    16ca:	08490913          	addi	s2,s2,132
    16ce:	01441e63          	bne	s0,s4,16ea <i2c_write_once+0x7a>
    16d2:	40005537          	lui	a0,0x40005
    16d6:	4585                	li	a1,1
    16d8:	40050513          	addi	a0,a0,1024 # 40005400 <_eusrstack+0x1fffd400>
    16dc:	a021                	j	16e4 <i2c_write_once+0x74>
    16de:	4585                	li	a1,1
    16e0:	40098513          	addi	a0,s3,1024
    16e4:	aa4ff0ef          	jal	ra,988 <I2C_GenerateSTOP>
    16e8:	a015                	j	170c <i2c_write_once+0x9c>
    16ea:	200c                	lbu	a1,0(s0)
    16ec:	8562                	mv	a0,s8
    16ee:	0405                	addi	s0,s0,1
    16f0:	accff0ef          	jal	ra,9bc <I2C_SendData>
    16f4:	865a                	mv	a2,s6
    16f6:	85d6                	mv	a1,s5
    16f8:	854a                	mv	a0,s2
    16fa:	3d7d                	jal	15b8 <i2c_wait_event>
    16fc:	8baa                	mv	s7,a0
    16fe:	d961                	beqz	a0,16ce <i2c_write_once+0x5e>
    1700:	4585                	li	a1,1
    1702:	40098513          	addi	a0,s3,1024
    1706:	a82ff0ef          	jal	ra,988 <I2C_GenerateSTOP>
    170a:	84de                	mv	s1,s7
    170c:	8526                	mv	a0,s1
    170e:	af3fe06f          	j	200 <__riscv_restore_10>

00001712 <i2c_wait_rxne>:
    1712:	ab7fe2ef          	jal	t0,1c8 <__riscv_save_10>
    1716:	10000937          	lui	s2,0x10000
    171a:	400054b7          	lui	s1,0x40005
    171e:	01000437          	lui	s0,0x1000
    1722:	007a19b7          	lui	s3,0x7a1
    1726:	8a2a                	mv	s4,a0
    1728:	8aae                	mv	s5,a1
    172a:	04090913          	addi	s2,s2,64 # 10000040 <_data_lma+0xfffbc54>
    172e:	40048493          	addi	s1,s1,1024 # 40005400 <_eusrstack+0x1fffd400>
    1732:	e000fb37          	lui	s6,0xe000f
    1736:	147d                	addi	s0,s0,-1
    1738:	20000bb7          	lui	s7,0x20000
    173c:	20098993          	addi	s3,s3,512 # 7a1200 <_data_lma+0x79ce14>
    1740:	85ca                	mv	a1,s2
    1742:	8526                	mv	a0,s1
    1744:	aacff0ef          	jal	ra,9f0 <I2C_GetFlagStatus>
    1748:	c501                	beqz	a0,1750 <i2c_wait_rxne+0x3e>
    174a:	4501                	li	a0,0
    174c:	ab5fe06f          	j	200 <__riscv_restore_10>
    1750:	008b2703          	lw	a4,8(s6) # e000f008 <_eusrstack+0xc0007008>
    1754:	00cb2783          	lw	a5,12(s6)
    1758:	090ba783          	lw	a5,144(s7) # 20000090 <SystemCoreClock>
    175c:	3e800693          	li	a3,1000
    1760:	8f61                	and	a4,a4,s0
    1762:	0337d7b3          	divu	a5,a5,s3
    1766:	41470733          	sub	a4,a4,s4
    176a:	8f61                	and	a4,a4,s0
    176c:	02d787b3          	mul	a5,a5,a3
    1770:	02f75733          	divu	a4,a4,a5
    1774:	fd5766e3          	bltu	a4,s5,1740 <i2c_wait_rxne+0x2e>
    1778:	557d                	li	a0,-1
    177a:	bfc9                	j	174c <i2c_wait_rxne+0x3a>

0000177c <i2c_read_once>:
    177c:	a4dfe2ef          	jal	t0,1c8 <__riscv_save_10>
    1780:	40005437          	lui	s0,0x40005
    1784:	8a2a                	mv	s4,a0
    1786:	8cae                	mv	s9,a1
    1788:	40040513          	addi	a0,s0,1024 # 40005400 <_eusrstack+0x1fffd400>
    178c:	4585                	li	a1,1
    178e:	893a                	mv	s2,a4
    1790:	89be                	mv	s3,a5
    1792:	8bb2                	mv	s7,a2
    1794:	8ab6                	mv	s5,a3
    1796:	00030b37          	lui	s6,0x30
    179a:	9d4ff0ef          	jal	ra,96e <I2C_GenerateSTART>
    179e:	864e                	mv	a2,s3
    17a0:	85ca                	mv	a1,s2
    17a2:	001b0513          	addi	a0,s6,1 # 30001 <_data_lma+0x2bc15>
    17a6:	3d09                	jal	15b8 <i2c_wait_event>
    17a8:	84aa                	mv	s1,a0
    17aa:	e11d                	bnez	a0,17d0 <i2c_read_once+0x54>
    17ac:	0a06                	slli	s4,s4,0x1
    17ae:	0ffa7a13          	andi	s4,s4,255
    17b2:	4601                	li	a2,0
    17b4:	85d2                	mv	a1,s4
    17b6:	40040513          	addi	a0,s0,1024
    17ba:	a0eff0ef          	jal	ra,9c8 <I2C_Send7bitAddress>
    17be:	00070c37          	lui	s8,0x70
    17c2:	864e                	mv	a2,s3
    17c4:	85ca                	mv	a1,s2
    17c6:	082c0513          	addi	a0,s8,130 # 70082 <_data_lma+0x6bc96>
    17ca:	33fd                	jal	15b8 <i2c_wait_event>
    17cc:	84aa                	mv	s1,a0
    17ce:	c509                	beqz	a0,17d8 <i2c_read_once+0x5c>
    17d0:	4585                	li	a1,1
    17d2:	40040513          	addi	a0,s0,1024
    17d6:	a005                	j	17f6 <i2c_read_once+0x7a>
    17d8:	85e6                	mv	a1,s9
    17da:	40040513          	addi	a0,s0,1024
    17de:	9deff0ef          	jal	ra,9bc <I2C_SendData>
    17e2:	85ca                	mv	a1,s2
    17e4:	864e                	mv	a2,s3
    17e6:	084c0513          	addi	a0,s8,132
    17ea:	33f9                	jal	15b8 <i2c_wait_event>
    17ec:	84aa                	mv	s1,a0
    17ee:	4585                	li	a1,1
    17f0:	40040513          	addi	a0,s0,1024
    17f4:	c491                	beqz	s1,1800 <i2c_read_once+0x84>
    17f6:	992ff0ef          	jal	ra,988 <I2C_GenerateSTOP>
    17fa:	8526                	mv	a0,s1
    17fc:	a05fe06f          	j	200 <__riscv_restore_10>
    1800:	96eff0ef          	jal	ra,96e <I2C_GenerateSTART>
    1804:	864e                	mv	a2,s3
    1806:	85ca                	mv	a1,s2
    1808:	001b0513          	addi	a0,s6,1
    180c:	3375                	jal	15b8 <i2c_wait_event>
    180e:	84aa                	mv	s1,a0
    1810:	f161                	bnez	a0,17d0 <i2c_read_once+0x54>
    1812:	4605                	li	a2,1
    1814:	85d2                	mv	a1,s4
    1816:	40040513          	addi	a0,s0,1024
    181a:	9aeff0ef          	jal	ra,9c8 <I2C_Send7bitAddress>
    181e:	864e                	mv	a2,s3
    1820:	85ca                	mv	a1,s2
    1822:	002b0513          	addi	a0,s6,2
    1826:	3b49                	jal	15b8 <i2c_wait_event>
    1828:	84aa                	mv	s1,a0
    182a:	f15d                	bnez	a0,17d0 <i2c_read_once+0x54>
    182c:	4785                	li	a5,1
    182e:	02fa8f63          	beq	s5,a5,186c <i2c_read_once+0xf0>
    1832:	4a01                	li	s4,0
    1834:	fffa8b13          	addi	s6,s5,-1
    1838:	40040413          	addi	s0,s0,1024
    183c:	fb5a0fe3          	beq	s4,s5,17fa <i2c_read_once+0x7e>
    1840:	054b1c63          	bne	s6,s4,1898 <i2c_read_once+0x11c>
    1844:	4581                	li	a1,0
    1846:	8522                	mv	a0,s0
    1848:	95aff0ef          	jal	ra,9a2 <I2C_AcknowledgeConfig>
    184c:	4585                	li	a1,1
    184e:	8522                	mv	a0,s0
    1850:	938ff0ef          	jal	ra,988 <I2C_GenerateSTOP>
    1854:	85ce                	mv	a1,s3
    1856:	854a                	mv	a0,s2
    1858:	3d6d                	jal	1712 <i2c_wait_rxne>
    185a:	e521                	bnez	a0,18a2 <i2c_read_once+0x126>
    185c:	8522                	mv	a0,s0
    185e:	962ff0ef          	jal	ra,9c0 <I2C_ReceiveData>
    1862:	014b87b3          	add	a5,s7,s4
    1866:	a388                	sb	a0,0(a5)
    1868:	0a05                	addi	s4,s4,1
    186a:	bfc9                	j	183c <i2c_read_once+0xc0>
    186c:	4581                	li	a1,0
    186e:	40040513          	addi	a0,s0,1024
    1872:	930ff0ef          	jal	ra,9a2 <I2C_AcknowledgeConfig>
    1876:	4585                	li	a1,1
    1878:	40040513          	addi	a0,s0,1024
    187c:	90cff0ef          	jal	ra,988 <I2C_GenerateSTOP>
    1880:	85ce                	mv	a1,s3
    1882:	854a                	mv	a0,s2
    1884:	3579                	jal	1712 <i2c_wait_rxne>
    1886:	84aa                	mv	s1,a0
    1888:	f92d                	bnez	a0,17fa <i2c_read_once+0x7e>
    188a:	40040513          	addi	a0,s0,1024
    188e:	932ff0ef          	jal	ra,9c0 <I2C_ReceiveData>
    1892:	00ab8023          	sb	a0,0(s7)
    1896:	b795                	j	17fa <i2c_read_once+0x7e>
    1898:	4585                	li	a1,1
    189a:	8522                	mv	a0,s0
    189c:	906ff0ef          	jal	ra,9a2 <I2C_AcknowledgeConfig>
    18a0:	bf55                	j	1854 <i2c_read_once+0xd8>
    18a2:	84aa                	mv	s1,a0
    18a4:	bf99                	j	17fa <i2c_read_once+0x7e>

000018a6 <i2c_util_init>:
    18a6:	94bfe2ef          	jal	t0,1f0 <__riscv_save_0>
    18aa:	1101                	addi	sp,sp,-32
    18ac:	4585                	li	a1,1
    18ae:	00200537          	lui	a0,0x200
    18b2:	c202                	sw	zero,4(sp)
    18b4:	c402                	sw	zero,8(sp)
    18b6:	c602                	sw	zero,12(sp)
    18b8:	c802                	sw	zero,16(sp)
    18ba:	ca02                	sw	zero,20(sp)
    18bc:	cc02                	sw	zero,24(sp)
    18be:	ce02                	sw	zero,28(sp)
    18c0:	b12ff0ef          	jal	ra,bd2 <RCC_APB1PeriphClockCmd>
    18c4:	4585                	li	a1,1
    18c6:	4521                	li	a0,8
    18c8:	aecff0ef          	jal	ra,bb4 <RCC_APB2PeriphClockCmd>
    18cc:	40011437          	lui	s0,0x40011
    18d0:	04000793          	li	a5,64
    18d4:	4971                	li	s2,28
    18d6:	448d                	li	s1,3
    18d8:	004c                	addi	a1,sp,4
    18da:	c0040513          	addi	a0,s0,-1024 # 40010c00 <_eusrstack+0x20008c00>
    18de:	827c                	sh	a5,4(sp)
    18e0:	c64a                	sw	s2,12(sp)
    18e2:	c426                	sw	s1,8(sp)
    18e4:	ea3fe0ef          	jal	ra,786 <GPIO_Init>
    18e8:	08000793          	li	a5,128
    18ec:	004c                	addi	a1,sp,4
    18ee:	c0040513          	addi	a0,s0,-1024
    18f2:	827c                	sh	a5,4(sp)
    18f4:	c64a                	sw	s2,12(sp)
    18f6:	c426                	sw	s1,8(sp)
    18f8:	e8ffe0ef          	jal	ra,786 <GPIO_Init>
    18fc:	67e1                	lui	a5,0x18
    18fe:	6a078793          	addi	a5,a5,1696 # 186a0 <_data_lma+0x142b4>
    1902:	c83e                	sw	a5,16(sp)
    1904:	bfff07b7          	lui	a5,0xbfff0
    1908:	40005437          	lui	s0,0x40005
    190c:	ca3e                	sw	a5,20(sp)
    190e:	040007b7          	lui	a5,0x4000
    1912:	cc3e                	sw	a5,24(sp)
    1914:	080c                	addi	a1,sp,16
    1916:	6791                	lui	a5,0x4
    1918:	40040513          	addi	a0,s0,1024 # 40005400 <_eusrstack+0x1fffd400>
    191c:	86fc                	sh	a5,28(sp)
    191e:	f3dfe0ef          	jal	ra,85a <I2C_Init>
    1922:	4585                	li	a1,1
    1924:	40040513          	addi	a0,s0,1024
    1928:	82eff0ef          	jal	ra,956 <I2C_Cmd>
    192c:	6105                	addi	sp,sp,32
    192e:	8e7fe06f          	j	214 <__riscv_restore_0>

00001932 <i2c_util_bus_recovery>:
    1932:	8bffe2ef          	jal	t0,1f0 <__riscv_save_0>
    1936:	40005537          	lui	a0,0x40005
    193a:	1141                	addi	sp,sp,-16
    193c:	4581                	li	a1,0
    193e:	40050513          	addi	a0,a0,1024 # 40005400 <_eusrstack+0x1fffd400>
    1942:	c202                	sw	zero,4(sp)
    1944:	c402                	sw	zero,8(sp)
    1946:	c602                	sw	zero,12(sp)
    1948:	80eff0ef          	jal	ra,956 <I2C_Cmd>
    194c:	40011437          	lui	s0,0x40011
    1950:	04000793          	li	a5,64
    1954:	448d                	li	s1,3
    1956:	c0040513          	addi	a0,s0,-1024 # 40010c00 <_eusrstack+0x20008c00>
    195a:	827c                	sh	a5,4(sp)
    195c:	004c                	addi	a1,sp,4
    195e:	47d1                	li	a5,20
    1960:	c63e                	sw	a5,12(sp)
    1962:	c426                	sw	s1,8(sp)
    1964:	e23fe0ef          	jal	ra,786 <GPIO_Init>
    1968:	08000793          	li	a5,128
    196c:	827c                	sh	a5,4(sp)
    196e:	c0040513          	addi	a0,s0,-1024
    1972:	4791                	li	a5,4
    1974:	004c                	addi	a1,sp,4
    1976:	c426                	sw	s1,8(sp)
    1978:	c63e                	sw	a5,12(sp)
    197a:	44a5                	li	s1,9
    197c:	e0bfe0ef          	jal	ra,786 <GPIO_Init>
    1980:	c0040413          	addi	s0,s0,-1024
    1984:	4601                	li	a2,0
    1986:	04000593          	li	a1,64
    198a:	8522                	mv	a0,s0
    198c:	ec5fe0ef          	jal	ra,850 <GPIO_WriteBit>
    1990:	4515                	li	a0,5
    1992:	29a5                	jal	1e0a <Delay_Us>
    1994:	4605                	li	a2,1
    1996:	04000593          	li	a1,64
    199a:	8522                	mv	a0,s0
    199c:	eb5fe0ef          	jal	ra,850 <GPIO_WriteBit>
    19a0:	4515                	li	a0,5
    19a2:	21a5                	jal	1e0a <Delay_Us>
    19a4:	08000593          	li	a1,128
    19a8:	8522                	mv	a0,s0
    19aa:	e9dfe0ef          	jal	ra,846 <GPIO_ReadInputDataBit>
    19ae:	4785                	li	a5,1
    19b0:	892a                	mv	s2,a0
    19b2:	00f50763          	beq	a0,a5,19c0 <i2c_util_bus_recovery+0x8e>
    19b6:	14fd                	addi	s1,s1,-1
    19b8:	0ff4f493          	andi	s1,s1,255
    19bc:	f4e1                	bnez	s1,1984 <i2c_util_bus_recovery+0x52>
    19be:	4901                	li	s2,0
    19c0:	08000793          	li	a5,128
    19c4:	40011437          	lui	s0,0x40011
    19c8:	827c                	sh	a5,4(sp)
    19ca:	47d1                	li	a5,20
    19cc:	c63e                	sw	a5,12(sp)
    19ce:	004c                	addi	a1,sp,4
    19d0:	478d                	li	a5,3
    19d2:	c0040513          	addi	a0,s0,-1024 # 40010c00 <_eusrstack+0x20008c00>
    19d6:	c43e                	sw	a5,8(sp)
    19d8:	daffe0ef          	jal	ra,786 <GPIO_Init>
    19dc:	4601                	li	a2,0
    19de:	08000593          	li	a1,128
    19e2:	c0040513          	addi	a0,s0,-1024
    19e6:	e6bfe0ef          	jal	ra,850 <GPIO_WriteBit>
    19ea:	4515                	li	a0,5
    19ec:	2939                	jal	1e0a <Delay_Us>
    19ee:	4605                	li	a2,1
    19f0:	04000593          	li	a1,64
    19f4:	c0040513          	addi	a0,s0,-1024
    19f8:	e59fe0ef          	jal	ra,850 <GPIO_WriteBit>
    19fc:	4515                	li	a0,5
    19fe:	2131                	jal	1e0a <Delay_Us>
    1a00:	4605                	li	a2,1
    1a02:	08000593          	li	a1,128
    1a06:	c0040513          	addi	a0,s0,-1024
    1a0a:	e47fe0ef          	jal	ra,850 <GPIO_WriteBit>
    1a0e:	4515                	li	a0,5
    1a10:	2eed                	jal	1e0a <Delay_Us>
    1a12:	3d51                	jal	18a6 <i2c_util_init>
    1a14:	5579                	li	a0,-2
    1a16:	00090363          	beqz	s2,1a1c <i2c_util_bus_recovery+0xea>
    1a1a:	4501                	li	a0,0
    1a1c:	0141                	addi	sp,sp,16
    1a1e:	ff6fe06f          	j	214 <__riscv_restore_0>

00001a22 <i2c_util_write>:
    1a22:	fb4fe2ef          	jal	t0,1d6 <__riscv_save_4>
    1a26:	1141                	addi	sp,sp,-16
    1a28:	89b2                	mv	s3,a2
    1a2a:	8a36                	mv	s4,a3
    1a2c:	84aa                	mv	s1,a0
    1a2e:	892e                	mv	s2,a1
    1a30:	e000fab7          	lui	s5,0xe000f
    1a34:	b35ff0ef          	jal	ra,1568 <i2c_timeout_start>
    1a38:	008aa603          	lw	a2,8(s5) # e000f008 <_eusrstack+0xc0007008>
    1a3c:	01000437          	lui	s0,0x1000
    1a40:	00caa683          	lw	a3,12(s5)
    1a44:	147d                	addi	s0,s0,-1
    1a46:	00c476b3          	and	a3,s0,a2
    1a4a:	8752                	mv	a4,s4
    1a4c:	864e                	mv	a2,s3
    1a4e:	85ca                	mv	a1,s2
    1a50:	8526                	mv	a0,s1
    1a52:	3939                	jal	1670 <i2c_write_once>
    1a54:	c62a                	sw	a0,12(sp)
    1a56:	b4fff0ef          	jal	ra,15a4 <i2c_timeout_stop>
    1a5a:	4532                	lw	a0,12(sp)
    1a5c:	c11d                	beqz	a0,1a82 <i2c_util_write+0x60>
    1a5e:	3dd1                	jal	1932 <i2c_util_bus_recovery>
    1a60:	b09ff0ef          	jal	ra,1568 <i2c_timeout_start>
    1a64:	008aa603          	lw	a2,8(s5)
    1a68:	00caa683          	lw	a3,12(s5)
    1a6c:	8752                	mv	a4,s4
    1a6e:	00c476b3          	and	a3,s0,a2
    1a72:	85ca                	mv	a1,s2
    1a74:	864e                	mv	a2,s3
    1a76:	8526                	mv	a0,s1
    1a78:	3ee5                	jal	1670 <i2c_write_once>
    1a7a:	c62a                	sw	a0,12(sp)
    1a7c:	b29ff0ef          	jal	ra,15a4 <i2c_timeout_stop>
    1a80:	4532                	lw	a0,12(sp)
    1a82:	0141                	addi	sp,sp,16
    1a84:	f86fe06f          	j	20a <__riscv_restore_4>

00001a88 <i2c_util_read>:
    1a88:	f4efe2ef          	jal	t0,1d6 <__riscv_save_4>
    1a8c:	1141                	addi	sp,sp,-16
    1a8e:	8a36                	mv	s4,a3
    1a90:	8aba                	mv	s5,a4
    1a92:	84aa                	mv	s1,a0
    1a94:	892e                	mv	s2,a1
    1a96:	89b2                	mv	s3,a2
    1a98:	e000fb37          	lui	s6,0xe000f
    1a9c:	acdff0ef          	jal	ra,1568 <i2c_timeout_start>
    1aa0:	008b2683          	lw	a3,8(s6) # e000f008 <_eusrstack+0xc0007008>
    1aa4:	01000437          	lui	s0,0x1000
    1aa8:	00cb2703          	lw	a4,12(s6)
    1aac:	147d                	addi	s0,s0,-1
    1aae:	00d47733          	and	a4,s0,a3
    1ab2:	87d6                	mv	a5,s5
    1ab4:	86d2                	mv	a3,s4
    1ab6:	864e                	mv	a2,s3
    1ab8:	85ca                	mv	a1,s2
    1aba:	8526                	mv	a0,s1
    1abc:	31c1                	jal	177c <i2c_read_once>
    1abe:	c62a                	sw	a0,12(sp)
    1ac0:	ae5ff0ef          	jal	ra,15a4 <i2c_timeout_stop>
    1ac4:	4532                	lw	a0,12(sp)
    1ac6:	c505                	beqz	a0,1aee <i2c_util_read+0x66>
    1ac8:	35ad                	jal	1932 <i2c_util_bus_recovery>
    1aca:	a9fff0ef          	jal	ra,1568 <i2c_timeout_start>
    1ace:	008b2683          	lw	a3,8(s6)
    1ad2:	00cb2703          	lw	a4,12(s6)
    1ad6:	87d6                	mv	a5,s5
    1ad8:	00d47733          	and	a4,s0,a3
    1adc:	864e                	mv	a2,s3
    1ade:	86d2                	mv	a3,s4
    1ae0:	85ca                	mv	a1,s2
    1ae2:	8526                	mv	a0,s1
    1ae4:	3961                	jal	177c <i2c_read_once>
    1ae6:	c62a                	sw	a0,12(sp)
    1ae8:	abdff0ef          	jal	ra,15a4 <i2c_timeout_stop>
    1aec:	4532                	lw	a0,12(sp)
    1aee:	0141                	addi	sp,sp,16
    1af0:	f1afe06f          	j	20a <__riscv_restore_4>

00001af4 <ina226_check_alert>:
    1af4:	efcfe2ef          	jal	t0,1f0 <__riscv_save_0>
    1af8:	2108                	lbu	a0,0(a0)
    1afa:	1141                	addi	sp,sp,-16
    1afc:	842e                	mv	s0,a1
    1afe:	4729                	li	a4,10
    1b00:	4689                	li	a3,2
    1b02:	0070                	addi	a2,sp,12
    1b04:	4599                	li	a1,6
    1b06:	3749                	jal	1a88 <i2c_util_read>
    1b08:	e511                	bnez	a0,1b14 <ina226_check_alert+0x20>
    1b0a:	861c                	lbu	a5,12(sp)
    1b0c:	8698                	lbu	a4,13(sp)
    1b0e:	07a2                	slli	a5,a5,0x8
    1b10:	8fd9                	or	a5,a5,a4
    1b12:	a01e                	sh	a5,0(s0)
    1b14:	0141                	addi	sp,sp,16
    1b16:	efefe06f          	j	214 <__riscv_restore_0>

00001b1a <cjson_arena_alloc>:
    1b1a:	85c18713          	addi	a4,gp,-1956 # 200000ec <cjson_pool_used>
    1b1e:	431c                	lw	a5,0(a4)
    1b20:	6605                	lui	a2,0x1
    1b22:	00a786b3          	add	a3,a5,a0
    1b26:	00d66963          	bltu	a2,a3,1b38 <cjson_arena_alloc+0x1e>
    1b2a:	20000537          	lui	a0,0x20000
    1b2e:	30850513          	addi	a0,a0,776 # 20000308 <cjson_pool>
    1b32:	953e                	add	a0,a0,a5
    1b34:	c314                	sw	a3,0(a4)
    1b36:	8082                	ret
    1b38:	4501                	li	a0,0
    1b3a:	8082                	ret

00001b3c <cjson_arena_free>:
    1b3c:	8082                	ret

00001b3e <protocol_init>:
    1b3e:	eb2fe2ef          	jal	t0,1f0 <__riscv_save_0>
    1b42:	6511                	lui	a0,0x4
    1b44:	7179                	addi	sp,sp,-48
    1b46:	4585                	li	a1,1
    1b48:	0531                	addi	a0,a0,12
    1b4a:	ca02                	sw	zero,20(sp)
    1b4c:	cc02                	sw	zero,24(sp)
    1b4e:	ce02                	sw	zero,28(sp)
    1b50:	d002                	sw	zero,32(sp)
    1b52:	d202                	sw	zero,36(sp)
    1b54:	d402                	sw	zero,40(sp)
    1b56:	d602                	sw	zero,44(sp)
    1b58:	c202                	sw	zero,4(sp)
    1b5a:	c402                	sw	zero,8(sp)
    1b5c:	858ff0ef          	jal	ra,bb4 <RCC_APB2PeriphClockCmd>
    1b60:	40011437          	lui	s0,0x40011
    1b64:	20000793          	li	a5,512
    1b68:	448d                	li	s1,3
    1b6a:	80040513          	addi	a0,s0,-2048 # 40010800 <_eusrstack+0x20008800>
    1b6e:	82fc                	sh	a5,20(sp)
    1b70:	084c                	addi	a1,sp,20
    1b72:	47e1                	li	a5,24
    1b74:	cc26                	sw	s1,24(sp)
    1b76:	ce3e                	sw	a5,28(sp)
    1b78:	c0ffe0ef          	jal	ra,786 <GPIO_Init>
    1b7c:	40000793          	li	a5,1024
    1b80:	80040513          	addi	a0,s0,-2048
    1b84:	82fc                	sh	a5,20(sp)
    1b86:	084c                	addi	a1,sp,20
    1b88:	4791                	li	a5,4
    1b8a:	cc26                	sw	s1,24(sp)
    1b8c:	ce3e                	sw	a5,28(sp)
    1b8e:	bf9fe0ef          	jal	ra,786 <GPIO_Init>
    1b92:	67f1                	lui	a5,0x1c
    1b94:	40014437          	lui	s0,0x40014
    1b98:	20078793          	addi	a5,a5,512 # 1c200 <_data_lma+0x17e14>
    1b9c:	80040513          	addi	a0,s0,-2048 # 40013800 <_eusrstack+0x2000b800>
    1ba0:	d03e                	sw	a5,32(sp)
    1ba2:	100c                	addi	a1,sp,32
    1ba4:	000c07b7          	lui	a5,0xc0
    1ba8:	d43e                	sw	a5,40(sp)
    1baa:	d202                	sw	zero,36(sp)
    1bac:	02011623          	sh	zero,44(sp)
    1bb0:	882ff0ef          	jal	ra,c32 <USART_Init>
    1bb4:	4605                	li	a2,1
    1bb6:	42400593          	li	a1,1060
    1bba:	80040513          	addi	a0,s0,-2048
    1bbe:	918ff0ef          	jal	ra,cd6 <USART_ITConfig>
    1bc2:	13500793          	li	a5,309
    1bc6:	827c                	sh	a5,4(sp)
    1bc8:	4785                	li	a5,1
    1bca:	835c                	sb	a5,6(sp)
    1bcc:	0048                	addi	a0,sp,4
    1bce:	4785                	li	a5,1
    1bd0:	c43e                	sw	a5,8(sp)
    1bd2:	e63fe0ef          	jal	ra,a34 <NVIC_Init>
    1bd6:	80040513          	addi	a0,s0,-2048
    1bda:	4585                	li	a1,1
    1bdc:	8e4ff0ef          	jal	ra,cc0 <USART_Cmd>
    1be0:	86019123          	sh	zero,-1950(gp) # 200000f2 <rx_head>
    1be4:	86019323          	sh	zero,-1946(gp) # 200000f6 <rx_tail>
    1be8:	86018223          	sb	zero,-1948(gp) # 200000f4 <rx_overflow>
    1bec:	860182a3          	sb	zero,-1947(gp) # 200000f5 <rx_parity_err>
    1bf0:	000044b7          	lui	s1,0x4
    1bf4:	86018023          	sb	zero,-1952(gp) # 200000f0 <rx_framing_err>
    1bf8:	16448493          	addi	s1,s1,356 # 4164 <__malloc_unlock+0x124>
    1bfc:	80040413          	addi	s0,s0,-2048
    1c00:	00048903          	lb	s2,0(s1)
    1c04:	04091563          	bnez	s2,1c4e <protocol_init+0x110>
    1c08:	000027b7          	lui	a5,0x2
    1c0c:	b1a78793          	addi	a5,a5,-1254 # 1b1a <cjson_arena_alloc>
    1c10:	c63e                	sw	a5,12(sp)
    1c12:	000027b7          	lui	a5,0x2
    1c16:	b3c78793          	addi	a5,a5,-1220 # 1b3c <cjson_arena_free>
    1c1a:	0068                	addi	a0,sp,12
    1c1c:	c83e                	sw	a5,16(sp)
    1c1e:	944ff0ef          	jal	ra,d62 <cJSON_InitHooks>
    1c22:	00004537          	lui	a0,0x4
    1c26:	20000593          	li	a1,512
    1c2a:	18850513          	addi	a0,a0,392 # 4188 <__malloc_unlock+0x148>
    1c2e:	297000ef          	jal	ra,26c4 <printf>
    1c32:	20000637          	lui	a2,0x20000
    1c36:	00004537          	lui	a0,0x4
    1c3a:	30860613          	addi	a2,a2,776 # 20000308 <cjson_pool>
    1c3e:	6585                	lui	a1,0x1
    1c40:	1d050513          	addi	a0,a0,464 # 41d0 <__malloc_unlock+0x190>
    1c44:	281000ef          	jal	ra,26c4 <printf>
    1c48:	6145                	addi	sp,sp,48
    1c4a:	dcafe06f          	j	214 <__riscv_restore_0>
    1c4e:	04000593          	li	a1,64
    1c52:	8522                	mv	a0,s0
    1c54:	8c8ff0ef          	jal	ra,d1c <USART_GetFlagStatus>
    1c58:	d97d                	beqz	a0,1c4e <protocol_init+0x110>
    1c5a:	01091593          	slli	a1,s2,0x10
    1c5e:	81c1                	srli	a1,a1,0x10
    1c60:	8522                	mv	a0,s0
    1c62:	8aaff0ef          	jal	ra,d0c <USART_SendData>
    1c66:	0485                	addi	s1,s1,1
    1c68:	bf61                	j	1c00 <protocol_init+0xc2>

00001c6a <ring_buffer_push_huge>:
    1c6a:	d6cfe2ef          	jal	t0,1d6 <__riscv_save_4>
    1c6e:	20001a37          	lui	s4,0x20001
    1c72:	308a0793          	addi	a5,s4,776 # 20001308 <ring_buffer>
    1c76:	4047d703          	lhu	a4,1028(a5)
    1c7a:	40000793          	li	a5,1024
    1c7e:	8aaa                	mv	s5,a0
    1c80:	8f99                	sub	a5,a5,a4
    1c82:	843e                	mv	s0,a5
    1c84:	07c2                	slli	a5,a5,0x10
    1c86:	83c1                	srli	a5,a5,0x10
    1c88:	308a0913          	addi	s2,s4,776
    1c8c:	00f5f363          	bgeu	a1,a5,1c92 <ring_buffer_push_huge+0x28>
    1c90:	842e                	mv	s0,a1
    1c92:	40095483          	lhu	s1,1024(s2)
    1c96:	40000993          	li	s3,1024
    1c9a:	0442                	slli	s0,s0,0x10
    1c9c:	04c2                	slli	s1,s1,0x10
    1c9e:	80c1                	srli	s1,s1,0x10
    1ca0:	409989b3          	sub	s3,s3,s1
    1ca4:	09c2                	slli	s3,s3,0x10
    1ca6:	8041                	srli	s0,s0,0x10
    1ca8:	0109d993          	srli	s3,s3,0x10
    1cac:	0289e963          	bltu	s3,s0,1cde <ring_buffer_push_huge+0x74>
    1cb0:	40095503          	lhu	a0,1024(s2)
    1cb4:	8622                	mv	a2,s0
    1cb6:	85d6                	mv	a1,s5
    1cb8:	954a                	add	a0,a0,s2
    1cba:	12e020ef          	jal	ra,3de8 <memcpy>
    1cbe:	40095783          	lhu	a5,1024(s2)
    1cc2:	97a2                	add	a5,a5,s0
    1cc4:	07c2                	slli	a5,a5,0x10
    1cc6:	83c1                	srli	a5,a5,0x10
    1cc8:	40f91023          	sh	a5,1024(s2)
    1ccc:	40495783          	lhu	a5,1028(s2)
    1cd0:	943e                	add	s0,s0,a5
    1cd2:	0442                	slli	s0,s0,0x10
    1cd4:	8041                	srli	s0,s0,0x10
    1cd6:	40891223          	sh	s0,1028(s2)
    1cda:	d30fe06f          	j	20a <__riscv_restore_4>
    1cde:	40095503          	lhu	a0,1024(s2)
    1ce2:	c0048493          	addi	s1,s1,-1024
    1ce6:	94a2                	add	s1,s1,s0
    1ce8:	864e                	mv	a2,s3
    1cea:	85d6                	mv	a1,s5
    1cec:	04c2                	slli	s1,s1,0x10
    1cee:	954a                	add	a0,a0,s2
    1cf0:	0f8020ef          	jal	ra,3de8 <memcpy>
    1cf4:	80c1                	srli	s1,s1,0x10
    1cf6:	8626                	mv	a2,s1
    1cf8:	013a85b3          	add	a1,s5,s3
    1cfc:	308a0513          	addi	a0,s4,776
    1d00:	0e8020ef          	jal	ra,3de8 <memcpy>
    1d04:	40991023          	sh	s1,1024(s2)
    1d08:	b7d1                	j	1ccc <ring_buffer_push_huge+0x62>

00001d0a <ring_buffer_pop>:
    1d0a:	200017b7          	lui	a5,0x20001
    1d0e:	30878713          	addi	a4,a5,776 # 20001308 <ring_buffer>
    1d12:	40275683          	lhu	a3,1026(a4)
    1d16:	30878793          	addi	a5,a5,776
    1d1a:	96ba                	add	a3,a3,a4
    1d1c:	2288                	lbu	a0,0(a3)
    1d1e:	40275683          	lhu	a3,1026(a4)
    1d22:	0685                	addi	a3,a3,1
    1d24:	06c2                	slli	a3,a3,0x10
    1d26:	82c1                	srli	a3,a3,0x10
    1d28:	40d71123          	sh	a3,1026(a4)
    1d2c:	40275703          	lhu	a4,1026(a4)
    1d30:	3ff00693          	li	a3,1023
    1d34:	00e6f463          	bgeu	a3,a4,1d3c <ring_buffer_pop+0x32>
    1d38:	40079123          	sh	zero,1026(a5)
    1d3c:	4047d703          	lhu	a4,1028(a5)
    1d40:	177d                	addi	a4,a4,-1
    1d42:	0742                	slli	a4,a4,0x10
    1d44:	8341                	srli	a4,a4,0x10
    1d46:	40e79223          	sh	a4,1028(a5)
    1d4a:	8082                	ret

00001d4c <usb_cdc_init>:
    1d4c:	ca4fe2ef          	jal	t0,1f0 <__riscv_save_0>
    1d50:	822ff0ef          	jal	ra,d72 <USBFS_RCC_Init>
    1d54:	4505                	li	a0,1
    1d56:	8caff0ef          	jal	ra,e20 <USBFS_Device_Init>
    1d5a:	00004537          	lui	a0,0x4
    1d5e:	1f450513          	addi	a0,a0,500 # 41f4 <__malloc_unlock+0x1b4>
    1d62:	187000ef          	jal	ra,26e8 <puts>
    1d66:	caefe06f          	j	214 <__riscv_restore_0>

00001d6a <usb_cdc_write>:
    1d6a:	c9a5                	beqz	a1,1dda <usb_cdc_write+0x70>
    1d6c:	86aa                	mv	a3,a0
    1d6e:	557d                	li	a0,-1
    1d70:	c6bd                	beqz	a3,1dde <usb_cdc_write+0x74>
    1d72:	c7efe2ef          	jal	t0,1f0 <__riscv_save_0>
    1d76:	04000793          	li	a5,64
    1d7a:	1141                	addi	sp,sp,-16
    1d7c:	862e                	mv	a2,a1
    1d7e:	00b7f463          	bgeu	a5,a1,1d86 <usb_cdc_write+0x1c>
    1d82:	04000613          	li	a2,64
    1d86:	67e1                	lui	a5,0x18
    1d88:	6a078793          	addi	a5,a5,1696 # 186a0 <_data_lma+0x142b4>
    1d8c:	0642                	slli	a2,a2,0x10
    1d8e:	c63e                	sw	a5,12(sp)
    1d90:	8241                	srli	a2,a2,0x10
    1d92:	83818793          	addi	a5,gp,-1992 # 200000c8 <USBFS_Endp_Busy>
    1d96:	33b8                	lbu	a4,3(a5)
    1d98:	0ff77713          	andi	a4,a4,255
    1d9c:	c319                	beqz	a4,1da2 <usb_cdc_write+0x38>
    1d9e:	4732                	lw	a4,12(sp)
    1da0:	eb0d                	bnez	a4,1dd2 <usb_cdc_write+0x68>
    1da2:	33b8                	lbu	a4,3(a5)
    1da4:	0ff77713          	andi	a4,a4,255
    1da8:	cf09                	beqz	a4,1dc2 <usb_cdc_write+0x58>
    1daa:	500005b7          	lui	a1,0x50000
    1dae:	03e5c703          	lbu	a4,62(a1) # 5000003e <_eusrstack+0x2fff803e>
    1db2:	0fc77713          	andi	a4,a4,252
    1db6:	00276713          	ori	a4,a4,2
    1dba:	02e58f23          	sb	a4,62(a1)
    1dbe:	000781a3          	sb	zero,3(a5)
    1dc2:	85b6                	mv	a1,a3
    1dc4:	450d                	li	a0,3
    1dc6:	4685                	li	a3,1
    1dc8:	8aeff0ef          	jal	ra,e76 <USBFS_Endp_DataUp>
    1dcc:	0141                	addi	sp,sp,16
    1dce:	c46fe06f          	j	214 <__riscv_restore_0>
    1dd2:	4732                	lw	a4,12(sp)
    1dd4:	177d                	addi	a4,a4,-1
    1dd6:	c63a                	sw	a4,12(sp)
    1dd8:	bf7d                	j	1d96 <usb_cdc_write+0x2c>
    1dda:	557d                	li	a0,-1
    1ddc:	8082                	ret
    1dde:	8082                	ret

00001de0 <Delay_Init>:
    1de0:	200007b7          	lui	a5,0x20000
    1de4:	0907a783          	lw	a5,144(a5) # 20000090 <SystemCoreClock>
    1de8:	007a1737          	lui	a4,0x7a1
    1dec:	20070713          	addi	a4,a4,512 # 7a1200 <_data_lma+0x79ce14>
    1df0:	02e7d7b3          	divu	a5,a5,a4
    1df4:	0ff7f793          	andi	a5,a5,255
    1df8:	86f18523          	sb	a5,-1942(gp) # 200000fa <p_us>
    1dfc:	3e800713          	li	a4,1000
    1e00:	02e787b3          	mul	a5,a5,a4
    1e04:	86f19423          	sh	a5,-1944(gp) # 200000f8 <p_ms>
    1e08:	8082                	ret

00001e0a <Delay_Us>:
    1e0a:	e000f7b7          	lui	a5,0xe000f
    1e0e:	43d8                	lw	a4,4(a5)
    1e10:	4681                	li	a3,0
    1e12:	9b79                	andi	a4,a4,-2
    1e14:	c3d8                	sw	a4,4(a5)
    1e16:	86a1c703          	lbu	a4,-1942(gp) # 200000fa <p_us>
    1e1a:	02a70633          	mul	a2,a4,a0
    1e1e:	cb90                	sw	a2,16(a5)
    1e20:	cbd4                	sw	a3,20(a5)
    1e22:	4398                	lw	a4,0(a5)
    1e24:	01076713          	ori	a4,a4,16
    1e28:	c398                	sw	a4,0(a5)
    1e2a:	4398                	lw	a4,0(a5)
    1e2c:	02176713          	ori	a4,a4,33
    1e30:	c398                	sw	a4,0(a5)
    1e32:	43d8                	lw	a4,4(a5)
    1e34:	8b05                	andi	a4,a4,1
    1e36:	df75                	beqz	a4,1e32 <Delay_Us+0x28>
    1e38:	4398                	lw	a4,0(a5)
    1e3a:	9b79                	andi	a4,a4,-2
    1e3c:	c398                	sw	a4,0(a5)
    1e3e:	8082                	ret

00001e40 <Delay_Ms>:
    1e40:	e000f7b7          	lui	a5,0xe000f
    1e44:	43d8                	lw	a4,4(a5)
    1e46:	4681                	li	a3,0
    1e48:	9b79                	andi	a4,a4,-2
    1e4a:	c3d8                	sw	a4,4(a5)
    1e4c:	8681d703          	lhu	a4,-1944(gp) # 200000f8 <p_ms>
    1e50:	02a70633          	mul	a2,a4,a0
    1e54:	cb90                	sw	a2,16(a5)
    1e56:	cbd4                	sw	a3,20(a5)
    1e58:	4398                	lw	a4,0(a5)
    1e5a:	01076713          	ori	a4,a4,16
    1e5e:	c398                	sw	a4,0(a5)
    1e60:	4398                	lw	a4,0(a5)
    1e62:	02176713          	ori	a4,a4,33
    1e66:	c398                	sw	a4,0(a5)
    1e68:	43d8                	lw	a4,4(a5)
    1e6a:	8b05                	andi	a4,a4,1
    1e6c:	df75                	beqz	a4,1e68 <Delay_Ms+0x28>
    1e6e:	4398                	lw	a4,0(a5)
    1e70:	9b79                	andi	a4,a4,-2
    1e72:	c398                	sw	a4,0(a5)
    1e74:	8082                	ret

00001e76 <USART_Printf_Init>:
    1e76:	b7afe2ef          	jal	t0,1f0 <__riscv_save_0>
    1e7a:	842a                	mv	s0,a0
    1e7c:	6511                	lui	a0,0x4
    1e7e:	1101                	addi	sp,sp,-32
    1e80:	4585                	li	a1,1
    1e82:	0511                	addi	a0,a0,4
    1e84:	d31fe0ef          	jal	ra,bb4 <RCC_APB2PeriphClockCmd>
    1e88:	20000793          	li	a5,512
    1e8c:	827c                	sh	a5,4(sp)
    1e8e:	40011537          	lui	a0,0x40011
    1e92:	478d                	li	a5,3
    1e94:	c43e                	sw	a5,8(sp)
    1e96:	004c                	addi	a1,sp,4
    1e98:	47e1                	li	a5,24
    1e9a:	80050513          	addi	a0,a0,-2048 # 40010800 <_eusrstack+0x20008800>
    1e9e:	c63e                	sw	a5,12(sp)
    1ea0:	8e7fe0ef          	jal	ra,786 <GPIO_Init>
    1ea4:	c822                	sw	s0,16(sp)
    1ea6:	40014437          	lui	s0,0x40014
    1eaa:	000807b7          	lui	a5,0x80
    1eae:	080c                	addi	a1,sp,16
    1eb0:	80040513          	addi	a0,s0,-2048 # 40013800 <_eusrstack+0x2000b800>
    1eb4:	cc3e                	sw	a5,24(sp)
    1eb6:	ca02                	sw	zero,20(sp)
    1eb8:	00011e23          	sh	zero,28(sp)
    1ebc:	d77fe0ef          	jal	ra,c32 <USART_Init>
    1ec0:	4585                	li	a1,1
    1ec2:	80040513          	addi	a0,s0,-2048
    1ec6:	dfbfe0ef          	jal	ra,cc0 <USART_Cmd>
    1eca:	6105                	addi	sp,sp,32
    1ecc:	b48fe06f          	j	214 <__riscv_restore_0>

00001ed0 <_write>:
    1ed0:	b06fe2ef          	jal	t0,1d6 <__riscv_save_4>
    1ed4:	1141                	addi	sp,sp,-16
    1ed6:	892e                	mv	s2,a1
    1ed8:	4401                	li	s0,0
    1eda:	04000993          	li	s3,64
    1ede:	00c44663          	blt	s0,a2,1eea <_write+0x1a>
    1ee2:	8532                	mv	a0,a2
    1ee4:	0141                	addi	sp,sp,16
    1ee6:	b24fe06f          	j	20a <__riscv_restore_4>
    1eea:	408607b3          	sub	a5,a2,s0
    1eee:	07c2                	slli	a5,a5,0x10
    1ef0:	83c1                	srli	a5,a5,0x10
    1ef2:	84be                	mv	s1,a5
    1ef4:	00f9f463          	bgeu	s3,a5,1efc <_write+0x2c>
    1ef8:	04000493          	li	s1,64
    1efc:	04c2                	slli	s1,s1,0x10
    1efe:	80c1                	srli	s1,s1,0x10
    1f00:	00890533          	add	a0,s2,s0
    1f04:	85a6                	mv	a1,s1
    1f06:	c632                	sw	a2,12(sp)
    1f08:	358d                	jal	1d6a <usb_cdc_write>
    1f0a:	9426                	add	s0,s0,s1
    1f0c:	4632                	lw	a2,12(sp)
    1f0e:	bfc1                	j	1ede <_write+0xe>

00001f10 <_sbrk>:
    1f10:	81818713          	addi	a4,gp,-2024 # 200000a8 <curbrk.5518>
    1f14:	431c                	lw	a5,0(a4)
    1f16:	200016b7          	lui	a3,0x20001
    1f1a:	71468693          	addi	a3,a3,1812 # 20001714 <_ebss>
    1f1e:	953e                	add	a0,a0,a5
    1f20:	00d56b63          	bltu	a0,a3,1f36 <_sbrk+0x26>
    1f24:	200086b7          	lui	a3,0x20008
    1f28:	80068693          	addi	a3,a3,-2048 # 20007800 <_heap_end>
    1f2c:	00a6e563          	bltu	a3,a0,1f36 <_sbrk+0x26>
    1f30:	c308                	sw	a0,0(a4)
    1f32:	853e                	mv	a0,a5
    1f34:	8082                	ret
    1f36:	57fd                	li	a5,-1
    1f38:	bfed                	j	1f32 <_sbrk+0x22>

00001f3a <putchar>:
    1f3a:	1101                	addi	sp,sp,-32
    1f3c:	c62a                	sw	a0,12(sp)
    1f3e:	006c                	addi	a1,sp,12
    1f40:	4605                	li	a2,1
    1f42:	4501                	li	a0,0
    1f44:	ce06                	sw	ra,28(sp)
    1f46:	3769                	jal	1ed0 <_write>
    1f48:	40f2                	lw	ra,28(sp)
    1f4a:	4505                	li	a0,1
    1f4c:	6105                	addi	sp,sp,32
    1f4e:	8082                	ret

00001f50 <printchar>:
    1f50:	1101                	addi	sp,sp,-32
    1f52:	ce06                	sw	ra,28(sp)
    1f54:	c62e                	sw	a1,12(sp)
    1f56:	cd0d                	beqz	a0,1f90 <printchar+0x40>
    1f58:	4118                	lw	a4,0(a0)
    1f5a:	87aa                	mv	a5,a0
    1f5c:	c305                	beqz	a4,1f7c <printchar+0x2c>
    1f5e:	4158                	lw	a4,4(a0)
    1f60:	557d                	li	a0,-1
    1f62:	cb11                	beqz	a4,1f76 <printchar+0x26>
    1f64:	4685                	li	a3,1
    1f66:	00d71b63          	bne	a4,a3,1f7c <printchar+0x2c>
    1f6a:	4798                	lw	a4,8(a5)
    1f6c:	00070023          	sb	zero,0(a4)
    1f70:	0007a223          	sw	zero,4(a5) # 80004 <_data_lma+0x7bc18>
    1f74:	4505                	li	a0,1
    1f76:	40f2                	lw	ra,28(sp)
    1f78:	6105                	addi	sp,sp,32
    1f7a:	8082                	ret
    1f7c:	4798                	lw	a4,8(a5)
    1f7e:	46b2                	lw	a3,12(sp)
    1f80:	a314                	sb	a3,0(a4)
    1f82:	4798                	lw	a4,8(a5)
    1f84:	0705                	addi	a4,a4,1
    1f86:	c798                	sw	a4,8(a5)
    1f88:	43d8                	lw	a4,4(a5)
    1f8a:	177d                	addi	a4,a4,-1
    1f8c:	c3d8                	sw	a4,4(a5)
    1f8e:	b7dd                	j	1f74 <printchar+0x24>
    1f90:	4605                	li	a2,1
    1f92:	006c                	addi	a1,sp,12
    1f94:	3f35                	jal	1ed0 <_write>
    1f96:	bff9                	j	1f74 <printchar+0x24>

00001f98 <prints>:
    1f98:	7179                	addi	sp,sp,-48
    1f9a:	d422                	sw	s0,40(sp)
    1f9c:	d226                	sw	s1,36(sp)
    1f9e:	ce4e                	sw	s3,28(sp)
    1fa0:	cc52                	sw	s4,24(sp)
    1fa2:	ca56                	sw	s5,20(sp)
    1fa4:	d606                	sw	ra,44(sp)
    1fa6:	d04a                	sw	s2,32(sp)
    1fa8:	c85a                	sw	s6,16(sp)
    1faa:	8a2a                	mv	s4,a0
    1fac:	8aae                	mv	s5,a1
    1fae:	8432                	mv	s0,a2
    1fb0:	4481                	li	s1,0
    1fb2:	02000993          	li	s3,32
    1fb6:	02064463          	bltz	a2,1fde <prints+0x46>
    1fba:	009a87b3          	add	a5,s5,s1
    1fbe:	00078783          	lb	a5,0(a5)
    1fc2:	e39d                	bnez	a5,1fe8 <prints+0x50>
    1fc4:	0284d663          	bge	s1,s0,1ff0 <prints+0x58>
    1fc8:	02e4d263          	bge	s1,a4,1fec <prints+0x54>
    1fcc:	8c19                	sub	s0,s0,a4
    1fce:	0026f793          	andi	a5,a3,2
    1fd2:	02000993          	li	s3,32
    1fd6:	c781                	beqz	a5,1fde <prints+0x46>
    1fd8:	e319                	bnez	a4,1fde <prints+0x46>
    1fda:	03000993          	li	s3,48
    1fde:	8a85                	andi	a3,a3,1
    1fe0:	4901                	li	s2,0
    1fe2:	e69d                	bnez	a3,2010 <prints+0x78>
    1fe4:	8922                	mv	s2,s0
    1fe6:	a829                	j	2000 <prints+0x68>
    1fe8:	0485                	addi	s1,s1,1
    1fea:	bfc1                	j	1fba <prints+0x22>
    1fec:	8c05                	sub	s0,s0,s1
    1fee:	b7c5                	j	1fce <prints+0x36>
    1ff0:	4401                	li	s0,0
    1ff2:	bff1                	j	1fce <prints+0x36>
    1ff4:	85ce                	mv	a1,s3
    1ff6:	8552                	mv	a0,s4
    1ff8:	c63a                	sw	a4,12(sp)
    1ffa:	3f99                	jal	1f50 <printchar>
    1ffc:	4732                	lw	a4,12(sp)
    1ffe:	197d                	addi	s2,s2,-1
    2000:	ff204ae3          	bgtz	s2,1ff4 <prints+0x5c>
    2004:	8922                	mv	s2,s0
    2006:	00045363          	bgez	s0,200c <prints+0x74>
    200a:	4901                	li	s2,0
    200c:	41240433          	sub	s0,s0,s2
    2010:	02e4cb63          	blt	s1,a4,2046 <prints+0xae>
    2014:	84ca                	mv	s1,s2
    2016:	412487b3          	sub	a5,s1,s2
    201a:	97d6                	add	a5,a5,s5
    201c:	00078583          	lb	a1,0(a5)
    2020:	ed9d                	bnez	a1,205e <prints+0xc6>
    2022:	8922                	mv	s2,s0
    2024:	05204163          	bgtz	s2,2066 <prints+0xce>
    2028:	00045363          	bgez	s0,202e <prints+0x96>
    202c:	4401                	li	s0,0
    202e:	00940533          	add	a0,s0,s1
    2032:	50b2                	lw	ra,44(sp)
    2034:	5422                	lw	s0,40(sp)
    2036:	5492                	lw	s1,36(sp)
    2038:	5902                	lw	s2,32(sp)
    203a:	49f2                	lw	s3,28(sp)
    203c:	4a62                	lw	s4,24(sp)
    203e:	4ad2                	lw	s5,20(sp)
    2040:	4b42                	lw	s6,16(sp)
    2042:	6145                	addi	sp,sp,48
    2044:	8082                	ret
    2046:	409704b3          	sub	s1,a4,s1
    204a:	8b26                	mv	s6,s1
    204c:	03000593          	li	a1,48
    2050:	8552                	mv	a0,s4
    2052:	1b7d                	addi	s6,s6,-1
    2054:	3df5                	jal	1f50 <printchar>
    2056:	fe0b1be3          	bnez	s6,204c <prints+0xb4>
    205a:	9926                	add	s2,s2,s1
    205c:	bf65                	j	2014 <prints+0x7c>
    205e:	8552                	mv	a0,s4
    2060:	3dc5                	jal	1f50 <printchar>
    2062:	0485                	addi	s1,s1,1
    2064:	bf4d                	j	2016 <prints+0x7e>
    2066:	85ce                	mv	a1,s3
    2068:	8552                	mv	a0,s4
    206a:	35dd                	jal	1f50 <printchar>
    206c:	197d                	addi	s2,s2,-1
    206e:	bf5d                	j	2024 <prints+0x8c>

00002070 <printInt>:
    2070:	715d                	addi	sp,sp,-80
    2072:	c2a6                	sw	s1,68(sp)
    2074:	dc52                	sw	s4,56(sp)
    2076:	c686                	sw	ra,76(sp)
    2078:	c4a2                	sw	s0,72(sp)
    207a:	c0ca                	sw	s2,64(sp)
    207c:	de4e                	sw	s3,60(sp)
    207e:	da56                	sw	s5,52(sp)
    2080:	84ba                	mv	s1,a4
    2082:	8a3e                	mv	s4,a5
    2084:	e195                	bnez	a1,20a8 <printInt+0x38>
    2086:	03000793          	li	a5,48
    208a:	4701                	li	a4,0
    208c:	86d2                	mv	a3,s4
    208e:	8626                	mv	a2,s1
    2090:	082c                	addi	a1,sp,24
    2092:	84fc                	sh	a5,24(sp)
    2094:	3711                	jal	1f98 <prints>
    2096:	40b6                	lw	ra,76(sp)
    2098:	4426                	lw	s0,72(sp)
    209a:	4496                	lw	s1,68(sp)
    209c:	4906                	lw	s2,64(sp)
    209e:	59f2                	lw	s3,60(sp)
    20a0:	5a62                	lw	s4,56(sp)
    20a2:	5ad2                	lw	s5,52(sp)
    20a4:	6161                	addi	sp,sp,80
    20a6:	8082                	ret
    20a8:	892a                	mv	s2,a0
    20aa:	8436                	mv	s0,a3
    20ac:	8ac6                	mv	s5,a7
    20ae:	ca91                	beqz	a3,20c2 <printInt+0x52>
    20b0:	47a9                	li	a5,10
    20b2:	4401                	li	s0,0
    20b4:	00f61763          	bne	a2,a5,20c2 <printInt+0x52>
    20b8:	0005d563          	bgez	a1,20c2 <printInt+0x52>
    20bc:	40b005b3          	neg	a1,a1
    20c0:	4405                	li	s0,1
    20c2:	020107a3          	sb	zero,47(sp)
    20c6:	02f10793          	addi	a5,sp,47
    20ca:	46a5                	li	a3,9
    20cc:	fc680513          	addi	a0,a6,-58
    20d0:	02c5f733          	remu	a4,a1,a2
    20d4:	00e6d363          	bge	a3,a4,20da <printInt+0x6a>
    20d8:	972a                	add	a4,a4,a0
    20da:	03070713          	addi	a4,a4,48
    20de:	fee78fa3          	sb	a4,-1(a5)
    20e2:	fff78993          	addi	s3,a5,-1
    20e6:	02c5d733          	divu	a4,a1,a2
    20ea:	04c5f763          	bgeu	a1,a2,2138 <printInt+0xc8>
    20ee:	cc01                	beqz	s0,2106 <printInt+0x96>
    20f0:	c4b9                	beqz	s1,213e <printInt+0xce>
    20f2:	002a7713          	andi	a4,s4,2
    20f6:	c721                	beqz	a4,213e <printInt+0xce>
    20f8:	02d00593          	li	a1,45
    20fc:	854a                	mv	a0,s2
    20fe:	c642                	sw	a6,12(sp)
    2100:	3d81                	jal	1f50 <printchar>
    2102:	4832                	lw	a6,12(sp)
    2104:	14fd                	addi	s1,s1,-1
    2106:	004a7793          	andi	a5,s4,4
    210a:	cf99                	beqz	a5,2128 <printInt+0xb8>
    210c:	06100793          	li	a5,97
    2110:	03000593          	li	a1,48
    2114:	854a                	mv	a0,s2
    2116:	02f81c63          	bne	a6,a5,214e <printInt+0xde>
    211a:	3d1d                	jal	1f50 <printchar>
    211c:	07800593          	li	a1,120
    2120:	854a                	mv	a0,s2
    2122:	353d                	jal	1f50 <printchar>
    2124:	0409                	addi	s0,s0,2
    2126:	14f9                	addi	s1,s1,-2
    2128:	8756                	mv	a4,s5
    212a:	86d2                	mv	a3,s4
    212c:	8626                	mv	a2,s1
    212e:	85ce                	mv	a1,s3
    2130:	854a                	mv	a0,s2
    2132:	359d                	jal	1f98 <prints>
    2134:	9522                	add	a0,a0,s0
    2136:	b785                	j	2096 <printInt+0x26>
    2138:	85ba                	mv	a1,a4
    213a:	87ce                	mv	a5,s3
    213c:	bf51                	j	20d0 <printInt+0x60>
    213e:	02d00713          	li	a4,45
    2142:	fee98fa3          	sb	a4,-1(s3)
    2146:	4401                	li	s0,0
    2148:	ffe78993          	addi	s3,a5,-2
    214c:	bf6d                	j	2106 <printInt+0x96>
    214e:	3509                	jal	1f50 <printchar>
    2150:	05800593          	li	a1,88
    2154:	b7f1                	j	2120 <printInt+0xb0>

00002156 <printLongLongInt>:
    2156:	711d                	addi	sp,sp,-96
    2158:	c8ca                	sw	s2,80(sp)
    215a:	c6ce                	sw	s3,76(sp)
    215c:	c2d6                	sw	s5,68(sp)
    215e:	c0da                	sw	s6,64(sp)
    2160:	893a                	mv	s2,a4
    2162:	ce86                	sw	ra,92(sp)
    2164:	cca2                	sw	s0,88(sp)
    2166:	caa6                	sw	s1,84(sp)
    2168:	c4d2                	sw	s4,72(sp)
    216a:	de5e                	sw	s7,60(sp)
    216c:	dc62                	sw	s8,56(sp)
    216e:	da66                	sw	s9,52(sp)
    2170:	d86a                	sw	s10,48(sp)
    2172:	d66e                	sw	s11,44(sp)
    2174:	00c5e733          	or	a4,a1,a2
    2178:	89be                	mv	s3,a5
    217a:	8aaa                	mv	s5,a0
    217c:	8b42                	mv	s6,a6
    217e:	06014783          	lbu	a5,96(sp)
    2182:	e329                	bnez	a4,21c4 <printLongLongInt+0x6e>
    2184:	cf85                	beqz	a5,21bc <printLongLongInt+0x66>
    2186:	678d                	lui	a5,0x3
    2188:	02d78793          	addi	a5,a5,45 # 302d <__muldf3+0x129>
    218c:	847c                	sh	a5,8(sp)
    218e:	00010523          	sb	zero,10(sp)
    2192:	4701                	li	a4,0
    2194:	86da                	mv	a3,s6
    2196:	864e                	mv	a2,s3
    2198:	002c                	addi	a1,sp,8
    219a:	8556                	mv	a0,s5
    219c:	3bf5                	jal	1f98 <prints>
    219e:	40f6                	lw	ra,92(sp)
    21a0:	4466                	lw	s0,88(sp)
    21a2:	44d6                	lw	s1,84(sp)
    21a4:	4946                	lw	s2,80(sp)
    21a6:	49b6                	lw	s3,76(sp)
    21a8:	4a26                	lw	s4,72(sp)
    21aa:	4a96                	lw	s5,68(sp)
    21ac:	4b06                	lw	s6,64(sp)
    21ae:	5bf2                	lw	s7,60(sp)
    21b0:	5c62                	lw	s8,56(sp)
    21b2:	5cd2                	lw	s9,52(sp)
    21b4:	5d42                	lw	s10,48(sp)
    21b6:	5db2                	lw	s11,44(sp)
    21b8:	6125                	addi	sp,sp,96
    21ba:	8082                	ret
    21bc:	03000793          	li	a5,48
    21c0:	847c                	sh	a5,8(sp)
    21c2:	bfc1                	j	2192 <printLongLongInt+0x3c>
    21c4:	8a36                	mv	s4,a3
    21c6:	84ae                	mv	s1,a1
    21c8:	8432                	mv	s0,a2
    21ca:	02090063          	beqz	s2,21ea <printLongLongInt+0x94>
    21ce:	47a9                	li	a5,10
    21d0:	4901                	li	s2,0
    21d2:	00f69c63          	bne	a3,a5,21ea <printLongLongInt+0x94>
    21d6:	00065a63          	bgez	a2,21ea <printLongLongInt+0x94>
    21da:	40b004b3          	neg	s1,a1
    21de:	009037b3          	snez	a5,s1
    21e2:	40c00433          	neg	s0,a2
    21e6:	8c1d                	sub	s0,s0,a5
    21e8:	4905                	li	s2,1
    21ea:	00010fa3          	sb	zero,31(sp)
    21ee:	01f10d13          	addi	s10,sp,31
    21f2:	41fa5d93          	srai	s11,s4,0x1f
    21f6:	4ca5                	li	s9,9
    21f8:	fc688c13          	addi	s8,a7,-58
    21fc:	8652                	mv	a2,s4
    21fe:	86ee                	mv	a3,s11
    2200:	8526                	mv	a0,s1
    2202:	85a2                	mv	a1,s0
    2204:	0c1000ef          	jal	ra,2ac4 <__umoddi3>
    2208:	00acd363          	bge	s9,a0,220e <printLongLongInt+0xb8>
    220c:	9562                	add	a0,a0,s8
    220e:	03050513          	addi	a0,a0,48
    2212:	fead0fa3          	sb	a0,-1(s10)
    2216:	8652                	mv	a2,s4
    2218:	86ee                	mv	a3,s11
    221a:	8526                	mv	a0,s1
    221c:	85a2                	mv	a1,s0
    221e:	fffd0b93          	addi	s7,s10,-1
    2222:	2b01                	jal	2732 <__udivdi3>
    2224:	01b46663          	bltu	s0,s11,2230 <printLongLongInt+0xda>
    2228:	028d9863          	bne	s11,s0,2258 <printLongLongInt+0x102>
    222c:	0344f663          	bgeu	s1,s4,2258 <printLongLongInt+0x102>
    2230:	00090c63          	beqz	s2,2248 <printLongLongInt+0xf2>
    2234:	02098663          	beqz	s3,2260 <printLongLongInt+0x10a>
    2238:	002b7793          	andi	a5,s6,2
    223c:	c395                	beqz	a5,2260 <printLongLongInt+0x10a>
    223e:	02d00593          	li	a1,45
    2242:	8556                	mv	a0,s5
    2244:	3331                	jal	1f50 <printchar>
    2246:	19fd                	addi	s3,s3,-1
    2248:	4701                	li	a4,0
    224a:	86da                	mv	a3,s6
    224c:	864e                	mv	a2,s3
    224e:	85de                	mv	a1,s7
    2250:	8556                	mv	a0,s5
    2252:	3399                	jal	1f98 <prints>
    2254:	954a                	add	a0,a0,s2
    2256:	b7a1                	j	219e <printLongLongInt+0x48>
    2258:	84aa                	mv	s1,a0
    225a:	842e                	mv	s0,a1
    225c:	8d5e                	mv	s10,s7
    225e:	bf79                	j	21fc <printLongLongInt+0xa6>
    2260:	02d00793          	li	a5,45
    2264:	fefb8fa3          	sb	a5,-1(s7)
    2268:	4901                	li	s2,0
    226a:	ffed0b93          	addi	s7,s10,-2
    226e:	bfe9                	j	2248 <printLongLongInt+0xf2>

00002270 <printDouble>:
    2270:	715d                	addi	sp,sp,-80
    2272:	c2a6                	sw	s1,68(sp)
    2274:	c0ca                	sw	s2,64(sp)
    2276:	84aa                	mv	s1,a0
    2278:	892e                	mv	s2,a1
    227a:	852e                	mv	a0,a1
    227c:	85b2                	mv	a1,a2
    227e:	c686                	sw	ra,76(sp)
    2280:	ce3a                	sw	a4,28(sp)
    2282:	cc42                	sw	a6,24(sp)
    2284:	c4a2                	sw	s0,72(sp)
    2286:	de4e                	sw	s3,60(sp)
    2288:	dc52                	sw	s4,56(sp)
    228a:	89b2                	mv	s3,a2
    228c:	8a36                	mv	s4,a3
    228e:	da56                	sw	s5,52(sp)
    2290:	d85a                	sw	s6,48(sp)
    2292:	8abe                	mv	s5,a5
    2294:	d65e                	sw	s7,44(sp)
    2296:	d462                	sw	s8,40(sp)
    2298:	d266                	sw	s9,36(sp)
    229a:	8c46                	mv	s8,a7
    229c:	d06a                	sw	s10,32(sp)
    229e:	05b010ef          	jal	ra,3af8 <__fixdfdi>
    22a2:	8b2a                	mv	s6,a0
    22a4:	8bae                	mv	s7,a1
    22a6:	4601                	li	a2,0
    22a8:	4681                	li	a3,0
    22aa:	85ce                	mv	a1,s3
    22ac:	854a                	mv	a0,s2
    22ae:	3a1000ef          	jal	ra,2e4e <__ledf2>
    22b2:	4772                	lw	a4,28(sp)
    22b4:	4862                	lw	a6,24(sp)
    22b6:	817d                	srli	a0,a0,0x1f
    22b8:	87ba                	mv	a5,a4
    22ba:	c02a                	sw	a0,0(sp)
    22bc:	4705                	li	a4,1
    22be:	88e2                	mv	a7,s8
    22c0:	86d2                	mv	a3,s4
    22c2:	85da                	mv	a1,s6
    22c4:	865e                	mv	a2,s7
    22c6:	8526                	mv	a0,s1
    22c8:	3579                	jal	2156 <printLongLongInt>
    22ca:	8d2a                	mv	s10,a0
    22cc:	02e00593          	li	a1,46
    22d0:	8526                	mv	a0,s1
    22d2:	c7fff0ef          	jal	ra,1f50 <printchar>
    22d6:	0d05                	addi	s10,s10,1
    22d8:	4781                	li	a5,0
    22da:	4c85                	li	s9,1
    22dc:	4401                	li	s0,0
    22de:	4729                	li	a4,10
    22e0:	0757cd63          	blt	a5,s5,235a <printDouble+0xea>
    22e4:	855a                	mv	a0,s6
    22e6:	85de                	mv	a1,s7
    22e8:	0cd010ef          	jal	ra,3bb4 <__floatdidf>
    22ec:	862a                	mv	a2,a0
    22ee:	86ae                	mv	a3,a1
    22f0:	854a                	mv	a0,s2
    22f2:	85ce                	mv	a1,s3
    22f4:	0c8010ef          	jal	ra,33bc <__subdf3>
    22f8:	892a                	mv	s2,a0
    22fa:	89ae                	mv	s3,a1
    22fc:	8566                	mv	a0,s9
    22fe:	85a2                	mv	a1,s0
    2300:	0b5010ef          	jal	ra,3bb4 <__floatdidf>
    2304:	862a                	mv	a2,a0
    2306:	86ae                	mv	a3,a1
    2308:	854a                	mv	a0,s2
    230a:	85ce                	mv	a1,s3
    230c:	3f9000ef          	jal	ra,2f04 <__muldf3>
    2310:	7e8010ef          	jal	ra,3af8 <__fixdfdi>
    2314:	41f5d613          	srai	a2,a1,0x1f
    2318:	8d31                	xor	a0,a0,a2
    231a:	00b647b3          	xor	a5,a2,a1
    231e:	40c505b3          	sub	a1,a0,a2
    2322:	00b53533          	sltu	a0,a0,a1
    2326:	40c78633          	sub	a2,a5,a2
    232a:	c002                	sw	zero,0(sp)
    232c:	88e2                	mv	a7,s8
    232e:	87d6                	mv	a5,s5
    2330:	86d2                	mv	a3,s4
    2332:	8e09                	sub	a2,a2,a0
    2334:	4809                	li	a6,2
    2336:	8526                	mv	a0,s1
    2338:	4705                	li	a4,1
    233a:	3d31                	jal	2156 <printLongLongInt>
    233c:	40b6                	lw	ra,76(sp)
    233e:	4426                	lw	s0,72(sp)
    2340:	956a                	add	a0,a0,s10
    2342:	4496                	lw	s1,68(sp)
    2344:	4906                	lw	s2,64(sp)
    2346:	59f2                	lw	s3,60(sp)
    2348:	5a62                	lw	s4,56(sp)
    234a:	5ad2                	lw	s5,52(sp)
    234c:	5b42                	lw	s6,48(sp)
    234e:	5bb2                	lw	s7,44(sp)
    2350:	5c22                	lw	s8,40(sp)
    2352:	5c92                	lw	s9,36(sp)
    2354:	5d02                	lw	s10,32(sp)
    2356:	6161                	addi	sp,sp,80
    2358:	8082                	ret
    235a:	028706b3          	mul	a3,a4,s0
    235e:	0785                	addi	a5,a5,1
    2360:	03973433          	mulhu	s0,a4,s9
    2364:	03970cb3          	mul	s9,a4,s9
    2368:	9436                	add	s0,s0,a3
    236a:	bf9d                	j	22e0 <printDouble+0x70>

0000236c <print>:
    236c:	715d                	addi	sp,sp,-80
    236e:	d85a                	sw	s6,48(sp)
    2370:	00004b37          	lui	s6,0x4
    2374:	c4a2                	sw	s0,72(sp)
    2376:	c2a6                	sw	s1,68(sp)
    2378:	c0ca                	sw	s2,64(sp)
    237a:	de4e                	sw	s3,60(sp)
    237c:	dc52                	sw	s4,56(sp)
    237e:	da56                	sw	s5,52(sp)
    2380:	d65e                	sw	s7,44(sp)
    2382:	d462                	sw	s8,40(sp)
    2384:	c686                	sw	ra,76(sp)
    2386:	d266                	sw	s9,36(sp)
    2388:	89aa                	mv	s3,a0
    238a:	892e                	mv	s2,a1
    238c:	8432                	mv	s0,a2
    238e:	4a01                	li	s4,0
    2390:	4481                	li	s1,0
    2392:	02500b93          	li	s7,37
    2396:	02b00a93          	li	s5,43
    239a:	4c29                	li	s8,10
    239c:	2a4b0b13          	addi	s6,s6,676 # 42a4 <MySerNumInfo+0x18>
    23a0:	00090583          	lb	a1,0(s2)
    23a4:	e58d                	bnez	a1,23ce <print+0x62>
    23a6:	00098663          	beqz	s3,23b2 <print+0x46>
    23aa:	4581                	li	a1,0
    23ac:	854e                	mv	a0,s3
    23ae:	ba3ff0ef          	jal	ra,1f50 <printchar>
    23b2:	40b6                	lw	ra,76(sp)
    23b4:	4426                	lw	s0,72(sp)
    23b6:	8526                	mv	a0,s1
    23b8:	4906                	lw	s2,64(sp)
    23ba:	4496                	lw	s1,68(sp)
    23bc:	59f2                	lw	s3,60(sp)
    23be:	5a62                	lw	s4,56(sp)
    23c0:	5ad2                	lw	s5,52(sp)
    23c2:	5b42                	lw	s6,48(sp)
    23c4:	5bb2                	lw	s7,44(sp)
    23c6:	5c22                	lw	s8,40(sp)
    23c8:	5c92                	lw	s9,36(sp)
    23ca:	6161                	addi	sp,sp,80
    23cc:	8082                	ret
    23ce:	01758863          	beq	a1,s7,23de <print+0x72>
    23d2:	854e                	mv	a0,s3
    23d4:	b7dff0ef          	jal	ra,1f50 <printchar>
    23d8:	0485                	addi	s1,s1,1
    23da:	0905                	addi	s2,s2,1
    23dc:	b7d1                	j	23a0 <print+0x34>
    23de:	00190783          	lb	a5,1(s2)
    23e2:	00190c93          	addi	s9,s2,1
    23e6:	01779a63          	bne	a5,s7,23fa <print+0x8e>
    23ea:	02500593          	li	a1,37
    23ee:	854e                	mv	a0,s3
    23f0:	b61ff0ef          	jal	ra,1f50 <printchar>
    23f4:	0485                	addi	s1,s1,1
    23f6:	8966                	mv	s2,s9
    23f8:	b7cd                	j	23da <print+0x6e>
    23fa:	d7d5                	beqz	a5,23a6 <print+0x3a>
    23fc:	05578763          	beq	a5,s5,244a <print+0xde>
    2400:	00fac863          	blt	s5,a5,2410 <print+0xa4>
    2404:	02300713          	li	a4,35
    2408:	04e78463          	beq	a5,a4,2450 <print+0xe4>
    240c:	4781                	li	a5,0
    240e:	a005                	j	242e <print+0xc2>
    2410:	02d00713          	li	a4,45
    2414:	00e78a63          	beq	a5,a4,2428 <print+0xbc>
    2418:	03000713          	li	a4,48
    241c:	fee798e3          	bne	a5,a4,240c <print+0xa0>
    2420:	00290c93          	addi	s9,s2,2
    2424:	4789                	li	a5,2
    2426:	a021                	j	242e <print+0xc2>
    2428:	00290c93          	addi	s9,s2,2
    242c:	4785                	li	a5,1
    242e:	000c8703          	lb	a4,0(s9)
    2432:	05570363          	beq	a4,s5,2478 <print+0x10c>
    2436:	02eac163          	blt	s5,a4,2458 <print+0xec>
    243a:	02300693          	li	a3,35
    243e:	02d70b63          	beq	a4,a3,2474 <print+0x108>
    2442:	8966                	mv	s2,s9
    2444:	4501                	li	a0,0
    2446:	45a5                	li	a1,9
    2448:	a835                	j	2484 <print+0x118>
    244a:	00290c93          	addi	s9,s2,2
    244e:	bf7d                	j	240c <print+0xa0>
    2450:	00290c93          	addi	s9,s2,2
    2454:	4791                	li	a5,4
    2456:	bfe1                	j	242e <print+0xc2>
    2458:	02d00693          	li	a3,45
    245c:	00d70963          	beq	a4,a3,246e <print+0x102>
    2460:	03000693          	li	a3,48
    2464:	fcd71fe3          	bne	a4,a3,2442 <print+0xd6>
    2468:	0027e793          	ori	a5,a5,2
    246c:	a031                	j	2478 <print+0x10c>
    246e:	0c85                	addi	s9,s9,1
    2470:	4785                	li	a5,1
    2472:	bfc1                	j	2442 <print+0xd6>
    2474:	0047e793          	ori	a5,a5,4
    2478:	0c85                	addi	s9,s9,1
    247a:	b7e1                	j	2442 <print+0xd6>
    247c:	03850533          	mul	a0,a0,s8
    2480:	0905                	addi	s2,s2,1
    2482:	9536                	add	a0,a0,a3
    2484:	00090703          	lb	a4,0(s2)
    2488:	fd070693          	addi	a3,a4,-48
    248c:	0ff6f613          	andi	a2,a3,255
    2490:	fec5f6e3          	bgeu	a1,a2,247c <print+0x110>
    2494:	02e00613          	li	a2,46
    2498:	4699                	li	a3,6
    249a:	00c71e63          	bne	a4,a2,24b6 <print+0x14a>
    249e:	0905                	addi	s2,s2,1
    24a0:	4681                	li	a3,0
    24a2:	4625                	li	a2,9
    24a4:	00090703          	lb	a4,0(s2)
    24a8:	fd070713          	addi	a4,a4,-48
    24ac:	0ff77593          	andi	a1,a4,255
    24b0:	02b67563          	bgeu	a2,a1,24da <print+0x16e>
    24b4:	8a36                	mv	s4,a3
    24b6:	00090703          	lb	a4,0(s2)
    24ba:	06a00613          	li	a2,106
    24be:	0ac70963          	beq	a4,a2,2570 <print+0x204>
    24c2:	02e64163          	blt	a2,a4,24e4 <print+0x178>
    24c6:	04c00613          	li	a2,76
    24ca:	0ac70363          	beq	a4,a2,2570 <print+0x204>
    24ce:	06800613          	li	a2,104
    24d2:	08c70863          	beq	a4,a2,2562 <print+0x1f6>
    24d6:	4601                	li	a2,0
    24d8:	a81d                	j	250e <print+0x1a2>
    24da:	038686b3          	mul	a3,a3,s8
    24de:	0905                	addi	s2,s2,1
    24e0:	96ba                	add	a3,a3,a4
    24e2:	b7c9                	j	24a4 <print+0x138>
    24e4:	07400613          	li	a2,116
    24e8:	08c70463          	beq	a4,a2,2570 <print+0x204>
    24ec:	07a00613          	li	a2,122
    24f0:	08c70063          	beq	a4,a2,2570 <print+0x204>
    24f4:	06c00593          	li	a1,108
    24f8:	4601                	li	a2,0
    24fa:	00b71a63          	bne	a4,a1,250e <print+0x1a2>
    24fe:	00190583          	lb	a1,1(s2)
    2502:	460d                	li	a2,3
    2504:	00e59463          	bne	a1,a4,250c <print+0x1a0>
    2508:	0905                	addi	s2,s2,1
    250a:	4611                	li	a2,4
    250c:	0905                	addi	s2,s2,1
    250e:	00090703          	lb	a4,0(s2)
    2512:	06000593          	li	a1,96
    2516:	06100813          	li	a6,97
    251a:	00e5c463          	blt	a1,a4,2522 <print+0x1b6>
    251e:	04100813          	li	a6,65
    2522:	06700593          	li	a1,103
    2526:	06e5c263          	blt	a1,a4,258a <print+0x21e>
    252a:	06500593          	li	a1,101
    252e:	16b75963          	bge	a4,a1,26a0 <print+0x334>
    2532:	04700593          	li	a1,71
    2536:	02e5cf63          	blt	a1,a4,2574 <print+0x208>
    253a:	04500613          	li	a2,69
    253e:	16c75163          	bge	a4,a2,26a0 <print+0x334>
    2542:	04300693          	li	a3,67
    2546:	e8d71ae3          	bne	a4,a3,23da <print+0x6e>
    254a:	4018                	lw	a4,0(s0)
    254c:	00440c93          	addi	s9,s0,4
    2550:	00010ea3          	sb	zero,29(sp)
    2554:	00e10e23          	sb	a4,28(sp)
    2558:	86be                	mv	a3,a5
    255a:	4701                	li	a4,0
    255c:	862a                	mv	a2,a0
    255e:	086c                	addi	a1,sp,28
    2560:	a071                	j	25ec <print+0x280>
    2562:	00190583          	lb	a1,1(s2)
    2566:	4601                	li	a2,0
    2568:	fae593e3          	bne	a1,a4,250e <print+0x1a2>
    256c:	0909                	addi	s2,s2,2
    256e:	b745                	j	250e <print+0x1a2>
    2570:	0905                	addi	s2,s2,1
    2572:	b795                	j	24d6 <print+0x16a>
    2574:	06300693          	li	a3,99
    2578:	fcd709e3          	beq	a4,a3,254a <print+0x1de>
    257c:	06e6ce63          	blt	a3,a4,25f8 <print+0x28c>
    2580:	05800693          	li	a3,88
    2584:	02d70363          	beq	a4,a3,25aa <print+0x23e>
    2588:	bd89                	j	23da <print+0x6e>
    258a:	07300693          	li	a3,115
    258e:	04d70663          	beq	a4,a3,25da <print+0x26e>
    2592:	02e6cd63          	blt	a3,a4,25cc <print+0x260>
    2596:	06f00693          	li	a3,111
    259a:	0cd70b63          	beq	a4,a3,2670 <print+0x304>
    259e:	07000693          	li	a3,112
    25a2:	0047e793          	ori	a5,a5,4
    25a6:	e2d71ae3          	bne	a4,a3,23da <print+0x6e>
    25aa:	4711                	li	a4,4
    25ac:	0ae61b63          	bne	a2,a4,2662 <print+0x2f6>
    25b0:	041d                	addi	s0,s0,7
    25b2:	ff847713          	andi	a4,s0,-8
    25b6:	430c                	lw	a1,0(a4)
    25b8:	4350                	lw	a2,4(a4)
    25ba:	00870413          	addi	s0,a4,8
    25be:	88c2                	mv	a7,a6
    25c0:	c002                	sw	zero,0(sp)
    25c2:	883e                	mv	a6,a5
    25c4:	4701                	li	a4,0
    25c6:	87aa                	mv	a5,a0
    25c8:	46c1                	li	a3,16
    25ca:	a0b9                	j	2618 <print+0x2ac>
    25cc:	07500693          	li	a3,117
    25d0:	06d70363          	beq	a4,a3,2636 <print+0x2ca>
    25d4:	07800693          	li	a3,120
    25d8:	b775                	j	2584 <print+0x218>
    25da:	4018                	lw	a4,0(s0)
    25dc:	00440c93          	addi	s9,s0,4
    25e0:	85da                	mv	a1,s6
    25e2:	c311                	beqz	a4,25e6 <print+0x27a>
    25e4:	85ba                	mv	a1,a4
    25e6:	8752                	mv	a4,s4
    25e8:	86be                	mv	a3,a5
    25ea:	862a                	mv	a2,a0
    25ec:	854e                	mv	a0,s3
    25ee:	9abff0ef          	jal	ra,1f98 <prints>
    25f2:	94aa                	add	s1,s1,a0
    25f4:	8466                	mv	s0,s9
    25f6:	b3d5                	j	23da <print+0x6e>
    25f8:	4711                	li	a4,4
    25fa:	02e61463          	bne	a2,a4,2622 <print+0x2b6>
    25fe:	041d                	addi	s0,s0,7
    2600:	ff847713          	andi	a4,s0,-8
    2604:	430c                	lw	a1,0(a4)
    2606:	4350                	lw	a2,4(a4)
    2608:	00870413          	addi	s0,a4,8
    260c:	88c2                	mv	a7,a6
    260e:	c002                	sw	zero,0(sp)
    2610:	883e                	mv	a6,a5
    2612:	4705                	li	a4,1
    2614:	87aa                	mv	a5,a0
    2616:	46a9                	li	a3,10
    2618:	854e                	mv	a0,s3
    261a:	b3dff0ef          	jal	ra,2156 <printLongLongInt>
    261e:	94aa                	add	s1,s1,a0
    2620:	bb6d                	j	23da <print+0x6e>
    2622:	400c                	lw	a1,0(s0)
    2624:	88d2                	mv	a7,s4
    2626:	0411                	addi	s0,s0,4
    2628:	872a                	mv	a4,a0
    262a:	4685                	li	a3,1
    262c:	4629                	li	a2,10
    262e:	854e                	mv	a0,s3
    2630:	a41ff0ef          	jal	ra,2070 <printInt>
    2634:	b7ed                	j	261e <print+0x2b2>
    2636:	4711                	li	a4,4
    2638:	00e61f63          	bne	a2,a4,2656 <print+0x2ea>
    263c:	041d                	addi	s0,s0,7
    263e:	ff847713          	andi	a4,s0,-8
    2642:	430c                	lw	a1,0(a4)
    2644:	4350                	lw	a2,4(a4)
    2646:	00870413          	addi	s0,a4,8
    264a:	88c2                	mv	a7,a6
    264c:	c002                	sw	zero,0(sp)
    264e:	883e                	mv	a6,a5
    2650:	4701                	li	a4,0
    2652:	87aa                	mv	a5,a0
    2654:	b7c9                	j	2616 <print+0x2aa>
    2656:	400c                	lw	a1,0(s0)
    2658:	88d2                	mv	a7,s4
    265a:	0411                	addi	s0,s0,4
    265c:	872a                	mv	a4,a0
    265e:	4681                	li	a3,0
    2660:	b7f1                	j	262c <print+0x2c0>
    2662:	400c                	lw	a1,0(s0)
    2664:	88d2                	mv	a7,s4
    2666:	0411                	addi	s0,s0,4
    2668:	872a                	mv	a4,a0
    266a:	4681                	li	a3,0
    266c:	4641                	li	a2,16
    266e:	b7c1                	j	262e <print+0x2c2>
    2670:	4711                	li	a4,4
    2672:	02e61063          	bne	a2,a4,2692 <print+0x326>
    2676:	041d                	addi	s0,s0,7
    2678:	ff847713          	andi	a4,s0,-8
    267c:	430c                	lw	a1,0(a4)
    267e:	4350                	lw	a2,4(a4)
    2680:	00870413          	addi	s0,a4,8
    2684:	88c2                	mv	a7,a6
    2686:	c002                	sw	zero,0(sp)
    2688:	883e                	mv	a6,a5
    268a:	4701                	li	a4,0
    268c:	87aa                	mv	a5,a0
    268e:	46a1                	li	a3,8
    2690:	b761                	j	2618 <print+0x2ac>
    2692:	400c                	lw	a1,0(s0)
    2694:	88d2                	mv	a7,s4
    2696:	0411                	addi	s0,s0,4
    2698:	872a                	mv	a4,a0
    269a:	4681                	li	a3,0
    269c:	4621                	li	a2,8
    269e:	bf41                	j	262e <print+0x2c2>
    26a0:	041d                	addi	s0,s0,7
    26a2:	ff847613          	andi	a2,s0,-8
    26a6:	00860413          	addi	s0,a2,8
    26aa:	420c                	lw	a1,0(a2)
    26ac:	4250                	lw	a2,4(a2)
    26ae:	40d50733          	sub	a4,a0,a3
    26b2:	88c2                	mv	a7,a6
    26b4:	177d                	addi	a4,a4,-1
    26b6:	883e                	mv	a6,a5
    26b8:	854e                	mv	a0,s3
    26ba:	87b6                	mv	a5,a3
    26bc:	46a9                	li	a3,10
    26be:	bb3ff0ef          	jal	ra,2270 <printDouble>
    26c2:	bfb1                	j	261e <print+0x2b2>

000026c4 <printf>:
    26c4:	7139                	addi	sp,sp,-64
    26c6:	d22e                	sw	a1,36(sp)
    26c8:	d432                	sw	a2,40(sp)
    26ca:	85aa                	mv	a1,a0
    26cc:	1050                	addi	a2,sp,36
    26ce:	4501                	li	a0,0
    26d0:	ce06                	sw	ra,28(sp)
    26d2:	d636                	sw	a3,44(sp)
    26d4:	d83a                	sw	a4,48(sp)
    26d6:	da3e                	sw	a5,52(sp)
    26d8:	dc42                	sw	a6,56(sp)
    26da:	de46                	sw	a7,60(sp)
    26dc:	c632                	sw	a2,12(sp)
    26de:	c8fff0ef          	jal	ra,236c <print>
    26e2:	40f2                	lw	ra,28(sp)
    26e4:	6121                	addi	sp,sp,64
    26e6:	8082                	ret

000026e8 <puts>:
    26e8:	1101                	addi	sp,sp,-32
    26ea:	cc22                	sw	s0,24(sp)
    26ec:	ca26                	sw	s1,20(sp)
    26ee:	ce06                	sw	ra,28(sp)
    26f0:	211c                	lbu	a5,0(a0)
    26f2:	84aa                	mv	s1,a0
    26f4:	4401                	li	s0,0
    26f6:	87dc                	sb	a5,15(sp)
    26f8:	00f10783          	lb	a5,15(sp)
    26fc:	0405                	addi	s0,s0,1
    26fe:	ef99                	bnez	a5,271c <puts+0x34>
    2700:	47a9                	li	a5,10
    2702:	00f10593          	addi	a1,sp,15
    2706:	4605                	li	a2,1
    2708:	4501                	li	a0,0
    270a:	87dc                	sb	a5,15(sp)
    270c:	fc4ff0ef          	jal	ra,1ed0 <_write>
    2710:	8522                	mv	a0,s0
    2712:	40f2                	lw	ra,28(sp)
    2714:	4462                	lw	s0,24(sp)
    2716:	44d2                	lw	s1,20(sp)
    2718:	6105                	addi	sp,sp,32
    271a:	8082                	ret
    271c:	4605                	li	a2,1
    271e:	00f10593          	addi	a1,sp,15
    2722:	4501                	li	a0,0
    2724:	facff0ef          	jal	ra,1ed0 <_write>
    2728:	008487b3          	add	a5,s1,s0
    272c:	239c                	lbu	a5,0(a5)
    272e:	87dc                	sb	a5,15(sp)
    2730:	b7e1                	j	26f8 <puts+0x10>

00002732 <__udivdi3>:
    2732:	87b6                	mv	a5,a3
    2734:	88b2                	mv	a7,a2
    2736:	832a                	mv	t1,a0
    2738:	882e                	mv	a6,a1
    273a:	14069b63          	bnez	a3,2890 <__udivdi3+0x15e>
    273e:	0ac5f863          	bgeu	a1,a2,27ee <__udivdi3+0xbc>
    2742:	6741                	lui	a4,0x10
    2744:	1ae66b63          	bltu	a2,a4,28fa <__udivdi3+0x1c8>
    2748:	010007b7          	lui	a5,0x1000
    274c:	34f66063          	bltu	a2,a5,2a8c <__udivdi3+0x35a>
    2750:	01865693          	srli	a3,a2,0x18
    2754:	47e1                	li	a5,24
    2756:	00002717          	auipc	a4,0x2
    275a:	b9670713          	addi	a4,a4,-1130 # 42ec <__clz_tab>
    275e:	9736                	add	a4,a4,a3
    2760:	2318                	lbu	a4,0(a4)
    2762:	97ba                	add	a5,a5,a4
    2764:	02000713          	li	a4,32
    2768:	8f1d                	sub	a4,a4,a5
    276a:	cb19                	beqz	a4,2780 <__udivdi3+0x4e>
    276c:	00e59833          	sll	a6,a1,a4
    2770:	00f557b3          	srl	a5,a0,a5
    2774:	00e618b3          	sll	a7,a2,a4
    2778:	0107e833          	or	a6,a5,a6
    277c:	00e51333          	sll	t1,a0,a4
    2780:	0108d613          	srli	a2,a7,0x10
    2784:	02c85533          	divu	a0,a6,a2
    2788:	01089693          	slli	a3,a7,0x10
    278c:	82c1                	srli	a3,a3,0x10
    278e:	01035793          	srli	a5,t1,0x10
    2792:	02c87733          	remu	a4,a6,a2
    2796:	02a685b3          	mul	a1,a3,a0
    279a:	0742                	slli	a4,a4,0x10
    279c:	00f76833          	or	a6,a4,a5
    27a0:	00b87a63          	bgeu	a6,a1,27b4 <__udivdi3+0x82>
    27a4:	9846                	add	a6,a6,a7
    27a6:	fff50793          	addi	a5,a0,-1
    27aa:	01186463          	bltu	a6,a7,27b2 <__udivdi3+0x80>
    27ae:	30b86563          	bltu	a6,a1,2ab8 <__udivdi3+0x386>
    27b2:	853e                	mv	a0,a5
    27b4:	40b80833          	sub	a6,a6,a1
    27b8:	02c85733          	divu	a4,a6,a2
    27bc:	0342                	slli	t1,t1,0x10
    27be:	01035313          	srli	t1,t1,0x10
    27c2:	02c87833          	remu	a6,a6,a2
    27c6:	02e686b3          	mul	a3,a3,a4
    27ca:	0842                	slli	a6,a6,0x10
    27cc:	00686833          	or	a6,a6,t1
    27d0:	00d87b63          	bgeu	a6,a3,27e6 <__udivdi3+0xb4>
    27d4:	9846                	add	a6,a6,a7
    27d6:	fff70793          	addi	a5,a4,-1
    27da:	01186563          	bltu	a6,a7,27e4 <__udivdi3+0xb2>
    27de:	1779                	addi	a4,a4,-2
    27e0:	00d86363          	bltu	a6,a3,27e6 <__udivdi3+0xb4>
    27e4:	873e                	mv	a4,a5
    27e6:	0542                	slli	a0,a0,0x10
    27e8:	8d59                	or	a0,a0,a4
    27ea:	4581                	li	a1,0
    27ec:	8082                	ret
    27ee:	e601                	bnez	a2,27f6 <__udivdi3+0xc4>
    27f0:	4705                	li	a4,1
    27f2:	02c758b3          	divu	a7,a4,a2
    27f6:	6741                	lui	a4,0x10
    27f8:	0ee8e863          	bltu	a7,a4,28e8 <__udivdi3+0x1b6>
    27fc:	010007b7          	lui	a5,0x1000
    2800:	28f8ea63          	bltu	a7,a5,2a94 <__udivdi3+0x362>
    2804:	0188d693          	srli	a3,a7,0x18
    2808:	47e1                	li	a5,24
    280a:	00002717          	auipc	a4,0x2
    280e:	ae270713          	addi	a4,a4,-1310 # 42ec <__clz_tab>
    2812:	9736                	add	a4,a4,a3
    2814:	2314                	lbu	a3,0(a4)
    2816:	96be                	add	a3,a3,a5
    2818:	02000793          	li	a5,32
    281c:	8f95                	sub	a5,a5,a3
    281e:	e7fd                	bnez	a5,290c <__udivdi3+0x1da>
    2820:	01089e93          	slli	t4,a7,0x10
    2824:	41158733          	sub	a4,a1,a7
    2828:	0108df13          	srli	t5,a7,0x10
    282c:	010ede93          	srli	t4,t4,0x10
    2830:	4585                	li	a1,1
    2832:	01035793          	srli	a5,t1,0x10
    2836:	03e75533          	divu	a0,a4,t5
    283a:	03e77733          	remu	a4,a4,t5
    283e:	03d506b3          	mul	a3,a0,t4
    2842:	0742                	slli	a4,a4,0x10
    2844:	8fd9                	or	a5,a5,a4
    2846:	00d7fa63          	bgeu	a5,a3,285a <__udivdi3+0x128>
    284a:	97c6                	add	a5,a5,a7
    284c:	fff50713          	addi	a4,a0,-1
    2850:	0117e463          	bltu	a5,a7,2858 <__udivdi3+0x126>
    2854:	26d7e563          	bltu	a5,a3,2abe <__udivdi3+0x38c>
    2858:	853a                	mv	a0,a4
    285a:	8f95                	sub	a5,a5,a3
    285c:	03e7d733          	divu	a4,a5,t5
    2860:	0342                	slli	t1,t1,0x10
    2862:	01035313          	srli	t1,t1,0x10
    2866:	03e7f7b3          	remu	a5,a5,t5
    286a:	03d70eb3          	mul	t4,a4,t4
    286e:	07c2                	slli	a5,a5,0x10
    2870:	0067e7b3          	or	a5,a5,t1
    2874:	01d7fb63          	bgeu	a5,t4,288a <__udivdi3+0x158>
    2878:	97c6                	add	a5,a5,a7
    287a:	fff70693          	addi	a3,a4,-1
    287e:	0117e563          	bltu	a5,a7,2888 <__udivdi3+0x156>
    2882:	1779                	addi	a4,a4,-2
    2884:	01d7e363          	bltu	a5,t4,288a <__udivdi3+0x158>
    2888:	8736                	mv	a4,a3
    288a:	0542                	slli	a0,a0,0x10
    288c:	8d59                	or	a0,a0,a4
    288e:	8082                	ret
    2890:	04d5e163          	bltu	a1,a3,28d2 <__udivdi3+0x1a0>
    2894:	67c1                	lui	a5,0x10
    2896:	04f6e163          	bltu	a3,a5,28d8 <__udivdi3+0x1a6>
    289a:	010007b7          	lui	a5,0x1000
    289e:	1ef6e363          	bltu	a3,a5,2a84 <__udivdi3+0x352>
    28a2:	0186d713          	srli	a4,a3,0x18
    28a6:	4861                	li	a6,24
    28a8:	00002797          	auipc	a5,0x2
    28ac:	a4478793          	addi	a5,a5,-1468 # 42ec <__clz_tab>
    28b0:	97ba                	add	a5,a5,a4
    28b2:	2398                	lbu	a4,0(a5)
    28b4:	02000e13          	li	t3,32
    28b8:	9742                	add	a4,a4,a6
    28ba:	40ee0e33          	sub	t3,t3,a4
    28be:	0c0e1a63          	bnez	t3,2992 <__udivdi3+0x260>
    28c2:	1cb6ed63          	bltu	a3,a1,2a9c <__udivdi3+0x36a>
    28c6:	00c53533          	sltu	a0,a0,a2
    28ca:	00154513          	xori	a0,a0,1
    28ce:	4581                	li	a1,0
    28d0:	8082                	ret
    28d2:	4581                	li	a1,0
    28d4:	4501                	li	a0,0
    28d6:	8082                	ret
    28d8:	0ff00793          	li	a5,255
    28dc:	1cd7f363          	bgeu	a5,a3,2aa2 <__udivdi3+0x370>
    28e0:	0086d713          	srli	a4,a3,0x8
    28e4:	4821                	li	a6,8
    28e6:	b7c9                	j	28a8 <__udivdi3+0x176>
    28e8:	0ff00713          	li	a4,255
    28ec:	86c6                	mv	a3,a7
    28ee:	f1177ee3          	bgeu	a4,a7,280a <__udivdi3+0xd8>
    28f2:	0088d693          	srli	a3,a7,0x8
    28f6:	47a1                	li	a5,8
    28f8:	bf09                	j	280a <__udivdi3+0xd8>
    28fa:	0ff00713          	li	a4,255
    28fe:	86b2                	mv	a3,a2
    2900:	e4c77be3          	bgeu	a4,a2,2756 <__udivdi3+0x24>
    2904:	00865693          	srli	a3,a2,0x8
    2908:	47a1                	li	a5,8
    290a:	b5b1                	j	2756 <__udivdi3+0x24>
    290c:	00f898b3          	sll	a7,a7,a5
    2910:	00d5d633          	srl	a2,a1,a3
    2914:	0108df13          	srli	t5,a7,0x10
    2918:	03e65e33          	divu	t3,a2,t5
    291c:	00f59733          	sll	a4,a1,a5
    2920:	00d556b3          	srl	a3,a0,a3
    2924:	8f55                	or	a4,a4,a3
    2926:	01089e93          	slli	t4,a7,0x10
    292a:	010ede93          	srli	t4,t4,0x10
    292e:	00f51333          	sll	t1,a0,a5
    2932:	01075593          	srli	a1,a4,0x10
    2936:	03e676b3          	remu	a3,a2,t5
    293a:	03ce87b3          	mul	a5,t4,t3
    293e:	06c2                	slli	a3,a3,0x10
    2940:	8ecd                	or	a3,a3,a1
    2942:	00f6fb63          	bgeu	a3,a5,2958 <__udivdi3+0x226>
    2946:	96c6                	add	a3,a3,a7
    2948:	fffe0613          	addi	a2,t3,-1
    294c:	1716e463          	bltu	a3,a7,2ab4 <__udivdi3+0x382>
    2950:	16f6f263          	bgeu	a3,a5,2ab4 <__udivdi3+0x382>
    2954:	1e79                	addi	t3,t3,-2
    2956:	96c6                	add	a3,a3,a7
    2958:	8e9d                	sub	a3,a3,a5
    295a:	03e6d633          	divu	a2,a3,t5
    295e:	01071793          	slli	a5,a4,0x10
    2962:	83c1                	srli	a5,a5,0x10
    2964:	03e6f6b3          	remu	a3,a3,t5
    2968:	02ce8533          	mul	a0,t4,a2
    296c:	01069713          	slli	a4,a3,0x10
    2970:	8f5d                	or	a4,a4,a5
    2972:	00a77b63          	bgeu	a4,a0,2988 <__udivdi3+0x256>
    2976:	9746                	add	a4,a4,a7
    2978:	fff60793          	addi	a5,a2,-1
    297c:	13176863          	bltu	a4,a7,2aac <__udivdi3+0x37a>
    2980:	12a77663          	bgeu	a4,a0,2aac <__udivdi3+0x37a>
    2984:	1679                	addi	a2,a2,-2
    2986:	9746                	add	a4,a4,a7
    2988:	010e1593          	slli	a1,t3,0x10
    298c:	8f09                	sub	a4,a4,a0
    298e:	8dd1                	or	a1,a1,a2
    2990:	b54d                	j	2832 <__udivdi3+0x100>
    2992:	00e657b3          	srl	a5,a2,a4
    2996:	01c696b3          	sll	a3,a3,t3
    299a:	8edd                	or	a3,a3,a5
    299c:	00e5d333          	srl	t1,a1,a4
    29a0:	0106df13          	srli	t5,a3,0x10
    29a4:	03e357b3          	divu	a5,t1,t5
    29a8:	01069e93          	slli	t4,a3,0x10
    29ac:	010ede93          	srli	t4,t4,0x10
    29b0:	01c59833          	sll	a6,a1,t3
    29b4:	00e55733          	srl	a4,a0,a4
    29b8:	01076833          	or	a6,a4,a6
    29bc:	01085893          	srli	a7,a6,0x10
    29c0:	01c61633          	sll	a2,a2,t3
    29c4:	03e37333          	remu	t1,t1,t5
    29c8:	02fe85b3          	mul	a1,t4,a5
    29cc:	0342                	slli	t1,t1,0x10
    29ce:	011368b3          	or	a7,t1,a7
    29d2:	00b8fb63          	bgeu	a7,a1,29e8 <__udivdi3+0x2b6>
    29d6:	98b6                	add	a7,a7,a3
    29d8:	fff78713          	addi	a4,a5,-1
    29dc:	0cd8ea63          	bltu	a7,a3,2ab0 <__udivdi3+0x37e>
    29e0:	0cb8f863          	bgeu	a7,a1,2ab0 <__udivdi3+0x37e>
    29e4:	17f9                	addi	a5,a5,-2
    29e6:	98b6                	add	a7,a7,a3
    29e8:	40b888b3          	sub	a7,a7,a1
    29ec:	03e8d733          	divu	a4,a7,t5
    29f0:	0842                	slli	a6,a6,0x10
    29f2:	01085813          	srli	a6,a6,0x10
    29f6:	03e8f8b3          	remu	a7,a7,t5
    29fa:	02ee8333          	mul	t1,t4,a4
    29fe:	08c2                	slli	a7,a7,0x10
    2a00:	0108e5b3          	or	a1,a7,a6
    2a04:	0065fb63          	bgeu	a1,t1,2a1a <__udivdi3+0x2e8>
    2a08:	95b6                	add	a1,a1,a3
    2a0a:	fff70813          	addi	a6,a4,-1
    2a0e:	08d5ed63          	bltu	a1,a3,2aa8 <__udivdi3+0x376>
    2a12:	0865fb63          	bgeu	a1,t1,2aa8 <__udivdi3+0x376>
    2a16:	1779                	addi	a4,a4,-2
    2a18:	95b6                	add	a1,a1,a3
    2a1a:	07c2                	slli	a5,a5,0x10
    2a1c:	6f41                	lui	t5,0x10
    2a1e:	8fd9                	or	a5,a5,a4
    2a20:	ffff0713          	addi	a4,t5,-1 # ffff <_data_lma+0xbc13>
    2a24:	00e7f6b3          	and	a3,a5,a4
    2a28:	0107d893          	srli	a7,a5,0x10
    2a2c:	8f71                	and	a4,a4,a2
    2a2e:	8241                	srli	a2,a2,0x10
    2a30:	02e68eb3          	mul	t4,a3,a4
    2a34:	406585b3          	sub	a1,a1,t1
    2a38:	02c686b3          	mul	a3,a3,a2
    2a3c:	010ed813          	srli	a6,t4,0x10
    2a40:	02e88733          	mul	a4,a7,a4
    2a44:	96ba                	add	a3,a3,a4
    2a46:	96c2                	add	a3,a3,a6
    2a48:	02c88633          	mul	a2,a7,a2
    2a4c:	00e6f363          	bgeu	a3,a4,2a52 <__udivdi3+0x320>
    2a50:	967a                	add	a2,a2,t5
    2a52:	0106d893          	srli	a7,a3,0x10
    2a56:	9646                	add	a2,a2,a7
    2a58:	02c5e263          	bltu	a1,a2,2a7c <__udivdi3+0x34a>
    2a5c:	00c58563          	beq	a1,a2,2a66 <__udivdi3+0x334>
    2a60:	853e                	mv	a0,a5
    2a62:	4581                	li	a1,0
    2a64:	8082                	ret
    2a66:	6741                	lui	a4,0x10
    2a68:	177d                	addi	a4,a4,-1
    2a6a:	8ef9                	and	a3,a3,a4
    2a6c:	06c2                	slli	a3,a3,0x10
    2a6e:	00eefeb3          	and	t4,t4,a4
    2a72:	01c51533          	sll	a0,a0,t3
    2a76:	96f6                	add	a3,a3,t4
    2a78:	fed574e3          	bgeu	a0,a3,2a60 <__udivdi3+0x32e>
    2a7c:	fff78513          	addi	a0,a5,-1
    2a80:	4581                	li	a1,0
    2a82:	8082                	ret
    2a84:	0106d713          	srli	a4,a3,0x10
    2a88:	4841                	li	a6,16
    2a8a:	bd39                	j	28a8 <__udivdi3+0x176>
    2a8c:	01065693          	srli	a3,a2,0x10
    2a90:	47c1                	li	a5,16
    2a92:	b1d1                	j	2756 <__udivdi3+0x24>
    2a94:	0108d693          	srli	a3,a7,0x10
    2a98:	47c1                	li	a5,16
    2a9a:	bb85                	j	280a <__udivdi3+0xd8>
    2a9c:	4581                	li	a1,0
    2a9e:	4505                	li	a0,1
    2aa0:	8082                	ret
    2aa2:	8736                	mv	a4,a3
    2aa4:	4801                	li	a6,0
    2aa6:	b509                	j	28a8 <__udivdi3+0x176>
    2aa8:	8742                	mv	a4,a6
    2aaa:	bf85                	j	2a1a <__udivdi3+0x2e8>
    2aac:	863e                	mv	a2,a5
    2aae:	bde9                	j	2988 <__udivdi3+0x256>
    2ab0:	87ba                	mv	a5,a4
    2ab2:	bf1d                	j	29e8 <__udivdi3+0x2b6>
    2ab4:	8e32                	mv	t3,a2
    2ab6:	b54d                	j	2958 <__udivdi3+0x226>
    2ab8:	1579                	addi	a0,a0,-2
    2aba:	9846                	add	a6,a6,a7
    2abc:	b9e5                	j	27b4 <__udivdi3+0x82>
    2abe:	1579                	addi	a0,a0,-2
    2ac0:	97c6                	add	a5,a5,a7
    2ac2:	bb61                	j	285a <__udivdi3+0x128>

00002ac4 <__umoddi3>:
    2ac4:	87b6                	mv	a5,a3
    2ac6:	8832                	mv	a6,a2
    2ac8:	832a                	mv	t1,a0
    2aca:	872e                	mv	a4,a1
    2acc:	8e2e                	mv	t3,a1
    2ace:	14069163          	bnez	a3,2c10 <__umoddi3+0x14c>
    2ad2:	0ac5f063          	bgeu	a1,a2,2b72 <__umoddi3+0xae>
    2ad6:	6741                	lui	a4,0x10
    2ad8:	1ae67663          	bgeu	a2,a4,2c84 <__umoddi3+0x1c0>
    2adc:	0ff00713          	li	a4,255
    2ae0:	86b2                	mv	a3,a2
    2ae2:	00c77563          	bgeu	a4,a2,2aec <__umoddi3+0x28>
    2ae6:	00865693          	srli	a3,a2,0x8
    2aea:	47a1                	li	a5,8
    2aec:	00002717          	auipc	a4,0x2
    2af0:	80070713          	addi	a4,a4,-2048 # 42ec <__clz_tab>
    2af4:	9736                	add	a4,a4,a3
    2af6:	2318                	lbu	a4,0(a4)
    2af8:	02000893          	li	a7,32
    2afc:	97ba                	add	a5,a5,a4
    2afe:	40f888b3          	sub	a7,a7,a5
    2b02:	00088c63          	beqz	a7,2b1a <__umoddi3+0x56>
    2b06:	011595b3          	sll	a1,a1,a7
    2b0a:	00f557b3          	srl	a5,a0,a5
    2b0e:	01161833          	sll	a6,a2,a7
    2b12:	00b7ee33          	or	t3,a5,a1
    2b16:	01151333          	sll	t1,a0,a7
    2b1a:	01085613          	srli	a2,a6,0x10
    2b1e:	02ce57b3          	divu	a5,t3,a2
    2b22:	01081513          	slli	a0,a6,0x10
    2b26:	8141                	srli	a0,a0,0x10
    2b28:	01035693          	srli	a3,t1,0x10
    2b2c:	02ce7e33          	remu	t3,t3,a2
    2b30:	02f507b3          	mul	a5,a0,a5
    2b34:	0e42                	slli	t3,t3,0x10
    2b36:	00de6733          	or	a4,t3,a3
    2b3a:	00f77863          	bgeu	a4,a5,2b4a <__umoddi3+0x86>
    2b3e:	9742                	add	a4,a4,a6
    2b40:	01076563          	bltu	a4,a6,2b4a <__umoddi3+0x86>
    2b44:	00f77363          	bgeu	a4,a5,2b4a <__umoddi3+0x86>
    2b48:	9742                	add	a4,a4,a6
    2b4a:	8f1d                	sub	a4,a4,a5
    2b4c:	02c756b3          	divu	a3,a4,a2
    2b50:	01031793          	slli	a5,t1,0x10
    2b54:	83c1                	srli	a5,a5,0x10
    2b56:	02c77733          	remu	a4,a4,a2
    2b5a:	02d50533          	mul	a0,a0,a3
    2b5e:	0742                	slli	a4,a4,0x10
    2b60:	8fd9                	or	a5,a5,a4
    2b62:	08a7eb63          	bltu	a5,a0,2bf8 <__umoddi3+0x134>
    2b66:	40a78533          	sub	a0,a5,a0
    2b6a:	01155533          	srl	a0,a0,a7
    2b6e:	4581                	li	a1,0
    2b70:	8082                	ret
    2b72:	e601                	bnez	a2,2b7a <__umoddi3+0xb6>
    2b74:	4705                	li	a4,1
    2b76:	02c75833          	divu	a6,a4,a2
    2b7a:	6741                	lui	a4,0x10
    2b7c:	0ee86b63          	bltu	a6,a4,2c72 <__umoddi3+0x1ae>
    2b80:	010007b7          	lui	a5,0x1000
    2b84:	2af86463          	bltu	a6,a5,2e2c <__umoddi3+0x368>
    2b88:	01885693          	srli	a3,a6,0x18
    2b8c:	47e1                	li	a5,24
    2b8e:	00001717          	auipc	a4,0x1
    2b92:	75e70713          	addi	a4,a4,1886 # 42ec <__clz_tab>
    2b96:	9736                	add	a4,a4,a3
    2b98:	2318                	lbu	a4,0(a4)
    2b9a:	02000893          	li	a7,32
    2b9e:	97ba                	add	a5,a5,a4
    2ba0:	40f888b3          	sub	a7,a7,a5
    2ba4:	1e089a63          	bnez	a7,2d98 <__umoddi3+0x2d4>
    2ba8:	01081e13          	slli	t3,a6,0x10
    2bac:	410585b3          	sub	a1,a1,a6
    2bb0:	01085613          	srli	a2,a6,0x10
    2bb4:	010e5e13          	srli	t3,t3,0x10
    2bb8:	01035713          	srli	a4,t1,0x10
    2bbc:	02c5d6b3          	divu	a3,a1,a2
    2bc0:	02c5f5b3          	remu	a1,a1,a2
    2bc4:	03c686b3          	mul	a3,a3,t3
    2bc8:	05c2                	slli	a1,a1,0x10
    2bca:	8f4d                	or	a4,a4,a1
    2bcc:	00d77763          	bgeu	a4,a3,2bda <__umoddi3+0x116>
    2bd0:	9742                	add	a4,a4,a6
    2bd2:	01076463          	bltu	a4,a6,2bda <__umoddi3+0x116>
    2bd6:	26d76a63          	bltu	a4,a3,2e4a <__umoddi3+0x386>
    2bda:	8f15                	sub	a4,a4,a3
    2bdc:	02c75533          	divu	a0,a4,a2
    2be0:	0342                	slli	t1,t1,0x10
    2be2:	01035313          	srli	t1,t1,0x10
    2be6:	02c77733          	remu	a4,a4,a2
    2bea:	03c50533          	mul	a0,a0,t3
    2bee:	0742                	slli	a4,a4,0x10
    2bf0:	006767b3          	or	a5,a4,t1
    2bf4:	00a7f863          	bgeu	a5,a0,2c04 <__umoddi3+0x140>
    2bf8:	97c2                	add	a5,a5,a6
    2bfa:	0107e563          	bltu	a5,a6,2c04 <__umoddi3+0x140>
    2bfe:	00a7f363          	bgeu	a5,a0,2c04 <__umoddi3+0x140>
    2c02:	97c2                	add	a5,a5,a6
    2c04:	40a78533          	sub	a0,a5,a0
    2c08:	01155533          	srl	a0,a0,a7
    2c0c:	4581                	li	a1,0
    2c0e:	8082                	ret
    2c10:	882a                	mv	a6,a0
    2c12:	f4d5efe3          	bltu	a1,a3,2b70 <__umoddi3+0xac>
    2c16:	67c1                	lui	a5,0x10
    2c18:	04f6e563          	bltu	a3,a5,2c62 <__umoddi3+0x19e>
    2c1c:	010007b7          	lui	a5,0x1000
    2c20:	20f6e263          	bltu	a3,a5,2e24 <__umoddi3+0x360>
    2c24:	0186d313          	srli	t1,a3,0x18
    2c28:	48e1                	li	a7,24
    2c2a:	00001797          	auipc	a5,0x1
    2c2e:	6c278793          	addi	a5,a5,1730 # 42ec <__clz_tab>
    2c32:	979a                	add	a5,a5,t1
    2c34:	0007ce03          	lbu	t3,0(a5)
    2c38:	02000313          	li	t1,32
    2c3c:	9e46                	add	t3,t3,a7
    2c3e:	41c30333          	sub	t1,t1,t3
    2c42:	04031963          	bnez	t1,2c94 <__umoddi3+0x1d0>
    2c46:	00b6e463          	bltu	a3,a1,2c4e <__umoddi3+0x18a>
    2c4a:	00c56963          	bltu	a0,a2,2c5c <__umoddi3+0x198>
    2c4e:	40c50833          	sub	a6,a0,a2
    2c52:	8d95                	sub	a1,a1,a3
    2c54:	01053733          	sltu	a4,a0,a6
    2c58:	40e58733          	sub	a4,a1,a4
    2c5c:	8542                	mv	a0,a6
    2c5e:	85ba                	mv	a1,a4
    2c60:	8082                	ret
    2c62:	0ff00793          	li	a5,255
    2c66:	1cd7fb63          	bgeu	a5,a3,2e3c <__umoddi3+0x378>
    2c6a:	0086d313          	srli	t1,a3,0x8
    2c6e:	48a1                	li	a7,8
    2c70:	bf6d                	j	2c2a <__umoddi3+0x166>
    2c72:	0ff00713          	li	a4,255
    2c76:	86c2                	mv	a3,a6
    2c78:	f1077be3          	bgeu	a4,a6,2b8e <__umoddi3+0xca>
    2c7c:	00885693          	srli	a3,a6,0x8
    2c80:	47a1                	li	a5,8
    2c82:	b731                	j	2b8e <__umoddi3+0xca>
    2c84:	010007b7          	lui	a5,0x1000
    2c88:	1af66663          	bltu	a2,a5,2e34 <__umoddi3+0x370>
    2c8c:	01865693          	srli	a3,a2,0x18
    2c90:	47e1                	li	a5,24
    2c92:	bda9                	j	2aec <__umoddi3+0x28>
    2c94:	01c657b3          	srl	a5,a2,t3
    2c98:	006696b3          	sll	a3,a3,t1
    2c9c:	8edd                	or	a3,a3,a5
    2c9e:	01c5d8b3          	srl	a7,a1,t3
    2ca2:	0106d713          	srli	a4,a3,0x10
    2ca6:	02e8deb3          	divu	t4,a7,a4
    2caa:	01069f13          	slli	t5,a3,0x10
    2cae:	01c557b3          	srl	a5,a0,t3
    2cb2:	010f5f13          	srli	t5,t5,0x10
    2cb6:	006595b3          	sll	a1,a1,t1
    2cba:	8ddd                	or	a1,a1,a5
    2cbc:	0105d813          	srli	a6,a1,0x10
    2cc0:	00661633          	sll	a2,a2,t1
    2cc4:	00651533          	sll	a0,a0,t1
    2cc8:	02e8f8b3          	remu	a7,a7,a4
    2ccc:	03df07b3          	mul	a5,t5,t4
    2cd0:	08c2                	slli	a7,a7,0x10
    2cd2:	0108e833          	or	a6,a7,a6
    2cd6:	00f87b63          	bgeu	a6,a5,2cec <__umoddi3+0x228>
    2cda:	9836                	add	a6,a6,a3
    2cdc:	fffe8893          	addi	a7,t4,-1
    2ce0:	16d86363          	bltu	a6,a3,2e46 <__umoddi3+0x382>
    2ce4:	16f87163          	bgeu	a6,a5,2e46 <__umoddi3+0x382>
    2ce8:	1ef9                	addi	t4,t4,-2
    2cea:	9836                	add	a6,a6,a3
    2cec:	40f80833          	sub	a6,a6,a5
    2cf0:	02e857b3          	divu	a5,a6,a4
    2cf4:	05c2                	slli	a1,a1,0x10
    2cf6:	81c1                	srli	a1,a1,0x10
    2cf8:	02e87833          	remu	a6,a6,a4
    2cfc:	02ff0f33          	mul	t5,t5,a5
    2d00:	01081713          	slli	a4,a6,0x10
    2d04:	8f4d                	or	a4,a4,a1
    2d06:	01e77b63          	bgeu	a4,t5,2d1c <__umoddi3+0x258>
    2d0a:	9736                	add	a4,a4,a3
    2d0c:	fff78593          	addi	a1,a5,-1 # ffffff <_data_lma+0xffbc13>
    2d10:	12d76963          	bltu	a4,a3,2e42 <__umoddi3+0x37e>
    2d14:	13e77763          	bgeu	a4,t5,2e42 <__umoddi3+0x37e>
    2d18:	17f9                	addi	a5,a5,-2
    2d1a:	9736                	add	a4,a4,a3
    2d1c:	0ec2                	slli	t4,t4,0x10
    2d1e:	62c1                	lui	t0,0x10
    2d20:	00feeeb3          	or	t4,t4,a5
    2d24:	fff28813          	addi	a6,t0,-1 # ffff <_data_lma+0xbc13>
    2d28:	010ef8b3          	and	a7,t4,a6
    2d2c:	01065593          	srli	a1,a2,0x10
    2d30:	010ede93          	srli	t4,t4,0x10
    2d34:	01067833          	and	a6,a2,a6
    2d38:	03088fb3          	mul	t6,a7,a6
    2d3c:	41e70733          	sub	a4,a4,t5
    2d40:	030e8833          	mul	a6,t4,a6
    2d44:	010fd793          	srli	a5,t6,0x10
    2d48:	02b888b3          	mul	a7,a7,a1
    2d4c:	98c2                	add	a7,a7,a6
    2d4e:	97c6                	add	a5,a5,a7
    2d50:	02be8eb3          	mul	t4,t4,a1
    2d54:	0107f363          	bgeu	a5,a6,2d5a <__umoddi3+0x296>
    2d58:	9e96                	add	t4,t4,t0
    2d5a:	6841                	lui	a6,0x10
    2d5c:	187d                	addi	a6,a6,-1
    2d5e:	0107d593          	srli	a1,a5,0x10
    2d62:	0107f7b3          	and	a5,a5,a6
    2d66:	07c2                	slli	a5,a5,0x10
    2d68:	010fffb3          	and	t6,t6,a6
    2d6c:	95f6                	add	a1,a1,t4
    2d6e:	97fe                	add	a5,a5,t6
    2d70:	0ab76263          	bltu	a4,a1,2e14 <__umoddi3+0x350>
    2d74:	08b70e63          	beq	a4,a1,2e10 <__umoddi3+0x34c>
    2d78:	40f507b3          	sub	a5,a0,a5
    2d7c:	00f53533          	sltu	a0,a0,a5
    2d80:	40b705b3          	sub	a1,a4,a1
    2d84:	8d89                	sub	a1,a1,a0
    2d86:	01c59e33          	sll	t3,a1,t3
    2d8a:	0067d533          	srl	a0,a5,t1
    2d8e:	00ae6533          	or	a0,t3,a0
    2d92:	0065d5b3          	srl	a1,a1,t1
    2d96:	8082                	ret
    2d98:	01181833          	sll	a6,a6,a7
    2d9c:	00f5d733          	srl	a4,a1,a5
    2da0:	01085613          	srli	a2,a6,0x10
    2da4:	02c756b3          	divu	a3,a4,a2
    2da8:	01081e13          	slli	t3,a6,0x10
    2dac:	00f557b3          	srl	a5,a0,a5
    2db0:	010e5e13          	srli	t3,t3,0x10
    2db4:	011595b3          	sll	a1,a1,a7
    2db8:	8ddd                	or	a1,a1,a5
    2dba:	0105de93          	srli	t4,a1,0x10
    2dbe:	01151333          	sll	t1,a0,a7
    2dc2:	02c77733          	remu	a4,a4,a2
    2dc6:	02de07b3          	mul	a5,t3,a3
    2dca:	01071693          	slli	a3,a4,0x10
    2dce:	01d6e6b3          	or	a3,a3,t4
    2dd2:	00f6f863          	bgeu	a3,a5,2de2 <__umoddi3+0x31e>
    2dd6:	96c2                	add	a3,a3,a6
    2dd8:	0106e563          	bltu	a3,a6,2de2 <__umoddi3+0x31e>
    2ddc:	00f6f363          	bgeu	a3,a5,2de2 <__umoddi3+0x31e>
    2de0:	96c2                	add	a3,a3,a6
    2de2:	8e9d                	sub	a3,a3,a5
    2de4:	02c6d733          	divu	a4,a3,a2
    2de8:	01059793          	slli	a5,a1,0x10
    2dec:	83c1                	srli	a5,a5,0x10
    2dee:	02c6f6b3          	remu	a3,a3,a2
    2df2:	02ee0733          	mul	a4,t3,a4
    2df6:	01069593          	slli	a1,a3,0x10
    2dfa:	8ddd                	or	a1,a1,a5
    2dfc:	00e5f863          	bgeu	a1,a4,2e0c <__umoddi3+0x348>
    2e00:	95c2                	add	a1,a1,a6
    2e02:	0105e563          	bltu	a1,a6,2e0c <__umoddi3+0x348>
    2e06:	00e5f363          	bgeu	a1,a4,2e0c <__umoddi3+0x348>
    2e0a:	95c2                	add	a1,a1,a6
    2e0c:	8d99                	sub	a1,a1,a4
    2e0e:	b36d                	j	2bb8 <__umoddi3+0xf4>
    2e10:	f6f574e3          	bgeu	a0,a5,2d78 <__umoddi3+0x2b4>
    2e14:	40c78633          	sub	a2,a5,a2
    2e18:	00c7b7b3          	sltu	a5,a5,a2
    2e1c:	97b6                	add	a5,a5,a3
    2e1e:	8d9d                	sub	a1,a1,a5
    2e20:	87b2                	mv	a5,a2
    2e22:	bf99                	j	2d78 <__umoddi3+0x2b4>
    2e24:	0106d313          	srli	t1,a3,0x10
    2e28:	48c1                	li	a7,16
    2e2a:	b501                	j	2c2a <__umoddi3+0x166>
    2e2c:	01085693          	srli	a3,a6,0x10
    2e30:	47c1                	li	a5,16
    2e32:	bbb1                	j	2b8e <__umoddi3+0xca>
    2e34:	01065693          	srli	a3,a2,0x10
    2e38:	47c1                	li	a5,16
    2e3a:	b94d                	j	2aec <__umoddi3+0x28>
    2e3c:	8336                	mv	t1,a3
    2e3e:	4881                	li	a7,0
    2e40:	b3ed                	j	2c2a <__umoddi3+0x166>
    2e42:	87ae                	mv	a5,a1
    2e44:	bde1                	j	2d1c <__umoddi3+0x258>
    2e46:	8ec6                	mv	t4,a7
    2e48:	b555                	j	2cec <__umoddi3+0x228>
    2e4a:	9742                	add	a4,a4,a6
    2e4c:	b379                	j	2bda <__umoddi3+0x116>

00002e4e <__ledf2>:
    2e4e:	0145d713          	srli	a4,a1,0x14
    2e52:	001007b7          	lui	a5,0x100
    2e56:	17fd                	addi	a5,a5,-1
    2e58:	0146d813          	srli	a6,a3,0x14
    2e5c:	7ff77713          	andi	a4,a4,2047
    2e60:	7ff00893          	li	a7,2047
    2e64:	00b7fe33          	and	t3,a5,a1
    2e68:	8eaa                	mv	t4,a0
    2e6a:	8ff5                	and	a5,a5,a3
    2e6c:	81fd                	srli	a1,a1,0x1f
    2e6e:	8f32                	mv	t5,a2
    2e70:	7ff87813          	andi	a6,a6,2047
    2e74:	82fd                	srli	a3,a3,0x1f
    2e76:	03170e63          	beq	a4,a7,2eb2 <__ledf2+0x64>
    2e7a:	01180d63          	beq	a6,a7,2e94 <__ledf2+0x46>
    2e7e:	e329                	bnez	a4,2ec0 <__ledf2+0x72>
    2e80:	00ae68b3          	or	a7,t3,a0
    2e84:	00081f63          	bnez	a6,2ea2 <__ledf2+0x54>
    2e88:	8e5d                	or	a2,a2,a5
    2e8a:	ee01                	bnez	a2,2ea2 <__ledf2+0x54>
    2e8c:	4301                	li	t1,0
    2e8e:	04088c63          	beqz	a7,2ee6 <__ledf2+0x98>
    2e92:	a821                	j	2eaa <__ledf2+0x5c>
    2e94:	00c7e8b3          	or	a7,a5,a2
    2e98:	4309                	li	t1,2
    2e9a:	04089663          	bnez	a7,2ee6 <__ledf2+0x98>
    2e9e:	d36d                	beqz	a4,2e80 <__ledf2+0x32>
    2ea0:	a005                	j	2ec0 <__ledf2+0x72>
    2ea2:	04088463          	beqz	a7,2eea <__ledf2+0x9c>
    2ea6:	02d58563          	beq	a1,a3,2ed0 <__ledf2+0x82>
    2eaa:	4305                	li	t1,1
    2eac:	cd8d                	beqz	a1,2ee6 <__ledf2+0x98>
    2eae:	537d                	li	t1,-1
    2eb0:	a81d                	j	2ee6 <__ledf2+0x98>
    2eb2:	00ae68b3          	or	a7,t3,a0
    2eb6:	4309                	li	t1,2
    2eb8:	02089763          	bnez	a7,2ee6 <__ledf2+0x98>
    2ebc:	02e80a63          	beq	a6,a4,2ef0 <__ledf2+0xa2>
    2ec0:	00081463          	bnez	a6,2ec8 <__ledf2+0x7a>
    2ec4:	8e5d                	or	a2,a2,a5
    2ec6:	d275                	beqz	a2,2eaa <__ledf2+0x5c>
    2ec8:	fed591e3          	bne	a1,a3,2eaa <__ledf2+0x5c>
    2ecc:	fce84fe3          	blt	a6,a4,2eaa <__ledf2+0x5c>
    2ed0:	01074963          	blt	a4,a6,2ee2 <__ledf2+0x94>
    2ed4:	fdc7ebe3          	bltu	a5,t3,2eaa <__ledf2+0x5c>
    2ed8:	00fe0f63          	beq	t3,a5,2ef6 <__ledf2+0xa8>
    2edc:	4301                	li	t1,0
    2ede:	00fe7463          	bgeu	t3,a5,2ee6 <__ledf2+0x98>
    2ee2:	d5f1                	beqz	a1,2eae <__ledf2+0x60>
    2ee4:	4305                	li	t1,1
    2ee6:	851a                	mv	a0,t1
    2ee8:	8082                	ret
    2eea:	feed                	bnez	a3,2ee4 <__ledf2+0x96>
    2eec:	537d                	li	t1,-1
    2eee:	bfe5                	j	2ee6 <__ledf2+0x98>
    2ef0:	8e5d                	or	a2,a2,a5
    2ef2:	da79                	beqz	a2,2ec8 <__ledf2+0x7a>
    2ef4:	bfcd                	j	2ee6 <__ledf2+0x98>
    2ef6:	fbdf6ae3          	bltu	t5,t4,2eaa <__ledf2+0x5c>
    2efa:	4301                	li	t1,0
    2efc:	ffeef5e3          	bgeu	t4,t5,2ee6 <__ledf2+0x98>
    2f00:	f1f5                	bnez	a1,2ee4 <__ledf2+0x96>
    2f02:	b775                	j	2eae <__ledf2+0x60>

00002f04 <__muldf3>:
    2f04:	7139                	addi	sp,sp,-64
    2f06:	d84a                	sw	s2,48(sp)
    2f08:	0145d913          	srli	s2,a1,0x14
    2f0c:	d64e                	sw	s3,44(sp)
    2f0e:	d452                	sw	s4,40(sp)
    2f10:	d256                	sw	s5,36(sp)
    2f12:	00c59993          	slli	s3,a1,0xc
    2f16:	de06                	sw	ra,60(sp)
    2f18:	dc22                	sw	s0,56(sp)
    2f1a:	da26                	sw	s1,52(sp)
    2f1c:	d05a                	sw	s6,32(sp)
    2f1e:	ce5e                	sw	s7,28(sp)
    2f20:	7ff97913          	andi	s2,s2,2047
    2f24:	8a2a                	mv	s4,a0
    2f26:	00c9d993          	srli	s3,s3,0xc
    2f2a:	01f5da93          	srli	s5,a1,0x1f
    2f2e:	0e090d63          	beqz	s2,3028 <__muldf3+0x124>
    2f32:	7ff00793          	li	a5,2047
    2f36:	18f90663          	beq	s2,a5,30c2 <__muldf3+0x1be>
    2f3a:	01d55413          	srli	s0,a0,0x1d
    2f3e:	098e                	slli	s3,s3,0x3
    2f40:	013469b3          	or	s3,s0,s3
    2f44:	00800437          	lui	s0,0x800
    2f48:	0089e433          	or	s0,s3,s0
    2f4c:	00351493          	slli	s1,a0,0x3
    2f50:	c0190913          	addi	s2,s2,-1023
    2f54:	4981                	li	s3,0
    2f56:	4b81                	li	s7,0
    2f58:	0146d713          	srli	a4,a3,0x14
    2f5c:	00c69a13          	slli	s4,a3,0xc
    2f60:	7ff77713          	andi	a4,a4,2047
    2f64:	85b2                	mv	a1,a2
    2f66:	00ca5a13          	srli	s4,s4,0xc
    2f6a:	01f6db13          	srli	s6,a3,0x1f
    2f6e:	10070b63          	beqz	a4,3084 <__muldf3+0x180>
    2f72:	7ff00793          	li	a5,2047
    2f76:	04f70363          	beq	a4,a5,2fbc <__muldf3+0xb8>
    2f7a:	01d65793          	srli	a5,a2,0x1d
    2f7e:	0a0e                	slli	s4,s4,0x3
    2f80:	0147ea33          	or	s4,a5,s4
    2f84:	c0170713          	addi	a4,a4,-1023
    2f88:	008007b7          	lui	a5,0x800
    2f8c:	00fa67b3          	or	a5,s4,a5
    2f90:	00361593          	slli	a1,a2,0x3
    2f94:	993a                	add	s2,s2,a4
    2f96:	4881                	li	a7,0
    2f98:	016ac733          	xor	a4,s5,s6
    2f9c:	46bd                	li	a3,15
    2f9e:	853a                	mv	a0,a4
    2fa0:	00190813          	addi	a6,s2,1
    2fa4:	1736e863          	bltu	a3,s3,3114 <__muldf3+0x210>
    2fa8:	00001617          	auipc	a2,0x1
    2fac:	30460613          	addi	a2,a2,772 # 42ac <MySerNumInfo+0x20>
    2fb0:	098a                	slli	s3,s3,0x2
    2fb2:	99b2                	add	s3,s3,a2
    2fb4:	0009a683          	lw	a3,0(s3)
    2fb8:	96b2                	add	a3,a3,a2
    2fba:	8682                	jr	a3
    2fbc:	00ca67b3          	or	a5,s4,a2
    2fc0:	7ff90913          	addi	s2,s2,2047
    2fc4:	12079963          	bnez	a5,30f6 <__muldf3+0x1f2>
    2fc8:	0029e993          	ori	s3,s3,2
    2fcc:	4581                	li	a1,0
    2fce:	4889                	li	a7,2
    2fd0:	b7e1                	j	2f98 <__muldf3+0x94>
    2fd2:	4701                	li	a4,0
    2fd4:	7ff00793          	li	a5,2047
    2fd8:	00080437          	lui	s0,0x80
    2fdc:	4481                	li	s1,0
    2fde:	0432                	slli	s0,s0,0xc
    2fe0:	07d2                	slli	a5,a5,0x14
    2fe2:	8031                	srli	s0,s0,0xc
    2fe4:	077e                	slli	a4,a4,0x1f
    2fe6:	8c5d                	or	s0,s0,a5
    2fe8:	8c59                	or	s0,s0,a4
    2fea:	85a2                	mv	a1,s0
    2fec:	50f2                	lw	ra,60(sp)
    2fee:	5462                	lw	s0,56(sp)
    2ff0:	8526                	mv	a0,s1
    2ff2:	5942                	lw	s2,48(sp)
    2ff4:	54d2                	lw	s1,52(sp)
    2ff6:	59b2                	lw	s3,44(sp)
    2ff8:	5a22                	lw	s4,40(sp)
    2ffa:	5a92                	lw	s5,36(sp)
    2ffc:	5b02                	lw	s6,32(sp)
    2ffe:	4bf2                	lw	s7,28(sp)
    3000:	6121                	addi	sp,sp,64
    3002:	8082                	ret
    3004:	855a                	mv	a0,s6
    3006:	843e                	mv	s0,a5
    3008:	84ae                	mv	s1,a1
    300a:	8bc6                	mv	s7,a7
    300c:	4789                	li	a5,2
    300e:	0efb8d63          	beq	s7,a5,3108 <__muldf3+0x204>
    3012:	478d                	li	a5,3
    3014:	fafb8fe3          	beq	s7,a5,2fd2 <__muldf3+0xce>
    3018:	4785                	li	a5,1
    301a:	872a                	mv	a4,a0
    301c:	38fb9e63          	bne	s7,a5,33b8 <__muldf3+0x4b4>
    3020:	4781                	li	a5,0
    3022:	4401                	li	s0,0
    3024:	4481                	li	s1,0
    3026:	bf65                	j	2fde <__muldf3+0xda>
    3028:	00a9e433          	or	s0,s3,a0
    302c:	c061                	beqz	s0,30ec <__muldf3+0x1e8>
    302e:	c636                	sw	a3,12(sp)
    3030:	c432                	sw	a2,8(sp)
    3032:	2a098c63          	beqz	s3,32ea <__muldf3+0x3e6>
    3036:	854e                	mv	a0,s3
    3038:	52f000ef          	jal	ra,3d66 <__clzsi2>
    303c:	4622                	lw	a2,8(sp)
    303e:	46b2                	lw	a3,12(sp)
    3040:	87aa                	mv	a5,a0
    3042:	ff550713          	addi	a4,a0,-11
    3046:	4475                	li	s0,29
    3048:	ff878493          	addi	s1,a5,-8 # 7ffff8 <_data_lma+0x7fbc0c>
    304c:	8c19                	sub	s0,s0,a4
    304e:	009999b3          	sll	s3,s3,s1
    3052:	008a5433          	srl	s0,s4,s0
    3056:	01346433          	or	s0,s0,s3
    305a:	009a14b3          	sll	s1,s4,s1
    305e:	0146d713          	srli	a4,a3,0x14
    3062:	c0d00913          	li	s2,-1011
    3066:	00c69a13          	slli	s4,a3,0xc
    306a:	7ff77713          	andi	a4,a4,2047
    306e:	40f90933          	sub	s2,s2,a5
    3072:	4981                	li	s3,0
    3074:	4b81                	li	s7,0
    3076:	85b2                	mv	a1,a2
    3078:	00ca5a13          	srli	s4,s4,0xc
    307c:	01f6db13          	srli	s6,a3,0x1f
    3080:	ee0719e3          	bnez	a4,2f72 <__muldf3+0x6e>
    3084:	00ca67b3          	or	a5,s4,a2
    3088:	c7b1                	beqz	a5,30d4 <__muldf3+0x1d0>
    308a:	220a0f63          	beqz	s4,32c8 <__muldf3+0x3c4>
    308e:	8552                	mv	a0,s4
    3090:	c432                	sw	a2,8(sp)
    3092:	4d5000ef          	jal	ra,3d66 <__clzsi2>
    3096:	4622                	lw	a2,8(sp)
    3098:	872a                	mv	a4,a0
    309a:	ff550693          	addi	a3,a0,-11
    309e:	47f5                	li	a5,29
    30a0:	ff870593          	addi	a1,a4,-8
    30a4:	8f95                	sub	a5,a5,a3
    30a6:	00ba1a33          	sll	s4,s4,a1
    30aa:	00f657b3          	srl	a5,a2,a5
    30ae:	0147e7b3          	or	a5,a5,s4
    30b2:	00b615b3          	sll	a1,a2,a1
    30b6:	40e90933          	sub	s2,s2,a4
    30ba:	c0d90913          	addi	s2,s2,-1011
    30be:	4881                	li	a7,0
    30c0:	bde1                	j	2f98 <__muldf3+0x94>
    30c2:	00a9e433          	or	s0,s3,a0
    30c6:	ec01                	bnez	s0,30de <__muldf3+0x1da>
    30c8:	49a1                	li	s3,8
    30ca:	4481                	li	s1,0
    30cc:	7ff00913          	li	s2,2047
    30d0:	4b89                	li	s7,2
    30d2:	b559                	j	2f58 <__muldf3+0x54>
    30d4:	0019e993          	ori	s3,s3,1
    30d8:	4581                	li	a1,0
    30da:	4885                	li	a7,1
    30dc:	bd75                	j	2f98 <__muldf3+0x94>
    30de:	844e                	mv	s0,s3
    30e0:	84aa                	mv	s1,a0
    30e2:	49b1                	li	s3,12
    30e4:	7ff00913          	li	s2,2047
    30e8:	4b8d                	li	s7,3
    30ea:	b5bd                	j	2f58 <__muldf3+0x54>
    30ec:	4991                	li	s3,4
    30ee:	4481                	li	s1,0
    30f0:	4901                	li	s2,0
    30f2:	4b85                	li	s7,1
    30f4:	b595                	j	2f58 <__muldf3+0x54>
    30f6:	0039e993          	ori	s3,s3,3
    30fa:	87d2                	mv	a5,s4
    30fc:	488d                	li	a7,3
    30fe:	bd69                	j	2f98 <__muldf3+0x94>
    3100:	4789                	li	a5,2
    3102:	8556                	mv	a0,s5
    3104:	f0fb97e3          	bne	s7,a5,3012 <__muldf3+0x10e>
    3108:	872a                	mv	a4,a0
    310a:	7ff00793          	li	a5,2047
    310e:	4401                	li	s0,0
    3110:	4481                	li	s1,0
    3112:	b5f1                	j	2fde <__muldf3+0xda>
    3114:	6ec1                	lui	t4,0x10
    3116:	fffe8613          	addi	a2,t4,-1 # ffff <_data_lma+0xbc13>
    311a:	0104d693          	srli	a3,s1,0x10
    311e:	0105de13          	srli	t3,a1,0x10
    3122:	8cf1                	and	s1,s1,a2
    3124:	8df1                	and	a1,a1,a2
    3126:	02958633          	mul	a2,a1,s1
    312a:	02b68333          	mul	t1,a3,a1
    312e:	01065893          	srli	a7,a2,0x10
    3132:	029e0533          	mul	a0,t3,s1
    3136:	951a                	add	a0,a0,t1
    3138:	98aa                	add	a7,a7,a0
    313a:	03c682b3          	mul	t0,a3,t3
    313e:	0068f363          	bgeu	a7,t1,3144 <__muldf3+0x240>
    3142:	92f6                	add	t0,t0,t4
    3144:	6fc1                	lui	t6,0x10
    3146:	ffff8313          	addi	t1,t6,-1 # ffff <_data_lma+0xbc13>
    314a:	0067f533          	and	a0,a5,t1
    314e:	0107d393          	srli	t2,a5,0x10
    3152:	0068f7b3          	and	a5,a7,t1
    3156:	07c2                	slli	a5,a5,0x10
    3158:	00667333          	and	t1,a2,t1
    315c:	933e                	add	t1,t1,a5
    315e:	02950633          	mul	a2,a0,s1
    3162:	0108d893          	srli	a7,a7,0x10
    3166:	02a687b3          	mul	a5,a3,a0
    316a:	01065f13          	srli	t5,a2,0x10
    316e:	029384b3          	mul	s1,t2,s1
    3172:	94be                	add	s1,s1,a5
    3174:	94fa                	add	s1,s1,t5
    3176:	02768eb3          	mul	t4,a3,t2
    317a:	00f4f363          	bgeu	s1,a5,3180 <__muldf3+0x27c>
    317e:	9efe                	add	t4,t4,t6
    3180:	6a41                	lui	s4,0x10
    3182:	fffa0793          	addi	a5,s4,-1 # ffff <_data_lma+0xbc13>
    3186:	01045f93          	srli	t6,s0,0x10
    318a:	00f476b3          	and	a3,s0,a5
    318e:	00f4f9b3          	and	s3,s1,a5
    3192:	8e7d                	and	a2,a2,a5
    3194:	80c1                	srli	s1,s1,0x10
    3196:	02d58433          	mul	s0,a1,a3
    319a:	09c2                	slli	s3,s3,0x10
    319c:	01d48f33          	add	t5,s1,t4
    31a0:	99b2                	add	s3,s3,a2
    31a2:	98ce                	add	a7,a7,s3
    31a4:	02de07b3          	mul	a5,t3,a3
    31a8:	01045e93          	srli	t4,s0,0x10
    31ac:	02bf85b3          	mul	a1,t6,a1
    31b0:	97ae                	add	a5,a5,a1
    31b2:	9ebe                	add	t4,t4,a5
    31b4:	03fe0e33          	mul	t3,t3,t6
    31b8:	00bef363          	bgeu	t4,a1,31be <__muldf3+0x2ba>
    31bc:	9e52                	add	t3,t3,s4
    31be:	67c1                	lui	a5,0x10
    31c0:	fff78593          	addi	a1,a5,-1 # ffff <_data_lma+0xbc13>
    31c4:	00bef633          	and	a2,t4,a1
    31c8:	8c6d                	and	s0,s0,a1
    31ca:	0642                	slli	a2,a2,0x10
    31cc:	9622                	add	a2,a2,s0
    31ce:	010ede93          	srli	t4,t4,0x10
    31d2:	02d505b3          	mul	a1,a0,a3
    31d6:	9e76                	add	t3,t3,t4
    31d8:	02af8533          	mul	a0,t6,a0
    31dc:	0105d413          	srli	s0,a1,0x10
    31e0:	02d386b3          	mul	a3,t2,a3
    31e4:	96aa                	add	a3,a3,a0
    31e6:	96a2                	add	a3,a3,s0
    31e8:	03f38fb3          	mul	t6,t2,t6
    31ec:	00a6f363          	bgeu	a3,a0,31f2 <__muldf3+0x2ee>
    31f0:	9fbe                	add	t6,t6,a5
    31f2:	6541                	lui	a0,0x10
    31f4:	157d                	addi	a0,a0,-1
    31f6:	00a6f7b3          	and	a5,a3,a0
    31fa:	07c2                	slli	a5,a5,0x10
    31fc:	8d6d                	and	a0,a0,a1
    31fe:	97aa                	add	a5,a5,a0
    3200:	005885b3          	add	a1,a7,t0
    3204:	0135b9b3          	sltu	s3,a1,s3
    3208:	97fa                	add	a5,a5,t5
    320a:	95b2                	add	a1,a1,a2
    320c:	01378433          	add	s0,a5,s3
    3210:	00c5b633          	sltu	a2,a1,a2
    3214:	01c40eb3          	add	t4,s0,t3
    3218:	00ce8533          	add	a0,t4,a2
    321c:	01343433          	sltu	s0,s0,s3
    3220:	01e7b7b3          	sltu	a5,a5,t5
    3224:	8fc1                	or	a5,a5,s0
    3226:	01cebe33          	sltu	t3,t4,t3
    322a:	0106d413          	srli	s0,a3,0x10
    322e:	00c53633          	sltu	a2,a0,a2
    3232:	943e                	add	s0,s0,a5
    3234:	00ce6633          	or	a2,t3,a2
    3238:	00959493          	slli	s1,a1,0x9
    323c:	9432                	add	s0,s0,a2
    323e:	947e                	add	s0,s0,t6
    3240:	0064e4b3          	or	s1,s1,t1
    3244:	0426                	slli	s0,s0,0x9
    3246:	01755693          	srli	a3,a0,0x17
    324a:	009034b3          	snez	s1,s1
    324e:	81dd                	srli	a1,a1,0x17
    3250:	00951793          	slli	a5,a0,0x9
    3254:	8ccd                	or	s1,s1,a1
    3256:	8c55                	or	s0,s0,a3
    3258:	8cdd                	or	s1,s1,a5
    325a:	00741793          	slli	a5,s0,0x7
    325e:	0007db63          	bgez	a5,3274 <__muldf3+0x370>
    3262:	0014d793          	srli	a5,s1,0x1
    3266:	8885                	andi	s1,s1,1
    3268:	01f41693          	slli	a3,s0,0x1f
    326c:	8cdd                	or	s1,s1,a5
    326e:	8cd5                	or	s1,s1,a3
    3270:	8005                	srli	s0,s0,0x1
    3272:	8942                	mv	s2,a6
    3274:	3ff90793          	addi	a5,s2,1023
    3278:	08f05963          	blez	a5,330a <__muldf3+0x406>
    327c:	0074f693          	andi	a3,s1,7
    3280:	ce81                	beqz	a3,3298 <__muldf3+0x394>
    3282:	00f4f693          	andi	a3,s1,15
    3286:	4611                	li	a2,4
    3288:	00c68863          	beq	a3,a2,3298 <__muldf3+0x394>
    328c:	00448693          	addi	a3,s1,4
    3290:	0096b4b3          	sltu	s1,a3,s1
    3294:	9426                	add	s0,s0,s1
    3296:	84b6                	mv	s1,a3
    3298:	00741693          	slli	a3,s0,0x7
    329c:	0006d863          	bgez	a3,32ac <__muldf3+0x3a8>
    32a0:	ff0007b7          	lui	a5,0xff000
    32a4:	17fd                	addi	a5,a5,-1
    32a6:	8c7d                	and	s0,s0,a5
    32a8:	40090793          	addi	a5,s2,1024
    32ac:	7fe00693          	li	a3,2046
    32b0:	0ef6cf63          	blt	a3,a5,33ae <__muldf3+0x4aa>
    32b4:	0034d693          	srli	a3,s1,0x3
    32b8:	01d41493          	slli	s1,s0,0x1d
    32bc:	0426                	slli	s0,s0,0x9
    32be:	8cd5                	or	s1,s1,a3
    32c0:	8031                	srli	s0,s0,0xc
    32c2:	7ff7f793          	andi	a5,a5,2047
    32c6:	bb21                	j	2fde <__muldf3+0xda>
    32c8:	8532                	mv	a0,a2
    32ca:	c432                	sw	a2,8(sp)
    32cc:	29b000ef          	jal	ra,3d66 <__clzsi2>
    32d0:	01550693          	addi	a3,a0,21 # 10015 <_data_lma+0xbc29>
    32d4:	47f1                	li	a5,28
    32d6:	02050713          	addi	a4,a0,32
    32da:	4622                	lw	a2,8(sp)
    32dc:	dcd7d1e3          	bge	a5,a3,309e <__muldf3+0x19a>
    32e0:	1561                	addi	a0,a0,-8
    32e2:	00a617b3          	sll	a5,a2,a0
    32e6:	4581                	li	a1,0
    32e8:	b3f9                	j	30b6 <__muldf3+0x1b2>
    32ea:	27d000ef          	jal	ra,3d66 <__clzsi2>
    32ee:	01550713          	addi	a4,a0,21
    32f2:	45f1                	li	a1,28
    32f4:	02050793          	addi	a5,a0,32
    32f8:	4622                	lw	a2,8(sp)
    32fa:	46b2                	lw	a3,12(sp)
    32fc:	d4e5d5e3          	bge	a1,a4,3046 <__muldf3+0x142>
    3300:	1561                	addi	a0,a0,-8
    3302:	00aa1433          	sll	s0,s4,a0
    3306:	4481                	li	s1,0
    3308:	bb99                	j	305e <__muldf3+0x15a>
    330a:	4685                	li	a3,1
    330c:	8e9d                	sub	a3,a3,a5
    330e:	e7b1                	bnez	a5,335a <__muldf3+0x456>
    3310:	41e90913          	addi	s2,s2,1054
    3314:	012497b3          	sll	a5,s1,s2
    3318:	00d4d4b3          	srl	s1,s1,a3
    331c:	01241933          	sll	s2,s0,s2
    3320:	00f037b3          	snez	a5,a5
    3324:	009964b3          	or	s1,s2,s1
    3328:	8cdd                	or	s1,s1,a5
    332a:	0074f793          	andi	a5,s1,7
    332e:	00d456b3          	srl	a3,s0,a3
    3332:	cf81                	beqz	a5,334a <__muldf3+0x446>
    3334:	00f4f793          	andi	a5,s1,15
    3338:	4611                	li	a2,4
    333a:	00c78863          	beq	a5,a2,334a <__muldf3+0x446>
    333e:	00448793          	addi	a5,s1,4
    3342:	0097b4b3          	sltu	s1,a5,s1
    3346:	96a6                	add	a3,a3,s1
    3348:	84be                	mv	s1,a5
    334a:	00869793          	slli	a5,a3,0x8
    334e:	0407d863          	bgez	a5,339e <__muldf3+0x49a>
    3352:	4785                	li	a5,1
    3354:	4401                	li	s0,0
    3356:	4481                	li	s1,0
    3358:	b159                	j	2fde <__muldf3+0xda>
    335a:	03800613          	li	a2,56
    335e:	ccd641e3          	blt	a2,a3,3020 <__muldf3+0x11c>
    3362:	467d                	li	a2,31
    3364:	fad656e3          	bge	a2,a3,3310 <__muldf3+0x40c>
    3368:	5605                	li	a2,-31
    336a:	40f607b3          	sub	a5,a2,a5
    336e:	02000593          	li	a1,32
    3372:	00f45633          	srl	a2,s0,a5
    3376:	00b68763          	beq	a3,a1,3384 <__muldf3+0x480>
    337a:	43e90913          	addi	s2,s2,1086
    337e:	012417b3          	sll	a5,s0,s2
    3382:	8cdd                	or	s1,s1,a5
    3384:	009034b3          	snez	s1,s1
    3388:	8cd1                	or	s1,s1,a2
    338a:	0074f693          	andi	a3,s1,7
    338e:	4401                	li	s0,0
    3390:	ca99                	beqz	a3,33a6 <__muldf3+0x4a2>
    3392:	00f4f793          	andi	a5,s1,15
    3396:	4611                	li	a2,4
    3398:	4681                	li	a3,0
    339a:	fac792e3          	bne	a5,a2,333e <__muldf3+0x43a>
    339e:	00969413          	slli	s0,a3,0x9
    33a2:	8031                	srli	s0,s0,0xc
    33a4:	06f6                	slli	a3,a3,0x1d
    33a6:	808d                	srli	s1,s1,0x3
    33a8:	8cd5                	or	s1,s1,a3
    33aa:	4781                	li	a5,0
    33ac:	b90d                	j	2fde <__muldf3+0xda>
    33ae:	7ff00793          	li	a5,2047
    33b2:	4401                	li	s0,0
    33b4:	4481                	li	s1,0
    33b6:	b125                	j	2fde <__muldf3+0xda>
    33b8:	8942                	mv	s2,a6
    33ba:	bd6d                	j	3274 <__muldf3+0x370>

000033bc <__subdf3>:
    33bc:	00100737          	lui	a4,0x100
    33c0:	177d                	addi	a4,a4,-1
    33c2:	1101                	addi	sp,sp,-32
    33c4:	00b77333          	and	t1,a4,a1
    33c8:	0146d893          	srli	a7,a3,0x14
    33cc:	8f75                	and	a4,a4,a3
    33ce:	01d65e93          	srli	t4,a2,0x1d
    33d2:	cc22                	sw	s0,24(sp)
    33d4:	ca26                	sw	s1,20(sp)
    33d6:	030e                	slli	t1,t1,0x3
    33d8:	0145d493          	srli	s1,a1,0x14
    33dc:	01d55793          	srli	a5,a0,0x1d
    33e0:	070e                	slli	a4,a4,0x3
    33e2:	ce06                	sw	ra,28(sp)
    33e4:	c84a                	sw	s2,16(sp)
    33e6:	c64e                	sw	s3,12(sp)
    33e8:	7ff8f893          	andi	a7,a7,2047
    33ec:	7ff00e13          	li	t3,2047
    33f0:	00eee733          	or	a4,t4,a4
    33f4:	7ff4f493          	andi	s1,s1,2047
    33f8:	01f5d413          	srli	s0,a1,0x1f
    33fc:	0067e333          	or	t1,a5,t1
    3400:	00351f13          	slli	t5,a0,0x3
    3404:	82fd                	srli	a3,a3,0x1f
    3406:	00361e93          	slli	t4,a2,0x3
    340a:	19c88063          	beq	a7,t3,358a <__subdf3+0x1ce>
    340e:	0016c693          	xori	a3,a3,1
    3412:	411485b3          	sub	a1,s1,a7
    3416:	12d40563          	beq	s0,a3,3540 <__subdf3+0x184>
    341a:	18b05163          	blez	a1,359c <__subdf3+0x1e0>
    341e:	1a088b63          	beqz	a7,35d4 <__subdf3+0x218>
    3422:	008007b7          	lui	a5,0x800
    3426:	8f5d                	or	a4,a4,a5
    3428:	59c48063          	beq	s1,t3,39a8 <__subdf3+0x5ec>
    342c:	03800793          	li	a5,56
    3430:	34b7c363          	blt	a5,a1,3776 <__subdf3+0x3ba>
    3434:	47fd                	li	a5,31
    3436:	48b7c463          	blt	a5,a1,38be <__subdf3+0x502>
    343a:	02000793          	li	a5,32
    343e:	8f8d                	sub	a5,a5,a1
    3440:	00bed9b3          	srl	s3,t4,a1
    3444:	00f71833          	sll	a6,a4,a5
    3448:	00fe9eb3          	sll	t4,t4,a5
    344c:	01386833          	or	a6,a6,s3
    3450:	00b75733          	srl	a4,a4,a1
    3454:	01d039b3          	snez	s3,t4
    3458:	01386833          	or	a6,a6,s3
    345c:	40e30333          	sub	t1,t1,a4
    3460:	410f09b3          	sub	s3,t5,a6
    3464:	013f37b3          	sltu	a5,t5,s3
    3468:	40f30633          	sub	a2,t1,a5
    346c:	00861793          	slli	a5,a2,0x8
    3470:	2407d363          	bgez	a5,36b6 <__subdf3+0x2fa>
    3474:	00800937          	lui	s2,0x800
    3478:	197d                	addi	s2,s2,-1
    347a:	01267933          	and	s2,a2,s2
    347e:	2c090f63          	beqz	s2,375c <__subdf3+0x3a0>
    3482:	854a                	mv	a0,s2
    3484:	0e3000ef          	jal	ra,3d66 <__clzsi2>
    3488:	ff850713          	addi	a4,a0,-8
    348c:	02000793          	li	a5,32
    3490:	8f99                	sub	a5,a5,a4
    3492:	00f9d7b3          	srl	a5,s3,a5
    3496:	00e91633          	sll	a2,s2,a4
    349a:	8fd1                	or	a5,a5,a2
    349c:	00e999b3          	sll	s3,s3,a4
    34a0:	2a974463          	blt	a4,s1,3748 <__subdf3+0x38c>
    34a4:	8f05                	sub	a4,a4,s1
    34a6:	00170613          	addi	a2,a4,1 # 100001 <_data_lma+0xfbc15>
    34aa:	46fd                	li	a3,31
    34ac:	3ac6c463          	blt	a3,a2,3854 <__subdf3+0x498>
    34b0:	02000713          	li	a4,32
    34b4:	8f11                	sub	a4,a4,a2
    34b6:	00c9d6b3          	srl	a3,s3,a2
    34ba:	00e99833          	sll	a6,s3,a4
    34be:	00e79733          	sll	a4,a5,a4
    34c2:	8f55                	or	a4,a4,a3
    34c4:	01003833          	snez	a6,a6
    34c8:	010769b3          	or	s3,a4,a6
    34cc:	00c7d633          	srl	a2,a5,a2
    34d0:	4481                	li	s1,0
    34d2:	0079f793          	andi	a5,s3,7
    34d6:	cf81                	beqz	a5,34ee <__subdf3+0x132>
    34d8:	00f9f693          	andi	a3,s3,15
    34dc:	4791                	li	a5,4
    34de:	00f68863          	beq	a3,a5,34ee <__subdf3+0x132>
    34e2:	00498693          	addi	a3,s3,4
    34e6:	0136b833          	sltu	a6,a3,s3
    34ea:	9642                	add	a2,a2,a6
    34ec:	89b6                	mv	s3,a3
    34ee:	00861793          	slli	a5,a2,0x8
    34f2:	1c07d663          	bgez	a5,36be <__subdf3+0x302>
    34f6:	00148713          	addi	a4,s1,1
    34fa:	7ff00793          	li	a5,2047
    34fe:	8805                	andi	s0,s0,1
    3500:	20f70663          	beq	a4,a5,370c <__subdf3+0x350>
    3504:	ff8007b7          	lui	a5,0xff800
    3508:	17fd                	addi	a5,a5,-1
    350a:	8ff1                	and	a5,a5,a2
    350c:	01d79813          	slli	a6,a5,0x1d
    3510:	0039d993          	srli	s3,s3,0x3
    3514:	07a6                	slli	a5,a5,0x9
    3516:	01386833          	or	a6,a6,s3
    351a:	83b1                	srli	a5,a5,0xc
    351c:	7ff77713          	andi	a4,a4,2047
    3520:	00c79693          	slli	a3,a5,0xc
    3524:	0752                	slli	a4,a4,0x14
    3526:	82b1                	srli	a3,a3,0xc
    3528:	047e                	slli	s0,s0,0x1f
    352a:	8ed9                	or	a3,a3,a4
    352c:	8ec1                	or	a3,a3,s0
    352e:	40f2                	lw	ra,28(sp)
    3530:	4462                	lw	s0,24(sp)
    3532:	44d2                	lw	s1,20(sp)
    3534:	4942                	lw	s2,16(sp)
    3536:	49b2                	lw	s3,12(sp)
    3538:	8542                	mv	a0,a6
    353a:	85b6                	mv	a1,a3
    353c:	6105                	addi	sp,sp,32
    353e:	8082                	ret
    3540:	0ab05663          	blez	a1,35ec <__subdf3+0x230>
    3544:	12088a63          	beqz	a7,3678 <__subdf3+0x2bc>
    3548:	008007b7          	lui	a5,0x800
    354c:	8f5d                	or	a4,a4,a5
    354e:	2dc48663          	beq	s1,t3,381a <__subdf3+0x45e>
    3552:	03800793          	li	a5,56
    3556:	18b7c763          	blt	a5,a1,36e4 <__subdf3+0x328>
    355a:	47fd                	li	a5,31
    355c:	3cb7d163          	bge	a5,a1,391e <__subdf3+0x562>
    3560:	fe058813          	addi	a6,a1,-32
    3564:	02000793          	li	a5,32
    3568:	010759b3          	srl	s3,a4,a6
    356c:	00f58a63          	beq	a1,a5,3580 <__subdf3+0x1c4>
    3570:	04000793          	li	a5,64
    3574:	40b785b3          	sub	a1,a5,a1
    3578:	00b71733          	sll	a4,a4,a1
    357c:	00eeeeb3          	or	t4,t4,a4
    3580:	01d03833          	snez	a6,t4
    3584:	01386833          	or	a6,a6,s3
    3588:	a295                	j	36ec <__subdf3+0x330>
    358a:	01d767b3          	or	a5,a4,t4
    358e:	80148593          	addi	a1,s1,-2047
    3592:	e399                	bnez	a5,3598 <__subdf3+0x1dc>
    3594:	0016c693          	xori	a3,a3,1
    3598:	04d40a63          	beq	s0,a3,35ec <__subdf3+0x230>
    359c:	e1d1                	bnez	a1,3620 <__subdf3+0x264>
    359e:	00148793          	addi	a5,s1,1
    35a2:	7fe7f793          	andi	a5,a5,2046
    35a6:	1e079863          	bnez	a5,3796 <__subdf3+0x3da>
    35aa:	01e367b3          	or	a5,t1,t5
    35ae:	01d76833          	or	a6,a4,t4
    35b2:	16049263          	bnez	s1,3716 <__subdf3+0x35a>
    35b6:	3c078163          	beqz	a5,3978 <__subdf3+0x5bc>
    35ba:	42081563          	bnez	a6,39e4 <__subdf3+0x628>
    35be:	00351813          	slli	a6,a0,0x3
    35c2:	01d31693          	slli	a3,t1,0x1d
    35c6:	00385813          	srli	a6,a6,0x3
    35ca:	0106e833          	or	a6,a3,a6
    35ce:	00335793          	srli	a5,t1,0x3
    35d2:	a219                	j	36d8 <__subdf3+0x31c>
    35d4:	01d767b3          	or	a5,a4,t4
    35d8:	1a078463          	beqz	a5,3780 <__subdf3+0x3c4>
    35dc:	fff58793          	addi	a5,a1,-1
    35e0:	3a078a63          	beqz	a5,3994 <__subdf3+0x5d8>
    35e4:	23c58b63          	beq	a1,t3,381a <__subdf3+0x45e>
    35e8:	85be                	mv	a1,a5
    35ea:	b589                	j	342c <__subdf3+0x70>
    35ec:	1c059863          	bnez	a1,37bc <__subdf3+0x400>
    35f0:	00148693          	addi	a3,s1,1
    35f4:	7fe6f793          	andi	a5,a3,2046
    35f8:	efc1                	bnez	a5,3690 <__subdf3+0x2d4>
    35fa:	01e367b3          	or	a5,t1,t5
    35fe:	34049f63          	bnez	s1,395c <__subdf3+0x5a0>
    3602:	44078c63          	beqz	a5,3a5a <__subdf3+0x69e>
    3606:	01d767b3          	or	a5,a4,t4
    360a:	46079363          	bnez	a5,3a70 <__subdf3+0x6b4>
    360e:	050e                	slli	a0,a0,0x3
    3610:	01d31813          	slli	a6,t1,0x1d
    3614:	810d                	srli	a0,a0,0x3
    3616:	00a86833          	or	a6,a6,a0
    361a:	00335793          	srli	a5,t1,0x3
    361e:	a86d                	j	36d8 <__subdf3+0x31c>
    3620:	409885b3          	sub	a1,a7,s1
    3624:	20049663          	bnez	s1,3830 <__subdf3+0x474>
    3628:	01e367b3          	or	a5,t1,t5
    362c:	30078c63          	beqz	a5,3944 <__subdf3+0x588>
    3630:	fff58793          	addi	a5,a1,-1
    3634:	40078863          	beqz	a5,3a44 <__subdf3+0x688>
    3638:	7ff00513          	li	a0,2047
    363c:	20a58263          	beq	a1,a0,3840 <__subdf3+0x484>
    3640:	85be                	mv	a1,a5
    3642:	03800793          	li	a5,56
    3646:	2ab7c163          	blt	a5,a1,38e8 <__subdf3+0x52c>
    364a:	47fd                	li	a5,31
    364c:	3cb7c763          	blt	a5,a1,3a1a <__subdf3+0x65e>
    3650:	02000793          	li	a5,32
    3654:	8f8d                	sub	a5,a5,a1
    3656:	00f31833          	sll	a6,t1,a5
    365a:	00bf5633          	srl	a2,t5,a1
    365e:	00ff17b3          	sll	a5,t5,a5
    3662:	00c86833          	or	a6,a6,a2
    3666:	00f039b3          	snez	s3,a5
    366a:	00b35333          	srl	t1,t1,a1
    366e:	01386833          	or	a6,a6,s3
    3672:	40670733          	sub	a4,a4,t1
    3676:	acad                	j	38f0 <__subdf3+0x534>
    3678:	01d767b3          	or	a5,a4,t4
    367c:	10078263          	beqz	a5,3780 <__subdf3+0x3c4>
    3680:	fff58793          	addi	a5,a1,-1
    3684:	1e078e63          	beqz	a5,3880 <__subdf3+0x4c4>
    3688:	2dc58f63          	beq	a1,t3,3966 <__subdf3+0x5aa>
    368c:	85be                	mv	a1,a5
    368e:	b5d1                	j	3552 <__subdf3+0x196>
    3690:	7ff00793          	li	a5,2047
    3694:	06f68b63          	beq	a3,a5,370a <__subdf3+0x34e>
    3698:	9efa                	add	t4,t4,t5
    369a:	01eeb633          	sltu	a2,t4,t5
    369e:	00e307b3          	add	a5,t1,a4
    36a2:	97b2                	add	a5,a5,a2
    36a4:	01f79813          	slli	a6,a5,0x1f
    36a8:	001ede93          	srli	t4,t4,0x1
    36ac:	01d869b3          	or	s3,a6,t4
    36b0:	0017d613          	srli	a2,a5,0x1
    36b4:	84b6                	mv	s1,a3
    36b6:	0079f793          	andi	a5,s3,7
    36ba:	e0079fe3          	bnez	a5,34d8 <__subdf3+0x11c>
    36be:	01d61793          	slli	a5,a2,0x1d
    36c2:	0039d813          	srli	a6,s3,0x3
    36c6:	00f86833          	or	a6,a6,a5
    36ca:	85a6                	mv	a1,s1
    36cc:	00365793          	srli	a5,a2,0x3
    36d0:	7ff00713          	li	a4,2047
    36d4:	06e58063          	beq	a1,a4,3734 <__subdf3+0x378>
    36d8:	07b2                	slli	a5,a5,0xc
    36da:	83b1                	srli	a5,a5,0xc
    36dc:	7ff5f713          	andi	a4,a1,2047
    36e0:	8805                	andi	s0,s0,1
    36e2:	bd3d                	j	3520 <__subdf3+0x164>
    36e4:	01d76733          	or	a4,a4,t4
    36e8:	00e03833          	snez	a6,a4
    36ec:	01e809b3          	add	s3,a6,t5
    36f0:	01e9b7b3          	sltu	a5,s3,t5
    36f4:	00678633          	add	a2,a5,t1
    36f8:	00861793          	slli	a5,a2,0x8
    36fc:	fa07dde3          	bgez	a5,36b6 <__subdf3+0x2fa>
    3700:	0485                	addi	s1,s1,1
    3702:	7ff00793          	li	a5,2047
    3706:	18f49b63          	bne	s1,a5,389c <__subdf3+0x4e0>
    370a:	8805                	andi	s0,s0,1
    370c:	7ff00713          	li	a4,2047
    3710:	4781                	li	a5,0
    3712:	4801                	li	a6,0
    3714:	b531                	j	3520 <__subdf3+0x164>
    3716:	10079063          	bnez	a5,3816 <__subdf3+0x45a>
    371a:	3c080063          	beqz	a6,3ada <__subdf3+0x71e>
    371e:	00361813          	slli	a6,a2,0x3
    3722:	01d71793          	slli	a5,a4,0x1d
    3726:	00385813          	srli	a6,a6,0x3
    372a:	00f86833          	or	a6,a6,a5
    372e:	8436                	mv	s0,a3
    3730:	00375793          	srli	a5,a4,0x3
    3734:	00f867b3          	or	a5,a6,a5
    3738:	dbe9                	beqz	a5,370a <__subdf3+0x34e>
    373a:	4401                	li	s0,0
    373c:	7ff00713          	li	a4,2047
    3740:	000807b7          	lui	a5,0x80
    3744:	4801                	li	a6,0
    3746:	bbe9                	j	3520 <__subdf3+0x164>
    3748:	ff800637          	lui	a2,0xff800
    374c:	167d                	addi	a2,a2,-1
    374e:	8e7d                	and	a2,a2,a5
    3750:	0079f793          	andi	a5,s3,7
    3754:	8c99                	sub	s1,s1,a4
    3756:	d80791e3          	bnez	a5,34d8 <__subdf3+0x11c>
    375a:	b795                	j	36be <__subdf3+0x302>
    375c:	854e                	mv	a0,s3
    375e:	2521                	jal	3d66 <__clzsi2>
    3760:	01850713          	addi	a4,a0,24
    3764:	47fd                	li	a5,31
    3766:	d2e7d3e3          	bge	a5,a4,348c <__subdf3+0xd0>
    376a:	ff850613          	addi	a2,a0,-8
    376e:	00c997b3          	sll	a5,s3,a2
    3772:	4981                	li	s3,0
    3774:	b335                	j	34a0 <__subdf3+0xe4>
    3776:	01d76833          	or	a6,a4,t4
    377a:	01003833          	snez	a6,a6
    377e:	b1cd                	j	3460 <__subdf3+0xa4>
    3780:	00351813          	slli	a6,a0,0x3
    3784:	01d31793          	slli	a5,t1,0x1d
    3788:	00385813          	srli	a6,a6,0x3
    378c:	00f86833          	or	a6,a6,a5
    3790:	00335793          	srli	a5,t1,0x3
    3794:	bf35                	j	36d0 <__subdf3+0x314>
    3796:	41df09b3          	sub	s3,t5,t4
    379a:	40e30933          	sub	s2,t1,a4
    379e:	013f3633          	sltu	a2,t5,s3
    37a2:	40c90933          	sub	s2,s2,a2
    37a6:	00891793          	slli	a5,s2,0x8
    37aa:	2007ca63          	bltz	a5,39be <__subdf3+0x602>
    37ae:	0129e833          	or	a6,s3,s2
    37b2:	cc0816e3          	bnez	a6,347e <__subdf3+0xc2>
    37b6:	4781                	li	a5,0
    37b8:	4401                	li	s0,0
    37ba:	bf39                	j	36d8 <__subdf3+0x31c>
    37bc:	409885b3          	sub	a1,a7,s1
    37c0:	14048163          	beqz	s1,3902 <__subdf3+0x546>
    37c4:	008006b7          	lui	a3,0x800
    37c8:	7ff00793          	li	a5,2047
    37cc:	00d36333          	or	t1,t1,a3
    37d0:	20f88163          	beq	a7,a5,39d2 <__subdf3+0x616>
    37d4:	03800793          	li	a5,56
    37d8:	22b7cc63          	blt	a5,a1,3a10 <__subdf3+0x654>
    37dc:	47fd                	li	a5,31
    37de:	2cb7c963          	blt	a5,a1,3ab0 <__subdf3+0x6f4>
    37e2:	02000793          	li	a5,32
    37e6:	8f8d                	sub	a5,a5,a1
    37e8:	00f31833          	sll	a6,t1,a5
    37ec:	00bf56b3          	srl	a3,t5,a1
    37f0:	00ff17b3          	sll	a5,t5,a5
    37f4:	00d86833          	or	a6,a6,a3
    37f8:	00f039b3          	snez	s3,a5
    37fc:	00b35333          	srl	t1,t1,a1
    3800:	01386833          	or	a6,a6,s3
    3804:	971a                	add	a4,a4,t1
    3806:	01d809b3          	add	s3,a6,t4
    380a:	01d9b7b3          	sltu	a5,s3,t4
    380e:	00e78633          	add	a2,a5,a4
    3812:	84c6                	mv	s1,a7
    3814:	b5d5                	j	36f8 <__subdf3+0x33c>
    3816:	f20812e3          	bnez	a6,373a <__subdf3+0x37e>
    381a:	00351813          	slli	a6,a0,0x3
    381e:	01d31793          	slli	a5,t1,0x1d
    3822:	00385813          	srli	a6,a6,0x3
    3826:	00f86833          	or	a6,a6,a5
    382a:	00335793          	srli	a5,t1,0x3
    382e:	b719                	j	3734 <__subdf3+0x378>
    3830:	00800537          	lui	a0,0x800
    3834:	7ff00793          	li	a5,2047
    3838:	00a36333          	or	t1,t1,a0
    383c:	e0f893e3          	bne	a7,a5,3642 <__subdf3+0x286>
    3840:	060e                	slli	a2,a2,0x3
    3842:	01d71813          	slli	a6,a4,0x1d
    3846:	820d                	srli	a2,a2,0x3
    3848:	00c86833          	or	a6,a6,a2
    384c:	00375793          	srli	a5,a4,0x3
    3850:	8436                	mv	s0,a3
    3852:	b5cd                	j	3734 <__subdf3+0x378>
    3854:	1705                	addi	a4,a4,-31
    3856:	02000693          	li	a3,32
    385a:	00e7d733          	srl	a4,a5,a4
    385e:	00d60a63          	beq	a2,a3,3872 <__subdf3+0x4b6>
    3862:	04000693          	li	a3,64
    3866:	40c68633          	sub	a2,a3,a2
    386a:	00c79633          	sll	a2,a5,a2
    386e:	00c9e9b3          	or	s3,s3,a2
    3872:	01303833          	snez	a6,s3
    3876:	00e869b3          	or	s3,a6,a4
    387a:	4601                	li	a2,0
    387c:	4481                	li	s1,0
    387e:	bd25                	j	36b6 <__subdf3+0x2fa>
    3880:	01df09b3          	add	s3,t5,t4
    3884:	00e307b3          	add	a5,t1,a4
    3888:	01e9bf33          	sltu	t5,s3,t5
    388c:	01e78633          	add	a2,a5,t5
    3890:	00861793          	slli	a5,a2,0x8
    3894:	4485                	li	s1,1
    3896:	e207d0e3          	bgez	a5,36b6 <__subdf3+0x2fa>
    389a:	4489                	li	s1,2
    389c:	ff8007b7          	lui	a5,0xff800
    38a0:	17fd                	addi	a5,a5,-1
    38a2:	8ff1                	and	a5,a5,a2
    38a4:	0019d713          	srli	a4,s3,0x1
    38a8:	0019f813          	andi	a6,s3,1
    38ac:	01076833          	or	a6,a4,a6
    38b0:	01f79993          	slli	s3,a5,0x1f
    38b4:	0109e9b3          	or	s3,s3,a6
    38b8:	0017d613          	srli	a2,a5,0x1
    38bc:	b919                	j	34d2 <__subdf3+0x116>
    38be:	fe058813          	addi	a6,a1,-32
    38c2:	02000793          	li	a5,32
    38c6:	010759b3          	srl	s3,a4,a6
    38ca:	00f58a63          	beq	a1,a5,38de <__subdf3+0x522>
    38ce:	04000793          	li	a5,64
    38d2:	40b785b3          	sub	a1,a5,a1
    38d6:	00b71733          	sll	a4,a4,a1
    38da:	00eeeeb3          	or	t4,t4,a4
    38de:	01d03833          	snez	a6,t4
    38e2:	01386833          	or	a6,a6,s3
    38e6:	bead                	j	3460 <__subdf3+0xa4>
    38e8:	01e36333          	or	t1,t1,t5
    38ec:	00603833          	snez	a6,t1
    38f0:	410e89b3          	sub	s3,t4,a6
    38f4:	013eb7b3          	sltu	a5,t4,s3
    38f8:	40f70633          	sub	a2,a4,a5
    38fc:	84c6                	mv	s1,a7
    38fe:	8436                	mv	s0,a3
    3900:	b6b5                	j	346c <__subdf3+0xb0>
    3902:	01e367b3          	or	a5,t1,t5
    3906:	18078763          	beqz	a5,3a94 <__subdf3+0x6d8>
    390a:	fff58793          	addi	a5,a1,-1
    390e:	1c078c63          	beqz	a5,3ae6 <__subdf3+0x72a>
    3912:	7ff00693          	li	a3,2047
    3916:	0ad58e63          	beq	a1,a3,39d2 <__subdf3+0x616>
    391a:	85be                	mv	a1,a5
    391c:	bd65                	j	37d4 <__subdf3+0x418>
    391e:	02000793          	li	a5,32
    3922:	8f8d                	sub	a5,a5,a1
    3924:	00bed9b3          	srl	s3,t4,a1
    3928:	00f71833          	sll	a6,a4,a5
    392c:	00fe9eb3          	sll	t4,t4,a5
    3930:	01386833          	or	a6,a6,s3
    3934:	00b75733          	srl	a4,a4,a1
    3938:	01d039b3          	snez	s3,t4
    393c:	01386833          	or	a6,a6,s3
    3940:	933a                	add	t1,t1,a4
    3942:	b36d                	j	36ec <__subdf3+0x330>
    3944:	00361813          	slli	a6,a2,0x3
    3948:	01d71793          	slli	a5,a4,0x1d
    394c:	00385813          	srli	a6,a6,0x3
    3950:	0107e833          	or	a6,a5,a6
    3954:	8436                	mv	s0,a3
    3956:	00375793          	srli	a5,a4,0x3
    395a:	bb9d                	j	36d0 <__subdf3+0x314>
    395c:	cbbd                	beqz	a5,39d2 <__subdf3+0x616>
    395e:	01d76733          	or	a4,a4,t4
    3962:	dc071ce3          	bnez	a4,373a <__subdf3+0x37e>
    3966:	050e                	slli	a0,a0,0x3
    3968:	01d31813          	slli	a6,t1,0x1d
    396c:	810d                	srli	a0,a0,0x3
    396e:	00a86833          	or	a6,a6,a0
    3972:	00335793          	srli	a5,t1,0x3
    3976:	bb7d                	j	3734 <__subdf3+0x378>
    3978:	e2080fe3          	beqz	a6,37b6 <__subdf3+0x3fa>
    397c:	00361813          	slli	a6,a2,0x3
    3980:	01d71793          	slli	a5,a4,0x1d
    3984:	00385813          	srli	a6,a6,0x3
    3988:	00f86833          	or	a6,a6,a5
    398c:	8436                	mv	s0,a3
    398e:	00375793          	srli	a5,a4,0x3
    3992:	b399                	j	36d8 <__subdf3+0x31c>
    3994:	41df09b3          	sub	s3,t5,t4
    3998:	40e307b3          	sub	a5,t1,a4
    399c:	013f3f33          	sltu	t5,t5,s3
    39a0:	41e78633          	sub	a2,a5,t5
    39a4:	4485                	li	s1,1
    39a6:	b4d9                	j	346c <__subdf3+0xb0>
    39a8:	00351813          	slli	a6,a0,0x3
    39ac:	01d31693          	slli	a3,t1,0x1d
    39b0:	00385813          	srli	a6,a6,0x3
    39b4:	0106e833          	or	a6,a3,a6
    39b8:	00335793          	srli	a5,t1,0x3
    39bc:	bba5                	j	3734 <__subdf3+0x378>
    39be:	41ee89b3          	sub	s3,t4,t5
    39c2:	40670633          	sub	a2,a4,t1
    39c6:	013eb933          	sltu	s2,t4,s3
    39ca:	41260933          	sub	s2,a2,s2
    39ce:	8436                	mv	s0,a3
    39d0:	b47d                	j	347e <__subdf3+0xc2>
    39d2:	060e                	slli	a2,a2,0x3
    39d4:	01d71813          	slli	a6,a4,0x1d
    39d8:	820d                	srli	a2,a2,0x3
    39da:	00c86833          	or	a6,a6,a2
    39de:	00375793          	srli	a5,a4,0x3
    39e2:	bb89                	j	3734 <__subdf3+0x378>
    39e4:	41df09b3          	sub	s3,t5,t4
    39e8:	40e307b3          	sub	a5,t1,a4
    39ec:	013f3633          	sltu	a2,t5,s3
    39f0:	40c78633          	sub	a2,a5,a2
    39f4:	00861793          	slli	a5,a2,0x8
    39f8:	0a07d763          	bgez	a5,3aa6 <__subdf3+0x6ea>
    39fc:	41ee89b3          	sub	s3,t4,t5
    3a00:	406707b3          	sub	a5,a4,t1
    3a04:	013ebeb3          	sltu	t4,t4,s3
    3a08:	41d78633          	sub	a2,a5,t4
    3a0c:	8436                	mv	s0,a3
    3a0e:	b4d1                	j	34d2 <__subdf3+0x116>
    3a10:	01e36333          	or	t1,t1,t5
    3a14:	00603833          	snez	a6,t1
    3a18:	b3fd                	j	3806 <__subdf3+0x44a>
    3a1a:	fe058813          	addi	a6,a1,-32
    3a1e:	02000793          	li	a5,32
    3a22:	010359b3          	srl	s3,t1,a6
    3a26:	00f58a63          	beq	a1,a5,3a3a <__subdf3+0x67e>
    3a2a:	04000793          	li	a5,64
    3a2e:	40b785b3          	sub	a1,a5,a1
    3a32:	00b31333          	sll	t1,t1,a1
    3a36:	006f6f33          	or	t5,t5,t1
    3a3a:	01e03833          	snez	a6,t5
    3a3e:	01386833          	or	a6,a6,s3
    3a42:	b57d                	j	38f0 <__subdf3+0x534>
    3a44:	41ee89b3          	sub	s3,t4,t5
    3a48:	406707b3          	sub	a5,a4,t1
    3a4c:	013ebeb3          	sltu	t4,t4,s3
    3a50:	41d78633          	sub	a2,a5,t4
    3a54:	8436                	mv	s0,a3
    3a56:	4485                	li	s1,1
    3a58:	bc11                	j	346c <__subdf3+0xb0>
    3a5a:	00361813          	slli	a6,a2,0x3
    3a5e:	01d71793          	slli	a5,a4,0x1d
    3a62:	00385813          	srli	a6,a6,0x3
    3a66:	00f86833          	or	a6,a6,a5
    3a6a:	00375793          	srli	a5,a4,0x3
    3a6e:	b1ad                	j	36d8 <__subdf3+0x31c>
    3a70:	01df09b3          	add	s3,t5,t4
    3a74:	00e307b3          	add	a5,t1,a4
    3a78:	01e9bf33          	sltu	t5,s3,t5
    3a7c:	01e78633          	add	a2,a5,t5
    3a80:	00861793          	slli	a5,a2,0x8
    3a84:	c207d9e3          	bgez	a5,36b6 <__subdf3+0x2fa>
    3a88:	ff8007b7          	lui	a5,0xff800
    3a8c:	17fd                	addi	a5,a5,-1
    3a8e:	8e7d                	and	a2,a2,a5
    3a90:	4485                	li	s1,1
    3a92:	b115                	j	36b6 <__subdf3+0x2fa>
    3a94:	060e                	slli	a2,a2,0x3
    3a96:	01d71813          	slli	a6,a4,0x1d
    3a9a:	820d                	srli	a2,a2,0x3
    3a9c:	00c86833          	or	a6,a6,a2
    3aa0:	00375793          	srli	a5,a4,0x3
    3aa4:	b135                	j	36d0 <__subdf3+0x314>
    3aa6:	00c9e833          	or	a6,s3,a2
    3aaa:	d00806e3          	beqz	a6,37b6 <__subdf3+0x3fa>
    3aae:	b121                	j	36b6 <__subdf3+0x2fa>
    3ab0:	fe058813          	addi	a6,a1,-32
    3ab4:	02000793          	li	a5,32
    3ab8:	010359b3          	srl	s3,t1,a6
    3abc:	00f58a63          	beq	a1,a5,3ad0 <__subdf3+0x714>
    3ac0:	04000793          	li	a5,64
    3ac4:	40b785b3          	sub	a1,a5,a1
    3ac8:	00b31333          	sll	t1,t1,a1
    3acc:	006f6f33          	or	t5,t5,t1
    3ad0:	01e03833          	snez	a6,t5
    3ad4:	01386833          	or	a6,a6,s3
    3ad8:	b33d                	j	3806 <__subdf3+0x44a>
    3ada:	4401                	li	s0,0
    3adc:	7ff00713          	li	a4,2047
    3ae0:	000807b7          	lui	a5,0x80
    3ae4:	bc35                	j	3520 <__subdf3+0x164>
    3ae6:	01df09b3          	add	s3,t5,t4
    3aea:	00e307b3          	add	a5,t1,a4
    3aee:	01d9beb3          	sltu	t4,s3,t4
    3af2:	01d78633          	add	a2,a5,t4
    3af6:	bb69                	j	3890 <__subdf3+0x4d4>

00003af8 <__fixdfdi>:
    3af8:	00100737          	lui	a4,0x100
    3afc:	0145d793          	srli	a5,a1,0x14
    3b00:	fff70693          	addi	a3,a4,-1 # fffff <_data_lma+0xfbc13>
    3b04:	7ff7f793          	andi	a5,a5,2047
    3b08:	3fe00813          	li	a6,1022
    3b0c:	8eed                	and	a3,a3,a1
    3b0e:	01f5d613          	srli	a2,a1,0x1f
    3b12:	02f85363          	bge	a6,a5,3b38 <__fixdfdi+0x40>
    3b16:	43d00593          	li	a1,1085
    3b1a:	02f5d263          	bge	a1,a5,3b3e <__fixdfdi+0x46>
    3b1e:	4585                	li	a1,1
    3b20:	8d91                	sub	a1,a1,a2
    3b22:	40b00533          	neg	a0,a1
    3b26:	41f5d613          	srai	a2,a1,0x1f
    3b2a:	800005b7          	lui	a1,0x80000
    3b2e:	00a037b3          	snez	a5,a0
    3b32:	8d91                	sub	a1,a1,a2
    3b34:	8d9d                	sub	a1,a1,a5
    3b36:	8082                	ret
    3b38:	4501                	li	a0,0
    3b3a:	4581                	li	a1,0
    3b3c:	8082                	ret
    3b3e:	43200813          	li	a6,1074
    3b42:	00e6e5b3          	or	a1,a3,a4
    3b46:	02f85463          	bge	a6,a5,3b6e <__fixdfdi+0x76>
    3b4a:	bad78713          	addi	a4,a5,-1107 # 7fbad <_data_lma+0x7b7c1>
    3b4e:	bcd78793          	addi	a5,a5,-1075
    3b52:	04074563          	bltz	a4,3b9c <__fixdfdi+0xa4>
    3b56:	00e515b3          	sll	a1,a0,a4
    3b5a:	4501                	li	a0,0
    3b5c:	d265                	beqz	a2,3b3c <__fixdfdi+0x44>
    3b5e:	40a00533          	neg	a0,a0
    3b62:	00a037b3          	snez	a5,a0
    3b66:	40b005b3          	neg	a1,a1
    3b6a:	8d9d                	sub	a1,a1,a5
    3b6c:	8082                	ret
    3b6e:	43300693          	li	a3,1075
    3b72:	8e9d                	sub	a3,a3,a5
    3b74:	477d                	li	a4,31
    3b76:	00d74c63          	blt	a4,a3,3b8e <__fixdfdi+0x96>
    3b7a:	bed78713          	addi	a4,a5,-1043
    3b7e:	00e59733          	sll	a4,a1,a4
    3b82:	00d55533          	srl	a0,a0,a3
    3b86:	8d59                	or	a0,a0,a4
    3b88:	00d5d5b3          	srl	a1,a1,a3
    3b8c:	bfc1                	j	3b5c <__fixdfdi+0x64>
    3b8e:	41300513          	li	a0,1043
    3b92:	8d1d                	sub	a0,a0,a5
    3b94:	00a5d533          	srl	a0,a1,a0
    3b98:	4581                	li	a1,0
    3b9a:	b7c9                	j	3b5c <__fixdfdi+0x64>
    3b9c:	46fd                	li	a3,31
    3b9e:	00155713          	srli	a4,a0,0x1
    3ba2:	8e9d                	sub	a3,a3,a5
    3ba4:	00d75733          	srl	a4,a4,a3
    3ba8:	00f595b3          	sll	a1,a1,a5
    3bac:	8dd9                	or	a1,a1,a4
    3bae:	00f51533          	sll	a0,a0,a5
    3bb2:	b76d                	j	3b5c <__fixdfdi+0x64>

00003bb4 <__floatdidf>:
    3bb4:	1101                	addi	sp,sp,-32
    3bb6:	ce06                	sw	ra,28(sp)
    3bb8:	cc22                	sw	s0,24(sp)
    3bba:	ca26                	sw	s1,20(sp)
    3bbc:	c84a                	sw	s2,16(sp)
    3bbe:	c64e                	sw	s3,12(sp)
    3bc0:	00b567b3          	or	a5,a0,a1
    3bc4:	cf95                	beqz	a5,3c00 <__floatdidf+0x4c>
    3bc6:	84ae                	mv	s1,a1
    3bc8:	89aa                	mv	s3,a0
    3bca:	01f5d913          	srli	s2,a1,0x1f
    3bce:	0405cd63          	bltz	a1,3c28 <__floatdidf+0x74>
    3bd2:	8426                	mv	s0,s1
    3bd4:	c4a5                	beqz	s1,3c3c <__floatdidf+0x88>
    3bd6:	8526                	mv	a0,s1
    3bd8:	2279                	jal	3d66 <__clzsi2>
    3bda:	43e00693          	li	a3,1086
    3bde:	8e89                	sub	a3,a3,a0
    3be0:	43300793          	li	a5,1075
    3be4:	08d7c963          	blt	a5,a3,3c76 <__floatdidf+0xc2>
    3be8:	00c49793          	slli	a5,s1,0xc
    3bec:	462d                	li	a2,11
    3bee:	874e                	mv	a4,s3
    3bf0:	7ff6f693          	andi	a3,a3,2047
    3bf4:	83b1                	srli	a5,a5,0xc
    3bf6:	00a65963          	bge	a2,a0,3c08 <__floatdidf+0x54>
    3bfa:	ff550613          	addi	a2,a0,-11 # 7ffff5 <_data_lma+0x7fbc09>
    3bfe:	a8b1                	j	3c5a <__floatdidf+0xa6>
    3c00:	4901                	li	s2,0
    3c02:	4681                	li	a3,0
    3c04:	4781                	li	a5,0
    3c06:	4701                	li	a4,0
    3c08:	07b2                	slli	a5,a5,0xc
    3c0a:	40f2                	lw	ra,28(sp)
    3c0c:	4462                	lw	s0,24(sp)
    3c0e:	06d2                	slli	a3,a3,0x14
    3c10:	83b1                	srli	a5,a5,0xc
    3c12:	097e                	slli	s2,s2,0x1f
    3c14:	8fd5                	or	a5,a5,a3
    3c16:	0127e7b3          	or	a5,a5,s2
    3c1a:	44d2                	lw	s1,20(sp)
    3c1c:	4942                	lw	s2,16(sp)
    3c1e:	49b2                	lw	s3,12(sp)
    3c20:	853a                	mv	a0,a4
    3c22:	85be                	mv	a1,a5
    3c24:	6105                	addi	sp,sp,32
    3c26:	8082                	ret
    3c28:	40a00533          	neg	a0,a0
    3c2c:	00a036b3          	snez	a3,a0
    3c30:	40b004b3          	neg	s1,a1
    3c34:	8c95                	sub	s1,s1,a3
    3c36:	89aa                	mv	s3,a0
    3c38:	8426                	mv	s0,s1
    3c3a:	fcd1                	bnez	s1,3bd6 <__floatdidf+0x22>
    3c3c:	854e                	mv	a0,s3
    3c3e:	2225                	jal	3d66 <__clzsi2>
    3c40:	862a                	mv	a2,a0
    3c42:	43e00693          	li	a3,1086
    3c46:	02050513          	addi	a0,a0,32
    3c4a:	8e89                	sub	a3,a3,a0
    3c4c:	02a00793          	li	a5,42
    3c50:	7ff6f693          	andi	a3,a3,2047
    3c54:	0ca7c763          	blt	a5,a0,3d22 <__floatdidf+0x16e>
    3c58:	0655                	addi	a2,a2,21
    3c5a:	02b00713          	li	a4,43
    3c5e:	8f09                	sub	a4,a4,a0
    3c60:	00c497b3          	sll	a5,s1,a2
    3c64:	00e9d733          	srl	a4,s3,a4
    3c68:	8f5d                	or	a4,a4,a5
    3c6a:	00c71793          	slli	a5,a4,0xc
    3c6e:	83b1                	srli	a5,a5,0xc
    3c70:	00c99733          	sll	a4,s3,a2
    3c74:	bf51                	j	3c08 <__floatdidf+0x54>
    3c76:	43600793          	li	a5,1078
    3c7a:	02d7db63          	bge	a5,a3,3cb0 <__floatdidf+0xfc>
    3c7e:	4721                	li	a4,8
    3c80:	8f09                	sub	a4,a4,a0
    3c82:	fe070593          	addi	a1,a4,-32
    3c86:	0c05c263          	bltz	a1,3d4a <__floatdidf+0x196>
    3c8a:	00b4d5b3          	srl	a1,s1,a1
    3c8e:	4701                	li	a4,0
    3c90:	01850613          	addi	a2,a0,24
    3c94:	03850793          	addi	a5,a0,56
    3c98:	08064c63          	bltz	a2,3d30 <__floatdidf+0x17c>
    3c9c:	00c99633          	sll	a2,s3,a2
    3ca0:	4981                	li	s3,0
    3ca2:	00c9e9b3          	or	s3,s3,a2
    3ca6:	01303633          	snez	a2,s3
    3caa:	00c5e9b3          	or	s3,a1,a2
    3cae:	843a                	mv	s0,a4
    3cb0:	47a1                	li	a5,8
    3cb2:	864e                	mv	a2,s3
    3cb4:	04a7c963          	blt	a5,a0,3d06 <__floatdidf+0x152>
    3cb8:	ff8007b7          	lui	a5,0xff800
    3cbc:	17fd                	addi	a5,a5,-1
    3cbe:	00767593          	andi	a1,a2,7
    3cc2:	00f47733          	and	a4,s0,a5
    3cc6:	c585                	beqz	a1,3cee <__floatdidf+0x13a>
    3cc8:	00f67593          	andi	a1,a2,15
    3ccc:	4811                	li	a6,4
    3cce:	03058063          	beq	a1,a6,3cee <__floatdidf+0x13a>
    3cd2:	00460593          	addi	a1,a2,4 # ff800004 <_eusrstack+0xdf7f8004>
    3cd6:	00c5b633          	sltu	a2,a1,a2
    3cda:	9732                	add	a4,a4,a2
    3cdc:	00871613          	slli	a2,a4,0x8
    3ce0:	08065163          	bgez	a2,3d62 <__floatdidf+0x1ae>
    3ce4:	43f00693          	li	a3,1087
    3ce8:	8f7d                	and	a4,a4,a5
    3cea:	8e89                	sub	a3,a3,a0
    3cec:	862e                	mv	a2,a1
    3cee:	00365513          	srli	a0,a2,0x3
    3cf2:	00971793          	slli	a5,a4,0x9
    3cf6:	01d71613          	slli	a2,a4,0x1d
    3cfa:	00a66733          	or	a4,a2,a0
    3cfe:	83b1                	srli	a5,a5,0xc
    3d00:	7ff6f693          	andi	a3,a3,2047
    3d04:	b711                	j	3c08 <__floatdidf+0x54>
    3d06:	02800793          	li	a5,40
    3d0a:	ff850593          	addi	a1,a0,-8
    3d0e:	8f89                	sub	a5,a5,a0
    3d10:	00f9d7b3          	srl	a5,s3,a5
    3d14:	00b41733          	sll	a4,s0,a1
    3d18:	00e7e433          	or	s0,a5,a4
    3d1c:	00b99633          	sll	a2,s3,a1
    3d20:	bf61                	j	3cb8 <__floatdidf+0x104>
    3d22:	1655                	addi	a2,a2,-11
    3d24:	00c997b3          	sll	a5,s3,a2
    3d28:	07b2                	slli	a5,a5,0xc
    3d2a:	83b1                	srli	a5,a5,0xc
    3d2c:	4701                	li	a4,0
    3d2e:	bde9                	j	3c08 <__floatdidf+0x54>
    3d30:	467d                	li	a2,31
    3d32:	0019d813          	srli	a6,s3,0x1
    3d36:	8e1d                	sub	a2,a2,a5
    3d38:	00c85833          	srl	a6,a6,a2
    3d3c:	00f49633          	sll	a2,s1,a5
    3d40:	00c86633          	or	a2,a6,a2
    3d44:	00f999b3          	sll	s3,s3,a5
    3d48:	bfa9                	j	3ca2 <__floatdidf+0xee>
    3d4a:	467d                	li	a2,31
    3d4c:	8e19                	sub	a2,a2,a4
    3d4e:	00149793          	slli	a5,s1,0x1
    3d52:	00e9d5b3          	srl	a1,s3,a4
    3d56:	00c797b3          	sll	a5,a5,a2
    3d5a:	8ddd                	or	a1,a1,a5
    3d5c:	00e4d733          	srl	a4,s1,a4
    3d60:	bf05                	j	3c90 <__floatdidf+0xdc>
    3d62:	862e                	mv	a2,a1
    3d64:	b769                	j	3cee <__floatdidf+0x13a>

00003d66 <__clzsi2>:
    3d66:	67c1                	lui	a5,0x10
    3d68:	02f57c63          	bgeu	a0,a5,3da0 <__clzsi2+0x3a>
    3d6c:	0ff00793          	li	a5,255
    3d70:	02000713          	li	a4,32
    3d74:	00a7eb63          	bltu	a5,a0,3d8a <__clzsi2+0x24>
    3d78:	00000797          	auipc	a5,0x0
    3d7c:	57478793          	addi	a5,a5,1396 # 42ec <__clz_tab>
    3d80:	97aa                	add	a5,a5,a0
    3d82:	2388                	lbu	a0,0(a5)
    3d84:	40a70533          	sub	a0,a4,a0
    3d88:	8082                	ret
    3d8a:	8121                	srli	a0,a0,0x8
    3d8c:	00000797          	auipc	a5,0x0
    3d90:	56078793          	addi	a5,a5,1376 # 42ec <__clz_tab>
    3d94:	97aa                	add	a5,a5,a0
    3d96:	2388                	lbu	a0,0(a5)
    3d98:	4761                	li	a4,24
    3d9a:	40a70533          	sub	a0,a4,a0
    3d9e:	8082                	ret
    3da0:	010007b7          	lui	a5,0x1000
    3da4:	00f56d63          	bltu	a0,a5,3dbe <__clzsi2+0x58>
    3da8:	8161                	srli	a0,a0,0x18
    3daa:	00000797          	auipc	a5,0x0
    3dae:	54278793          	addi	a5,a5,1346 # 42ec <__clz_tab>
    3db2:	97aa                	add	a5,a5,a0
    3db4:	2388                	lbu	a0,0(a5)
    3db6:	4721                	li	a4,8
    3db8:	40a70533          	sub	a0,a4,a0
    3dbc:	8082                	ret
    3dbe:	8141                	srli	a0,a0,0x10
    3dc0:	00000797          	auipc	a5,0x0
    3dc4:	52c78793          	addi	a5,a5,1324 # 42ec <__clz_tab>
    3dc8:	97aa                	add	a5,a5,a0
    3dca:	2388                	lbu	a0,0(a5)
    3dcc:	4741                	li	a4,16
    3dce:	40a70533          	sub	a0,a4,a0
    3dd2:	8082                	ret

00003dd4 <malloc>:
    3dd4:	81c18793          	addi	a5,gp,-2020 # 200000ac <_impure_ptr>
    3dd8:	85aa                	mv	a1,a0
    3dda:	4388                	lw	a0,0(a5)
    3ddc:	a28d                	j	3f3e <_malloc_r>

00003dde <free>:
    3dde:	81c18793          	addi	a5,gp,-2020 # 200000ac <_impure_ptr>
    3de2:	85aa                	mv	a1,a0
    3de4:	4388                	lw	a0,0(a5)
    3de6:	a855                	j	3e9a <_free_r>

00003de8 <memcpy>:
    3de8:	00a5c7b3          	xor	a5,a1,a0
    3dec:	8b8d                	andi	a5,a5,3
    3dee:	00c50733          	add	a4,a0,a2
    3df2:	e781                	bnez	a5,3dfa <memcpy+0x12>
    3df4:	478d                	li	a5,3
    3df6:	00c7ed63          	bltu	a5,a2,3e10 <memcpy+0x28>
    3dfa:	87aa                	mv	a5,a0
    3dfc:	08e57e63          	bgeu	a0,a4,3e98 <memcpy+0xb0>
    3e00:	2194                	lbu	a3,0(a1)
    3e02:	0785                	addi	a5,a5,1
    3e04:	0585                	addi	a1,a1,1
    3e06:	fed78fa3          	sb	a3,-1(a5)
    3e0a:	fee7ebe3          	bltu	a5,a4,3e00 <memcpy+0x18>
    3e0e:	8082                	ret
    3e10:	00357693          	andi	a3,a0,3
    3e14:	87aa                	mv	a5,a0
    3e16:	ca89                	beqz	a3,3e28 <memcpy+0x40>
    3e18:	2194                	lbu	a3,0(a1)
    3e1a:	0785                	addi	a5,a5,1
    3e1c:	0585                	addi	a1,a1,1
    3e1e:	fed78fa3          	sb	a3,-1(a5)
    3e22:	0037f693          	andi	a3,a5,3
    3e26:	bfc5                	j	3e16 <memcpy+0x2e>
    3e28:	ffc77693          	andi	a3,a4,-4
    3e2c:	fe068613          	addi	a2,a3,-32 # 7fffe0 <_data_lma+0x7fbbf4>
    3e30:	06c7f063          	bgeu	a5,a2,3e90 <memcpy+0xa8>
    3e34:	0005a383          	lw	t2,0(a1) # 80000000 <_eusrstack+0x5fff8000>
    3e38:	0045a283          	lw	t0,4(a1)
    3e3c:	0085af83          	lw	t6,8(a1)
    3e40:	00c5af03          	lw	t5,12(a1)
    3e44:	0105ae83          	lw	t4,16(a1)
    3e48:	0145ae03          	lw	t3,20(a1)
    3e4c:	0185a303          	lw	t1,24(a1)
    3e50:	01c5a883          	lw	a7,28(a1)
    3e54:	02458593          	addi	a1,a1,36
    3e58:	0077a023          	sw	t2,0(a5)
    3e5c:	ffc5a803          	lw	a6,-4(a1)
    3e60:	0057a223          	sw	t0,4(a5)
    3e64:	01f7a423          	sw	t6,8(a5)
    3e68:	01e7a623          	sw	t5,12(a5)
    3e6c:	01d7a823          	sw	t4,16(a5)
    3e70:	01c7aa23          	sw	t3,20(a5)
    3e74:	0067ac23          	sw	t1,24(a5)
    3e78:	0117ae23          	sw	a7,28(a5)
    3e7c:	02478793          	addi	a5,a5,36
    3e80:	ff07ae23          	sw	a6,-4(a5)
    3e84:	b775                	j	3e30 <memcpy+0x48>
    3e86:	4190                	lw	a2,0(a1)
    3e88:	0791                	addi	a5,a5,4
    3e8a:	0591                	addi	a1,a1,4
    3e8c:	fec7ae23          	sw	a2,-4(a5)
    3e90:	fed7ebe3          	bltu	a5,a3,3e86 <memcpy+0x9e>
    3e94:	f6e7e6e3          	bltu	a5,a4,3e00 <memcpy+0x18>
    3e98:	8082                	ret

00003e9a <_free_r>:
    3e9a:	c1cd                	beqz	a1,3f3c <_free_r+0xa2>
    3e9c:	ffc5a783          	lw	a5,-4(a1)
    3ea0:	1141                	addi	sp,sp,-16
    3ea2:	c422                	sw	s0,8(sp)
    3ea4:	c606                	sw	ra,12(sp)
    3ea6:	c226                	sw	s1,4(sp)
    3ea8:	ffc58413          	addi	s0,a1,-4
    3eac:	0007d363          	bgez	a5,3eb2 <_free_r+0x18>
    3eb0:	943e                	add	s0,s0,a5
    3eb2:	84aa                	mv	s1,a0
    3eb4:	2269                	jal	403e <__malloc_lock>
    3eb6:	86c18793          	addi	a5,gp,-1940 # 200000fc <__malloc_free_list>
    3eba:	439c                	lw	a5,0(a5)
    3ebc:	eb99                	bnez	a5,3ed2 <_free_r+0x38>
    3ebe:	00042223          	sw	zero,4(s0) # 80004 <_data_lma+0x7bc18>
    3ec2:	8681a623          	sw	s0,-1940(gp) # 200000fc <__malloc_free_list>
    3ec6:	4422                	lw	s0,8(sp)
    3ec8:	40b2                	lw	ra,12(sp)
    3eca:	8526                	mv	a0,s1
    3ecc:	4492                	lw	s1,4(sp)
    3ece:	0141                	addi	sp,sp,16
    3ed0:	aa85                	j	4040 <__malloc_unlock>
    3ed2:	00f47e63          	bgeu	s0,a5,3eee <_free_r+0x54>
    3ed6:	4014                	lw	a3,0(s0)
    3ed8:	00d40733          	add	a4,s0,a3
    3edc:	00e79663          	bne	a5,a4,3ee8 <_free_r+0x4e>
    3ee0:	4398                	lw	a4,0(a5)
    3ee2:	43dc                	lw	a5,4(a5)
    3ee4:	9736                	add	a4,a4,a3
    3ee6:	c018                	sw	a4,0(s0)
    3ee8:	c05c                	sw	a5,4(s0)
    3eea:	bfe1                	j	3ec2 <_free_r+0x28>
    3eec:	87ba                	mv	a5,a4
    3eee:	43d8                	lw	a4,4(a5)
    3ef0:	c319                	beqz	a4,3ef6 <_free_r+0x5c>
    3ef2:	fee47de3          	bgeu	s0,a4,3eec <_free_r+0x52>
    3ef6:	4394                	lw	a3,0(a5)
    3ef8:	00d78633          	add	a2,a5,a3
    3efc:	00861f63          	bne	a2,s0,3f1a <_free_r+0x80>
    3f00:	4010                	lw	a2,0(s0)
    3f02:	96b2                	add	a3,a3,a2
    3f04:	c394                	sw	a3,0(a5)
    3f06:	00d78633          	add	a2,a5,a3
    3f0a:	fac71ee3          	bne	a4,a2,3ec6 <_free_r+0x2c>
    3f0e:	4310                	lw	a2,0(a4)
    3f10:	4358                	lw	a4,4(a4)
    3f12:	96b2                	add	a3,a3,a2
    3f14:	c394                	sw	a3,0(a5)
    3f16:	c3d8                	sw	a4,4(a5)
    3f18:	b77d                	j	3ec6 <_free_r+0x2c>
    3f1a:	00c47563          	bgeu	s0,a2,3f24 <_free_r+0x8a>
    3f1e:	47b1                	li	a5,12
    3f20:	c09c                	sw	a5,0(s1)
    3f22:	b755                	j	3ec6 <_free_r+0x2c>
    3f24:	4010                	lw	a2,0(s0)
    3f26:	00c406b3          	add	a3,s0,a2
    3f2a:	00d71663          	bne	a4,a3,3f36 <_free_r+0x9c>
    3f2e:	4314                	lw	a3,0(a4)
    3f30:	4358                	lw	a4,4(a4)
    3f32:	96b2                	add	a3,a3,a2
    3f34:	c014                	sw	a3,0(s0)
    3f36:	c058                	sw	a4,4(s0)
    3f38:	c3c0                	sw	s0,4(a5)
    3f3a:	b771                	j	3ec6 <_free_r+0x2c>
    3f3c:	8082                	ret

00003f3e <_malloc_r>:
    3f3e:	1101                	addi	sp,sp,-32
    3f40:	ca26                	sw	s1,20(sp)
    3f42:	00358493          	addi	s1,a1,3
    3f46:	98f1                	andi	s1,s1,-4
    3f48:	ce06                	sw	ra,28(sp)
    3f4a:	cc22                	sw	s0,24(sp)
    3f4c:	c84a                	sw	s2,16(sp)
    3f4e:	c64e                	sw	s3,12(sp)
    3f50:	04a1                	addi	s1,s1,8
    3f52:	47b1                	li	a5,12
    3f54:	04f4f163          	bgeu	s1,a5,3f96 <_malloc_r+0x58>
    3f58:	44b1                	li	s1,12
    3f5a:	04b4e063          	bltu	s1,a1,3f9a <_malloc_r+0x5c>
    3f5e:	892a                	mv	s2,a0
    3f60:	28f9                	jal	403e <__malloc_lock>
    3f62:	86c18793          	addi	a5,gp,-1940 # 200000fc <__malloc_free_list>
    3f66:	4398                	lw	a4,0(a5)
    3f68:	843a                	mv	s0,a4
    3f6a:	e031                	bnez	s0,3fae <_malloc_r+0x70>
    3f6c:	87018793          	addi	a5,gp,-1936 # 20000100 <__malloc_sbrk_start>
    3f70:	439c                	lw	a5,0(a5)
    3f72:	e791                	bnez	a5,3f7e <_malloc_r+0x40>
    3f74:	4581                	li	a1,0
    3f76:	854a                	mv	a0,s2
    3f78:	2851                	jal	400c <_sbrk_r>
    3f7a:	86a1a823          	sw	a0,-1936(gp) # 20000100 <__malloc_sbrk_start>
    3f7e:	85a6                	mv	a1,s1
    3f80:	854a                	mv	a0,s2
    3f82:	2069                	jal	400c <_sbrk_r>
    3f84:	59fd                	li	s3,-1
    3f86:	07351763          	bne	a0,s3,3ff4 <_malloc_r+0xb6>
    3f8a:	47b1                	li	a5,12
    3f8c:	00f92023          	sw	a5,0(s2) # 800000 <_data_lma+0x7fbc14>
    3f90:	854a                	mv	a0,s2
    3f92:	207d                	jal	4040 <__malloc_unlock>
    3f94:	a029                	j	3f9e <_malloc_r+0x60>
    3f96:	fc04d2e3          	bgez	s1,3f5a <_malloc_r+0x1c>
    3f9a:	47b1                	li	a5,12
    3f9c:	c11c                	sw	a5,0(a0)
    3f9e:	4501                	li	a0,0
    3fa0:	40f2                	lw	ra,28(sp)
    3fa2:	4462                	lw	s0,24(sp)
    3fa4:	44d2                	lw	s1,20(sp)
    3fa6:	4942                	lw	s2,16(sp)
    3fa8:	49b2                	lw	s3,12(sp)
    3faa:	6105                	addi	sp,sp,32
    3fac:	8082                	ret
    3fae:	401c                	lw	a5,0(s0)
    3fb0:	8f85                	sub	a5,a5,s1
    3fb2:	0207ce63          	bltz	a5,3fee <_malloc_r+0xb0>
    3fb6:	46ad                	li	a3,11
    3fb8:	00f6f663          	bgeu	a3,a5,3fc4 <_malloc_r+0x86>
    3fbc:	c01c                	sw	a5,0(s0)
    3fbe:	943e                	add	s0,s0,a5
    3fc0:	c004                	sw	s1,0(s0)
    3fc2:	a031                	j	3fce <_malloc_r+0x90>
    3fc4:	405c                	lw	a5,4(s0)
    3fc6:	02871263          	bne	a4,s0,3fea <_malloc_r+0xac>
    3fca:	86f1a623          	sw	a5,-1940(gp) # 200000fc <__malloc_free_list>
    3fce:	854a                	mv	a0,s2
    3fd0:	2885                	jal	4040 <__malloc_unlock>
    3fd2:	00b40513          	addi	a0,s0,11
    3fd6:	00440793          	addi	a5,s0,4
    3fda:	9961                	andi	a0,a0,-8
    3fdc:	40f50733          	sub	a4,a0,a5
    3fe0:	d361                	beqz	a4,3fa0 <_malloc_r+0x62>
    3fe2:	943a                	add	s0,s0,a4
    3fe4:	8f89                	sub	a5,a5,a0
    3fe6:	c01c                	sw	a5,0(s0)
    3fe8:	bf65                	j	3fa0 <_malloc_r+0x62>
    3fea:	c35c                	sw	a5,4(a4)
    3fec:	b7cd                	j	3fce <_malloc_r+0x90>
    3fee:	8722                	mv	a4,s0
    3ff0:	4040                	lw	s0,4(s0)
    3ff2:	bfa5                	j	3f6a <_malloc_r+0x2c>
    3ff4:	00350413          	addi	s0,a0,3
    3ff8:	9871                	andi	s0,s0,-4
    3ffa:	fc8503e3          	beq	a0,s0,3fc0 <_malloc_r+0x82>
    3ffe:	40a405b3          	sub	a1,s0,a0
    4002:	854a                	mv	a0,s2
    4004:	2021                	jal	400c <_sbrk_r>
    4006:	fb351de3          	bne	a0,s3,3fc0 <_malloc_r+0x82>
    400a:	b741                	j	3f8a <_malloc_r+0x4c>

0000400c <_sbrk_r>:
    400c:	1141                	addi	sp,sp,-16
    400e:	c422                	sw	s0,8(sp)
    4010:	842a                	mv	s0,a0
    4012:	852e                	mv	a0,a1
    4014:	1fffd797          	auipc	a5,0x1fffd
    4018:	6e07ae23          	sw	zero,1788(a5) # 20001710 <errno>
    401c:	c606                	sw	ra,12(sp)
    401e:	ef3fd0ef          	jal	ra,1f10 <_sbrk>
    4022:	57fd                	li	a5,-1
    4024:	00f51963          	bne	a0,a5,4036 <_sbrk_r+0x2a>
    4028:	1fffd797          	auipc	a5,0x1fffd
    402c:	6e878793          	addi	a5,a5,1768 # 20001710 <errno>
    4030:	439c                	lw	a5,0(a5)
    4032:	c391                	beqz	a5,4036 <_sbrk_r+0x2a>
    4034:	c01c                	sw	a5,0(s0)
    4036:	40b2                	lw	ra,12(sp)
    4038:	4422                	lw	s0,8(sp)
    403a:	0141                	addi	sp,sp,16
    403c:	8082                	ret

0000403e <__malloc_lock>:
    403e:	8082                	ret

00004040 <__malloc_unlock>:
    4040:	8082                	ret
    4042:	0000                	unimp
    4044:	5541465b          	0x5541465b
    4048:	544c                	lw	a1,44(s0)
    404a:	205d                	jal	40f0 <__malloc_unlock+0xb0>
    404c:	616d                	addi	sp,sp,240
    404e:	303d6b73          	csrrsi	s6,mideleg,26
    4052:	2578                	lbu	a4,14(a0)
    4054:	3430                	lbu	a2,11(s0)
    4056:	2058                	lbu	a4,4(s0)
    4058:	6164                	flw	fs1,68(a0)
    405a:	75253d63          	0x75253d63
    405e:	6120                	flw	fs0,64(a0)
    4060:	6464                	flw	fs1,76(s0)
    4062:	3d72                	lhu	a2,62(a0)
    4064:	7830                	flw	fa2,112(s0)
    4066:	3025                	jal	388e <__subdf3+0x4d2>
    4068:	5832                	lw	a6,44(sp)
    406a:	302d                	jal	3894 <__subdf3+0x4d8>
    406c:	2578                	lbu	a4,14(a0)
    406e:	3230                	lbu	a2,3(a2)
    4070:	2d58                	lbu	a4,28(a0)
    4072:	7830                	flw	fa2,112(s0)
    4074:	3025                	jal	389c <__subdf3+0x4e0>
    4076:	5832                	lw	a6,44(sp)
    4078:	302d                	jal	38a2 <__subdf3+0x4e6>
    407a:	2578                	lbu	a4,14(a0)
    407c:	3230                	lbu	a2,3(a2)
    407e:	0d58                	addi	a4,sp,660
    4080:	000a                	c.slli	zero,0x2
    4082:	0000                	unimp
    4084:	0a0d                	addi	s4,s4,3
    4086:	3d3d                	jal	3ec4 <_free_r+0x2a>
    4088:	203d                	jal	40b6 <__malloc_unlock+0x76>
    408a:	6c45                	lui	s8,0x11
    408c:	6365                	lui	t1,0x19
    408e:	7274                	flw	fa3,100(a2)
    4090:	63696e6f          	jal	t3,9a6c6 <_data_lma+0x962da>
    4094:	4c20                	lw	s0,88(s0)
    4096:	2064616f          	jal	sp,4a29c <_data_lma+0x45eb0>
    409a:	746e6f43          	0x746e6f43
    409e:	6f72                	flw	ft10,28(sp)
    40a0:	6c6c                	flw	fa1,92(s0)
    40a2:	7265                	lui	tp,0xffff9
    40a4:	3d20                	lbu	s0,27(a0)
    40a6:	3d3d                	jal	3ee4 <_free_r+0x4a>
    40a8:	000d                	c.nop	3
    40aa:	0000                	unimp
    40ac:	74737953          	0x74737953
    40b0:	6d65                	lui	s10,0x19
    40b2:	3a6b6c43          	fmadd.d	fs8,fs6,ft6,ft7,unknown
    40b6:	6425                	lui	s0,0x9
    40b8:	0a0d                	addi	s4,s4,3
    40ba:	0000                	unimp
    40bc:	70696843          	fmadd.s	fa6,fs2,ft6,fa4,unknown
    40c0:	4449                	li	s0,18
    40c2:	253a                	lhu	a4,10(a0)
    40c4:	3830                	lbu	a2,19(s0)
    40c6:	0d78                	addi	a4,sp,668
    40c8:	000a                	c.slli	zero,0x2
    40ca:	0000                	unimp
    40cc:	5355                	li	t1,-11
    40ce:	2d42                	lhu	s0,28(a0)
    40d0:	20434443          	fmadd.s	fs0,ft6,ft4,ft4,rmm
    40d4:	6e65                	lui	t3,0x19
    40d6:	6d75                	lui	s10,0x1d
    40d8:	7265                	lui	tp,0xffff9
    40da:	7461                	lui	s0,0xffff8
    40dc:	6465                	lui	s0,0x19
    40de:	000d                	c.nop	3
    40e0:	5355                	li	t1,-11
    40e2:	2d42                	lhu	s0,28(a0)
    40e4:	20434443          	fmadd.s	fs0,ft6,ft4,ft4,rmm
    40e8:	6974                	flw	fa3,84(a0)
    40ea:	656d                	lui	a0,0x1b
    40ec:	2c74756f          	jal	a0,4bbb2 <_data_lma+0x477c6>
    40f0:	6320                	flw	fs0,64(a4)
    40f2:	69746e6f          	jal	t3,4af88 <_data_lma+0x46b9c>
    40f6:	756e                	flw	fa0,248(sp)
    40f8:	6e69                	lui	t3,0x1a
    40fa:	00000d67          	jalr	s10,zero # 0 <_sinit>
    40fe:	0000                	unimp
    4100:	3249                	jal	3a82 <__subdf3+0x6c6>
    4102:	69203143          	fmadd.s	ft2,ft0,fs2,fa3,rup
    4106:	696e                	flw	fs2,216(sp)
    4108:	2e74                	lbu	a3,30(a2)
    410a:	2e2e                	lhu	a1,26(a2)
    410c:	000d                	c.nop	3
    410e:	0000                	unimp
    4110:	3249                	jal	3a92 <__subdf3+0x6d6>
    4112:	72203143          	fmadd.d	ft2,ft0,ft2,fa4,rup
    4116:	6165                	addi	sp,sp,112
    4118:	7964                	flw	fs1,116(a0)
    411a:	000d                	c.nop	3
    411c:	6572                	flw	fa0,28(sp)
    411e:	25207663          	bgeu	zero,s2,436a <__clz_tab+0x7e>
    4122:	2064                	lbu	s1,6(s0)
    4124:	3e3e                	lhu	a5,58(a2)
    4126:	0a3e                	slli	s4,s4,0xf
    4128:	0000                	unimp
    412a:	0000                	unimp
    412c:	3c0a                	lhu	a0,56(s0)
    412e:	3c3c                	lbu	a5,27(s0)
    4130:	0000                	unimp
    4132:	0000                	unimp
    4134:	144e                	slli	s0,s0,0x33
    4136:	0000                	unimp
    4138:	1344                	addi	s1,sp,420
    413a:	0000                	unimp
    413c:	11de                	slli	gp,gp,0x37
    413e:	0000                	unimp
    4140:	13b4                	addi	a3,sp,488
    4142:	0000                	unimp
    4144:	11de                	slli	gp,gp,0x37
    4146:	0000                	unimp
    4148:	12d6                	slli	t0,t0,0x35
    414a:	0000                	unimp
    414c:	1236                	slli	tp,tp,0x2d
    414e:	0000                	unimp
    4150:	11de                	slli	gp,gp,0x37
    4152:	0000                	unimp
    4154:	131c                	addi	a5,sp,416
    4156:	0000                	unimp
    4158:	1332                	slli	t1,t1,0x2c
    415a:	0000                	unimp
    415c:	1448                	addi	a0,sp,548
    415e:	0000                	unimp
    4160:	12e0                	addi	s0,sp,364
    4162:	0000                	unimp
    4164:	0a0d                	addi	s4,s4,3
    4166:	3d3d                	jal	3fa4 <_malloc_r+0x66>
    4168:	203d                	jal	4196 <__malloc_unlock+0x156>
    416a:	5355                	li	t1,-11
    416c:	5241                	li	tp,-16
    416e:	3154                	lbu	a3,5(a0)
    4170:	4f20                	lw	s0,88(a4)
    4172:	3128204b          	fnmsub.s	ft0,fa6,fs2,ft6,rdn
    4176:	3531                	jal	3f82 <_malloc_r+0x44>
    4178:	3032                	lhu	a2,34(s0)
    417a:	2c30                	lbu	a2,26(s0)
    417c:	4e38                	lw	a4,88(a2)
    417e:	2931                	jal	459a <_data_lma+0x1ae>
    4180:	3d20                	lbu	s0,27(a0)
    4182:	3d3d                	jal	3fc0 <_malloc_r+0x82>
    4184:	0a0d                	addi	s4,s4,3
    4186:	0000                	unimp
    4188:	7250                	flw	fa2,36(a2)
    418a:	636f746f          	jal	s0,fb7c0 <_data_lma+0xf73d4>
    418e:	69206c6f          	jal	s8,a820 <_data_lma+0x6434>
    4192:	696e                	flw	fs2,216(sp)
    4194:	3a74                	lbu	a3,23(a2)
    4196:	5520                	lw	s0,104(a0)
    4198:	54524153          	0x54524153
    419c:	2031                	jal	41a8 <__malloc_unlock+0x168>
    419e:	3131                	jal	3daa <__clzsi2+0x44>
    41a0:	3235                	jal	3acc <__subdf3+0x710>
    41a2:	3030                	lbu	a2,3(s0)
    41a4:	3820                	lbu	s0,19(s0)
    41a6:	314e                	lhu	a1,36(a0)
    41a8:	2820                	lbu	s0,18(s0)
    41aa:	6f6e                	flw	ft10,216(sp)
    41ac:	7020                	flw	fs0,96(s0)
    41ae:	7261                	lui	tp,0xffff8
    41b0:	7469                	lui	s0,0xffffa
    41b2:	2979                	jal	4650 <_data_lma+0x264>
    41b4:	202c                	lbu	a1,2(s0)
    41b6:	6972                	flw	fs2,28(sp)
    41b8:	676e                	flw	fa4,216(sp)
    41ba:	6220                	flw	fs0,64(a2)
    41bc:	6675                	lui	a2,0x1d
    41be:	6566                	flw	fa0,88(sp)
    41c0:	2072                	lhu	a2,6(s0)
    41c2:	6425                	lui	s0,0x9
    41c4:	6220                	flw	fs0,64(a2)
    41c6:	7479                	lui	s0,0xffffe
    41c8:	7365                	lui	t1,0xffff9
    41ca:	0a0d                	addi	s4,s4,3
    41cc:	0000                	unimp
    41ce:	0000                	unimp
    41d0:	4f534a63          	blt	t1,s5,46c4 <_data_lma+0x2d8>
    41d4:	204e                	lhu	a1,4(s0)
    41d6:	7261                	lui	tp,0xffff8
    41d8:	6e65                	lui	t3,0x19
    41da:	3a61                	jal	3b72 <__fixdfdi+0x7a>
    41dc:	2520                	lbu	s0,10(a0)
    41de:	2064                	lbu	s1,6(s0)
    41e0:	7962                	flw	fs2,56(sp)
    41e2:	6574                	flw	fa3,76(a0)
    41e4:	74612073          	csrs	0x746,sp
    41e8:	3020                	lbu	s0,3(s0)
    41ea:	2578                	lbu	a4,14(a0)
    41ec:	3830                	lbu	a2,19(s0)
    41ee:	0d58                	addi	a4,sp,660
    41f0:	000a                	c.slli	zero,0x2
    41f2:	0000                	unimp
    41f4:	5355                	li	t1,-11
    41f6:	2d42                	lhu	s0,28(a0)
    41f8:	20434443          	fmadd.s	fs0,ft6,ft4,ft4,rmm
    41fc:	6e69                	lui	t3,0x1a
    41fe:	7469                	lui	s0,0xffffa
    4200:	6169                	addi	sp,sp,208
    4202:	696c                	flw	fa1,84(a0)
    4204:	657a                	flw	fa0,156(sp)
    4206:	0d64                	addi	s1,sp,668
    4208:	0000                	unimp
	...

0000420c <MyCfgDescr>:
    420c:	0209 0043 0102 8000 0932 0004 0100 0202     ..C.....2.......
    421c:	0001 2405 1000 0501 0124 0100 2404 0202     ...$....$....$..
    422c:	2405 0006 0701 8105 4003 0100 0409 0001     .$.......@......
    423c:	0a02 0000 0700 0205 4002 0000 0507 0283     .........@......
    424c:	0040 0000                                   @...

00004250 <MyDevDescr>:
    4250:	0112 0110 0002 4000 1a86 fe0c 0001 0201     .......@........
    4260:	0100 0000                                   ....

00004264 <MyManuInfo>:
    4264:	030e 0077 0063 0068 002e 0063 006e 0000     ..w.c.h...c.n...

00004274 <MyProdInfo>:
    4274:	0316 0055 0053 0042 0020 0053 0065 0072     ..U.S.B. .S.e.r.
    4284:	0069 0061 006c 0000                         i.a.l...

0000428c <MySerNumInfo>:
    428c:	0316 0030 0031 0032 0033 0034 0035 0036     ..0.1.2.3.4.5.6.
    429c:	0037 0038 0039 0000 6e28 6c75 296c 0000     7.8.9...(null)..
    42ac:	ee68 ffff ed5a ffff ed5a ffff ed58 ffff     h...Z...Z...X...
    42bc:	ed60 ffff ed60 ffff ed26 ffff ed58 ffff     `...`...&...X...
    42cc:	ed60 ffff ed26 ffff ed60 ffff ed58 ffff     `...&...`...X...
    42dc:	ee54 ffff ee54 ffff ee54 ffff ed26 ffff     T...T...T...&...

000042ec <__clz_tab>:
    42ec:	0100 0202 0303 0303 0404 0404 0404 0404     ................
    42fc:	0505 0505 0505 0505 0505 0505 0505 0505     ................
    430c:	0606 0606 0606 0606 0606 0606 0606 0606     ................
    431c:	0606 0606 0606 0606 0606 0606 0606 0606     ................
    432c:	0707 0707 0707 0707 0707 0707 0707 0707     ................
    433c:	0707 0707 0707 0707 0707 0707 0707 0707     ................
    434c:	0707 0707 0707 0707 0707 0707 0707 0707     ................
    435c:	0707 0707 0707 0707 0707 0707 0707 0707     ................
    436c:	0808 0808 0808 0808 0808 0808 0808 0808     ................
    437c:	0808 0808 0808 0808 0808 0808 0808 0808     ................
    438c:	0808 0808 0808 0808 0808 0808 0808 0808     ................
    439c:	0808 0808 0808 0808 0808 0808 0808 0808     ................
    43ac:	0808 0808 0808 0808 0808 0808 0808 0808     ................
    43bc:	0808 0808 0808 0808 0808 0808 0808 0808     ................
    43cc:	0808 0808 0808 0808 0808 0808 0808 0808     ................
    43dc:	0808 0808 0808 0808 0808 0808 0808 0808     ................
